ARM GAS  C:\Users\Usuario\AppData\Local\Temp\ccAY0OnG.s 			page 1


   1              		.syntax unified
   2              		.cpu cortex-m3
   3              		.fpu softvfp
   4              		.eabi_attribute 20, 1
   5              		.eabi_attribute 21, 1
   6              		.eabi_attribute 23, 3
   7              		.eabi_attribute 24, 1
   8              		.eabi_attribute 25, 1
   9              		.eabi_attribute 26, 1
  10              		.eabi_attribute 30, 6
  11              		.eabi_attribute 34, 1
  12              		.eabi_attribute 18, 4
  13              		.thumb
  14              		.file	"I2C.c"
  15              		.text
  16              	.Ltext0:
  17              		.cfi_sections	.debug_frame
  18              		.comm	count_teclas1,1,1
  19              		.comm	comas1,1,1
  20              		.comm	comas2,1,1
  21              		.comm	id_coma1,1,1
  22              		.comm	id_teclado1,1,1
  23              		.comm	count_teclas2,1,1
  24              		.comm	id_coma2,1,1
  25              		.comm	id_teclado2,1,1
  26              		.comm	posx1,2,2
  27              		.comm	posy1,2,2
  28              		.comm	sizeletra1,2,2
  29              		.comm	posx2,2,2
  30              		.comm	posy2,2,2
  31              		.comm	sizeletra2,2,2
  32              		.comm	teclas1,1,1
  33              		.comm	teclas2,1,1
  34              		.comm	flujo_LCD1,1,1
  35              		.comm	flujo_LCD2,1,1
  36              		.comm	flujo_LCD3,1,1
  37              		.comm	flujo_LCD4,1,1
  38              		.comm	Buffer_LCD1,30,4
  39              		.comm	Buffer_LCD2,30,4
  40              		.comm	count_protector,1,1
  41              		.comm	count_protector2,1,1
  42              		.comm	password_lcd,9,4
  43              		.comm	imagen_grado1,2,2
  44              		.comm	imagen_grado2,2,2
  45              		.comm	imagen_grado3,2,2
  46              		.comm	imagen_grado4,2,2
  47              		.comm	prox_caso,16,4
  48              		.comm	bloqueo_LCD,3,4
  49              		.comm	ppux10,1,1
  50              		.comm	nombre_pro1,17,4
  51              		.comm	nombre_pro2,17,4
  52              		.comm	nombre_pro3,17,4
  53              		.comm	version,4,4
  54              		.comm	lado1,93,4
  55              		.comm	lado2,93,4
  56              		.comm	lado3,93,4
  57              		.comm	lado4,93,4
ARM GAS  C:\Users\Usuario\AppData\Local\Temp\ccAY0OnG.s 			page 2


  58              		.comm	nombre,33,4
  59              		.comm	nit,15,4
  60              		.comm	telefono,20,4
  61              		.comm	direccion,33,4
  62              		.comm	lema1,32,4
  63              		.comm	lema2,32,4
  64              		.comm	id_logo,2,4
  65              		.comm	km,2,4
  66              		.comm	fecha,3,4
  67              		.comm	hora,2,4
  68              		.comm	rventa1,97,4
  69              		.comm	rventa2,97,4
  70              		.comm	rventa3,97,4
  71              		.comm	rventa4,97,4
  72              		.comm	ok_RF,1,1
  73              		.comm	ok_datosRF,1,1
  74              		.comm	rf_mod,200,4
  75              		.comm	buffer_i2c,64,4
  76              		.comm	crc_total,1,1
  77              		.comm	print1,2,4
  78              		.comm	print2,2,4
  79              		.section	.text.leer_hora,"ax",%progbits
  80              		.align	2
  81              		.global	leer_hora
  82              		.thumb
  83              		.thumb_func
  84              		.type	leer_hora, %function
  85              	leer_hora:
  86              	.LFB63:
  87              		.file 1 ".\\I2C.c"
   1:.\I2C.c       **** /*
   2:.\I2C.c       **** ***************************************************************************************************
   3:.\I2C.c       **** *                                           GRP550/700 CODE
   4:.\I2C.c       **** *
   5:.\I2C.c       **** *                             (c) Copyright 2013; Sistemas Insepet LTDA
   6:.\I2C.c       **** *
   7:.\I2C.c       **** *               All rights reserved.  Protected by international copyright laws.
   8:.\I2C.c       **** *               Knowledge of the source code may NOT be used to develop a similar product.
   9:.\I2C.c       **** *               Please help us continue to provide the Embedded community with the finest
  10:.\I2C.c       **** *               software available.  Your honesty is greatly appreciated.
  11:.\I2C.c       **** ***************************************************************************************************
  12:.\I2C.c       **** */
  13:.\I2C.c       **** 
  14:.\I2C.c       **** /*
  15:.\I2C.c       **** ***************************************************************************************************
  16:.\I2C.c       **** *
  17:.\I2C.c       **** *                                             GRP550/700 CODE
  18:.\I2C.c       **** *
  19:.\I2C.c       **** *                                             CYPRESS PSoC5LP
  20:.\I2C.c       **** *                                                with the
  21:.\I2C.c       **** *                                            CY8C5969AXI-LP035
  22:.\I2C.c       **** *
  23:.\I2C.c       **** * Filename      : I2C.c
  24:.\I2C.c       **** * Version       : V1.00
  25:.\I2C.c       **** * Programmer(s) : 
  26:.\I2C.c       ****                   
  27:.\I2C.c       **** ***************************************************************************************************
ARM GAS  C:\Users\Usuario\AppData\Local\Temp\ccAY0OnG.s 			page 3


  28:.\I2C.c       **** */
  29:.\I2C.c       **** 
  30:.\I2C.c       **** 
  31:.\I2C.c       **** /*
  32:.\I2C.c       **** ***************************************************************************************************
  33:.\I2C.c       **** *                                             INCLUDE FILES
  34:.\I2C.c       **** ***************************************************************************************************
  35:.\I2C.c       **** */
  36:.\I2C.c       **** #include <device.h>
  37:.\I2C.c       **** #include "VariablesG.h"
  38:.\I2C.c       **** #include "LCD.h"
  39:.\I2C.c       **** 
  40:.\I2C.c       **** /*
  41:.\I2C.c       **** ***************************************************************************************************
  42:.\I2C.c       **** *                                         uint8 leer_hora( void )
  43:.\I2C.c       **** *
  44:.\I2C.c       **** * Description : 
  45:.\I2C.c       **** *               
  46:.\I2C.c       **** *
  47:.\I2C.c       **** * Argument(s) : none
  48:.\I2C.c       **** *
  49:.\I2C.c       **** * Return(s)   : none
  50:.\I2C.c       **** *
  51:.\I2C.c       **** * Caller(s)   : 
  52:.\I2C.c       **** *
  53:.\I2C.c       **** * Note(s)     : none.
  54:.\I2C.c       **** ***************************************************************************************************
  55:.\I2C.c       **** */
  56:.\I2C.c       **** uint8 leer_hora(){
  88              		.loc 1 56 0
  89              		.cfi_startproc
  90              		@ args = 0, pretend = 0, frame = 8
  91              		@ frame_needed = 1, uses_anonymous_args = 0
  92 0000 90B5     		push	{r4, r7, lr}
  93              		.cfi_def_cfa_offset 12
  94              		.cfi_offset 4, -12
  95              		.cfi_offset 7, -8
  96              		.cfi_offset 14, -4
  97 0002 83B0     		sub	sp, sp, #12
  98              		.cfi_def_cfa_offset 24
  99 0004 00AF     		add	r7, sp, #0
 100              		.cfi_def_cfa_register 7
  57:.\I2C.c       **** 	uint8 status,i;
  58:.\I2C.c       **** 	for(i=1;i<=2;i++){
 101              		.loc 1 58 0
 102 0006 0123     		movs	r3, #1
 103 0008 FB71     		strb	r3, [r7, #7]
 104 000a 36E0     		b	.L2
 105              	.L9:
  59:.\I2C.c       ****         I2C_1_MasterClearStatus();
 106              		.loc 1 59 0
 107 000c FFF7FEFF 		bl	I2C_1_MasterClearStatus
  60:.\I2C.c       ****         status = I2C_1_MasterSendStart(0x68, I2C_1_WRITE_XFER_MODE);
 108              		.loc 1 60 0
 109 0010 6820     		movs	r0, #104
 110 0012 0021     		movs	r1, #0
 111 0014 FFF7FEFF 		bl	I2C_1_MasterSendStart
ARM GAS  C:\Users\Usuario\AppData\Local\Temp\ccAY0OnG.s 			page 4


 112 0018 0346     		mov	r3, r0
 113 001a BB71     		strb	r3, [r7, #6]
  61:.\I2C.c       ****         if(I2C_1_MSTR_NO_ERROR == status)								 		/* Check if transfer completed without errors *
 114              		.loc 1 61 0
 115 001c BB79     		ldrb	r3, [r7, #6]	@ zero_extendqisi2
 116 001e 002B     		cmp	r3, #0
 117 0020 26D1     		bne	.L3
  62:.\I2C.c       ****     	{
  63:.\I2C.c       ****             status = I2C_1_MasterWriteByte(i);
 118              		.loc 1 63 0
 119 0022 FB79     		ldrb	r3, [r7, #7]	@ zero_extendqisi2
 120 0024 1846     		mov	r0, r3
 121 0026 FFF7FEFF 		bl	I2C_1_MasterWriteByte
 122 002a 0346     		mov	r3, r0
 123 002c BB71     		strb	r3, [r7, #6]
  64:.\I2C.c       ****             if(status != I2C_1_MSTR_NO_ERROR)
 124              		.loc 1 64 0
 125 002e BB79     		ldrb	r3, [r7, #6]	@ zero_extendqisi2
 126 0030 002B     		cmp	r3, #0
 127 0032 01D0     		beq	.L4
  65:.\I2C.c       ****             {
  66:.\I2C.c       ****                 return 0;
 128              		.loc 1 66 0
 129 0034 0023     		movs	r3, #0
 130 0036 24E0     		b	.L5
 131              	.L4:
  67:.\I2C.c       ****             }
  68:.\I2C.c       **** 			else{
  69:.\I2C.c       **** 		        I2C_1_MasterSendStop(); 										/* Send Stop */
 132              		.loc 1 69 0
 133 0038 FFF7FEFF 		bl	I2C_1_MasterSendStop
  70:.\I2C.c       **** 		        CyDelay(10);
 134              		.loc 1 70 0
 135 003c 0A20     		movs	r0, #10
 136 003e FFF7FEFF 		bl	CyDelay
  71:.\I2C.c       **** 		        status = I2C_1_MasterSendStart(0x68, I2C_1_READ_XFER_MODE);
 137              		.loc 1 71 0
 138 0042 6820     		movs	r0, #104
 139 0044 0121     		movs	r1, #1
 140 0046 FFF7FEFF 		bl	I2C_1_MasterSendStart
 141 004a 0346     		mov	r3, r0
 142 004c BB71     		strb	r3, [r7, #6]
  72:.\I2C.c       **** 		        if(I2C_1_MSTR_NO_ERROR == status){
 143              		.loc 1 72 0
 144 004e BB79     		ldrb	r3, [r7, #6]	@ zero_extendqisi2
 145 0050 002B     		cmp	r3, #0
 146 0052 0BD1     		bne	.L6
  73:.\I2C.c       **** 		            hora[i-1] = I2C_1_MasterReadByte(I2C_1_NAK_DATA);
 147              		.loc 1 73 0
 148 0054 FB79     		ldrb	r3, [r7, #7]	@ zero_extendqisi2
 149 0056 5C1E     		subs	r4, r3, #1
 150 0058 0020     		movs	r0, #0
 151 005a FFF7FEFF 		bl	I2C_1_MasterReadByte
 152 005e 0346     		mov	r3, r0
 153 0060 1A46     		mov	r2, r3
 154 0062 0A4B     		ldr	r3, .L11
 155 0064 1A55     		strb	r2, [r3, r4]
ARM GAS  C:\Users\Usuario\AppData\Local\Temp\ccAY0OnG.s 			page 5


  74:.\I2C.c       **** 		        }
  75:.\I2C.c       **** 				else{
  76:.\I2C.c       **** 					return 0;
  77:.\I2C.c       **** 				}
  78:.\I2C.c       **** 		        I2C_1_MasterSendStop();	
 156              		.loc 1 78 0
 157 0066 FFF7FEFF 		bl	I2C_1_MasterSendStop
 158 006a 03E0     		b	.L10
 159              	.L6:
  76:.\I2C.c       **** 				}
 160              		.loc 1 76 0
 161 006c 0023     		movs	r3, #0
 162 006e 08E0     		b	.L5
 163              	.L3:
  79:.\I2C.c       **** 			}
  80:.\I2C.c       ****         }
  81:.\I2C.c       **** 		else{
  82:.\I2C.c       **** 			return 0;
 164              		.loc 1 82 0
 165 0070 0023     		movs	r3, #0
 166 0072 06E0     		b	.L5
 167              	.L10:
  58:.\I2C.c       ****         I2C_1_MasterClearStatus();
 168              		.loc 1 58 0 discriminator 2
 169 0074 FB79     		ldrb	r3, [r7, #7]	@ zero_extendqisi2
 170 0076 0133     		adds	r3, r3, #1
 171 0078 FB71     		strb	r3, [r7, #7]
 172              	.L2:
  58:.\I2C.c       ****         I2C_1_MasterClearStatus();
 173              		.loc 1 58 0 is_stmt 0 discriminator 1
 174 007a FB79     		ldrb	r3, [r7, #7]	@ zero_extendqisi2
 175 007c 022B     		cmp	r3, #2
 176 007e C5D9     		bls	.L9
  83:.\I2C.c       **** 		}		
  84:.\I2C.c       **** 	}
  85:.\I2C.c       **** 	return 1;
 177              		.loc 1 85 0 is_stmt 1
 178 0080 0123     		movs	r3, #1
 179              	.L5:
  86:.\I2C.c       **** }
 180              		.loc 1 86 0
 181 0082 1846     		mov	r0, r3
 182 0084 0C37     		adds	r7, r7, #12
 183              		.cfi_def_cfa_offset 12
 184 0086 BD46     		mov	sp, r7
 185              		.cfi_def_cfa_register 13
 186              		@ sp needed
 187 0088 90BD     		pop	{r4, r7, pc}
 188              	.L12:
 189 008a 00BF     		.align	2
 190              	.L11:
 191 008c 00000000 		.word	hora
 192              		.cfi_endproc
 193              	.LFE63:
 194              		.size	leer_hora, .-leer_hora
 195              		.section	.text.leer_fecha,"ax",%progbits
 196              		.align	2
ARM GAS  C:\Users\Usuario\AppData\Local\Temp\ccAY0OnG.s 			page 6


 197              		.global	leer_fecha
 198              		.thumb
 199              		.thumb_func
 200              		.type	leer_fecha, %function
 201              	leer_fecha:
 202              	.LFB64:
  87:.\I2C.c       **** 
  88:.\I2C.c       **** /*
  89:.\I2C.c       **** ***************************************************************************************************
  90:.\I2C.c       **** *                                         uint8 leer_fecha( void )
  91:.\I2C.c       **** *
  92:.\I2C.c       **** * Description : 
  93:.\I2C.c       **** *               
  94:.\I2C.c       **** *
  95:.\I2C.c       **** * Argument(s) : none
  96:.\I2C.c       **** *
  97:.\I2C.c       **** * Return(s)   : none
  98:.\I2C.c       **** *
  99:.\I2C.c       **** * Caller(s)   : 
 100:.\I2C.c       **** *
 101:.\I2C.c       **** * Note(s)     : none.
 102:.\I2C.c       **** ***************************************************************************************************
 103:.\I2C.c       **** */
 104:.\I2C.c       **** uint8 leer_fecha(){
 203              		.loc 1 104 0
 204              		.cfi_startproc
 205              		@ args = 0, pretend = 0, frame = 8
 206              		@ frame_needed = 1, uses_anonymous_args = 0
 207 0000 90B5     		push	{r4, r7, lr}
 208              		.cfi_def_cfa_offset 12
 209              		.cfi_offset 4, -12
 210              		.cfi_offset 7, -8
 211              		.cfi_offset 14, -4
 212 0002 83B0     		sub	sp, sp, #12
 213              		.cfi_def_cfa_offset 24
 214 0004 00AF     		add	r7, sp, #0
 215              		.cfi_def_cfa_register 7
 105:.\I2C.c       **** 	uint8 status,i;
 106:.\I2C.c       **** 	for(i=4;i<=6;i++){
 216              		.loc 1 106 0
 217 0006 0423     		movs	r3, #4
 218 0008 FB71     		strb	r3, [r7, #7]
 219 000a 36E0     		b	.L14
 220              	.L21:
 107:.\I2C.c       ****         I2C_1_MasterClearStatus();
 221              		.loc 1 107 0
 222 000c FFF7FEFF 		bl	I2C_1_MasterClearStatus
 108:.\I2C.c       ****         status = I2C_1_MasterSendStart(0x68, I2C_1_WRITE_XFER_MODE);
 223              		.loc 1 108 0
 224 0010 6820     		movs	r0, #104
 225 0012 0021     		movs	r1, #0
 226 0014 FFF7FEFF 		bl	I2C_1_MasterSendStart
 227 0018 0346     		mov	r3, r0
 228 001a BB71     		strb	r3, [r7, #6]
 109:.\I2C.c       ****         if(I2C_1_MSTR_NO_ERROR == status)								 		/* Check if transfer completed without errors *
 229              		.loc 1 109 0
 230 001c BB79     		ldrb	r3, [r7, #6]	@ zero_extendqisi2
ARM GAS  C:\Users\Usuario\AppData\Local\Temp\ccAY0OnG.s 			page 7


 231 001e 002B     		cmp	r3, #0
 232 0020 26D1     		bne	.L15
 110:.\I2C.c       ****     	{
 111:.\I2C.c       ****             status = I2C_1_MasterWriteByte(i);
 233              		.loc 1 111 0
 234 0022 FB79     		ldrb	r3, [r7, #7]	@ zero_extendqisi2
 235 0024 1846     		mov	r0, r3
 236 0026 FFF7FEFF 		bl	I2C_1_MasterWriteByte
 237 002a 0346     		mov	r3, r0
 238 002c BB71     		strb	r3, [r7, #6]
 112:.\I2C.c       ****             if(status != I2C_1_MSTR_NO_ERROR)
 239              		.loc 1 112 0
 240 002e BB79     		ldrb	r3, [r7, #6]	@ zero_extendqisi2
 241 0030 002B     		cmp	r3, #0
 242 0032 01D0     		beq	.L16
 113:.\I2C.c       ****             {
 114:.\I2C.c       ****                 return 0;
 243              		.loc 1 114 0
 244 0034 0023     		movs	r3, #0
 245 0036 24E0     		b	.L17
 246              	.L16:
 115:.\I2C.c       ****             }
 116:.\I2C.c       **** 			else{
 117:.\I2C.c       **** 		        I2C_1_MasterSendStop(); 										/* Send Stop */
 247              		.loc 1 117 0
 248 0038 FFF7FEFF 		bl	I2C_1_MasterSendStop
 118:.\I2C.c       **** 		        CyDelay(10);
 249              		.loc 1 118 0
 250 003c 0A20     		movs	r0, #10
 251 003e FFF7FEFF 		bl	CyDelay
 119:.\I2C.c       **** 		        status = I2C_1_MasterSendStart(0x68, I2C_1_READ_XFER_MODE);
 252              		.loc 1 119 0
 253 0042 6820     		movs	r0, #104
 254 0044 0121     		movs	r1, #1
 255 0046 FFF7FEFF 		bl	I2C_1_MasterSendStart
 256 004a 0346     		mov	r3, r0
 257 004c BB71     		strb	r3, [r7, #6]
 120:.\I2C.c       **** 		        if(I2C_1_MSTR_NO_ERROR == status){
 258              		.loc 1 120 0
 259 004e BB79     		ldrb	r3, [r7, #6]	@ zero_extendqisi2
 260 0050 002B     		cmp	r3, #0
 261 0052 0BD1     		bne	.L18
 121:.\I2C.c       **** 		            fecha[i-4] = I2C_1_MasterReadByte(I2C_1_NAK_DATA);
 262              		.loc 1 121 0
 263 0054 FB79     		ldrb	r3, [r7, #7]	@ zero_extendqisi2
 264 0056 1C1F     		subs	r4, r3, #4
 265 0058 0020     		movs	r0, #0
 266 005a FFF7FEFF 		bl	I2C_1_MasterReadByte
 267 005e 0346     		mov	r3, r0
 268 0060 1A46     		mov	r2, r3
 269 0062 0A4B     		ldr	r3, .L23
 270 0064 1A55     		strb	r2, [r3, r4]
 122:.\I2C.c       **** 		        }
 123:.\I2C.c       **** 				else{
 124:.\I2C.c       **** 					return 0;
 125:.\I2C.c       **** 				}
 126:.\I2C.c       **** 		        I2C_1_MasterSendStop();	
ARM GAS  C:\Users\Usuario\AppData\Local\Temp\ccAY0OnG.s 			page 8


 271              		.loc 1 126 0
 272 0066 FFF7FEFF 		bl	I2C_1_MasterSendStop
 273 006a 03E0     		b	.L22
 274              	.L18:
 124:.\I2C.c       **** 				}
 275              		.loc 1 124 0
 276 006c 0023     		movs	r3, #0
 277 006e 08E0     		b	.L17
 278              	.L15:
 127:.\I2C.c       **** 			}
 128:.\I2C.c       ****         }
 129:.\I2C.c       **** 		else{
 130:.\I2C.c       **** 			return 0;
 279              		.loc 1 130 0
 280 0070 0023     		movs	r3, #0
 281 0072 06E0     		b	.L17
 282              	.L22:
 106:.\I2C.c       ****         I2C_1_MasterClearStatus();
 283              		.loc 1 106 0 discriminator 2
 284 0074 FB79     		ldrb	r3, [r7, #7]	@ zero_extendqisi2
 285 0076 0133     		adds	r3, r3, #1
 286 0078 FB71     		strb	r3, [r7, #7]
 287              	.L14:
 106:.\I2C.c       ****         I2C_1_MasterClearStatus();
 288              		.loc 1 106 0 is_stmt 0 discriminator 1
 289 007a FB79     		ldrb	r3, [r7, #7]	@ zero_extendqisi2
 290 007c 062B     		cmp	r3, #6
 291 007e C5D9     		bls	.L21
 131:.\I2C.c       **** 		}		
 132:.\I2C.c       **** 	}
 133:.\I2C.c       **** 	return 1;
 292              		.loc 1 133 0 is_stmt 1
 293 0080 0123     		movs	r3, #1
 294              	.L17:
 134:.\I2C.c       **** }
 295              		.loc 1 134 0
 296 0082 1846     		mov	r0, r3
 297 0084 0C37     		adds	r7, r7, #12
 298              		.cfi_def_cfa_offset 12
 299 0086 BD46     		mov	sp, r7
 300              		.cfi_def_cfa_register 13
 301              		@ sp needed
 302 0088 90BD     		pop	{r4, r7, pc}
 303              	.L24:
 304 008a 00BF     		.align	2
 305              	.L23:
 306 008c 00000000 		.word	fecha
 307              		.cfi_endproc
 308              	.LFE64:
 309              		.size	leer_fecha, .-leer_fecha
 310              		.section	.text.write_hora,"ax",%progbits
 311              		.align	2
 312              		.global	write_hora
 313              		.thumb
 314              		.thumb_func
 315              		.type	write_hora, %function
 316              	write_hora:
ARM GAS  C:\Users\Usuario\AppData\Local\Temp\ccAY0OnG.s 			page 9


 317              	.LFB65:
 135:.\I2C.c       **** 
 136:.\I2C.c       **** /*
 137:.\I2C.c       **** ***************************************************************************************************
 138:.\I2C.c       **** *                                         uint8 write_hora( void )
 139:.\I2C.c       **** *
 140:.\I2C.c       **** * Description : 
 141:.\I2C.c       **** *               
 142:.\I2C.c       **** *
 143:.\I2C.c       **** * Argument(s) : none
 144:.\I2C.c       **** *
 145:.\I2C.c       **** * Return(s)   : none
 146:.\I2C.c       **** *
 147:.\I2C.c       **** * Caller(s)   : 
 148:.\I2C.c       **** *
 149:.\I2C.c       **** * Note(s)     : none.
 150:.\I2C.c       **** ***************************************************************************************************
 151:.\I2C.c       **** */
 152:.\I2C.c       **** 
 153:.\I2C.c       **** uint8 write_hora( void ){
 318              		.loc 1 153 0
 319              		.cfi_startproc
 320              		@ args = 0, pretend = 0, frame = 8
 321              		@ frame_needed = 1, uses_anonymous_args = 0
 322 0000 80B5     		push	{r7, lr}
 323              		.cfi_def_cfa_offset 8
 324              		.cfi_offset 7, -8
 325              		.cfi_offset 14, -4
 326 0002 82B0     		sub	sp, sp, #8
 327              		.cfi_def_cfa_offset 16
 328 0004 00AF     		add	r7, sp, #0
 329              		.cfi_def_cfa_register 7
 154:.\I2C.c       **** 	uint8 status, dato[3],i;
 155:.\I2C.c       **** 	dato[0]=1;
 330              		.loc 1 155 0
 331 0006 0123     		movs	r3, #1
 332 0008 3B70     		strb	r3, [r7]
 156:.\I2C.c       **** 	dato[1]=hora[0];
 333              		.loc 1 156 0
 334 000a 1A4B     		ldr	r3, .L34
 335 000c 1B78     		ldrb	r3, [r3]	@ zero_extendqisi2
 336 000e 7B70     		strb	r3, [r7, #1]
 157:.\I2C.c       **** 	dato[2]=hora[1];
 337              		.loc 1 157 0
 338 0010 184B     		ldr	r3, .L34
 339 0012 5B78     		ldrb	r3, [r3, #1]	@ zero_extendqisi2
 340 0014 BB70     		strb	r3, [r7, #2]
 158:.\I2C.c       **** 	I2C_1_MasterClearStatus();
 341              		.loc 1 158 0
 342 0016 FFF7FEFF 		bl	I2C_1_MasterClearStatus
 159:.\I2C.c       ****     status = I2C_1_MasterSendStart(0x68, I2C_1_WRITE_XFER_MODE);
 343              		.loc 1 159 0
 344 001a 6820     		movs	r0, #104
 345 001c 0021     		movs	r1, #0
 346 001e FFF7FEFF 		bl	I2C_1_MasterSendStart
 347 0022 0346     		mov	r3, r0
 348 0024 BB71     		strb	r3, [r7, #6]
ARM GAS  C:\Users\Usuario\AppData\Local\Temp\ccAY0OnG.s 			page 10


 160:.\I2C.c       ****     if(I2C_1_MSTR_NO_ERROR == status) 
 349              		.loc 1 160 0
 350 0026 BB79     		ldrb	r3, [r7, #6]	@ zero_extendqisi2
 351 0028 002B     		cmp	r3, #0
 352 002a 19D1     		bne	.L26
 161:.\I2C.c       ****     {
 162:.\I2C.c       ****         for(i=0; i<3; i++)
 353              		.loc 1 162 0
 354 002c 0023     		movs	r3, #0
 355 002e FB71     		strb	r3, [r7, #7]
 356 0030 12E0     		b	.L27
 357              	.L30:
 163:.\I2C.c       ****         {
 164:.\I2C.c       ****             status = I2C_1_MasterWriteByte(dato[i]);
 358              		.loc 1 164 0
 359 0032 FB79     		ldrb	r3, [r7, #7]	@ zero_extendqisi2
 360 0034 07F10802 		add	r2, r7, #8
 361 0038 1344     		add	r3, r3, r2
 362 003a 13F8083C 		ldrb	r3, [r3, #-8]	@ zero_extendqisi2
 363 003e 1846     		mov	r0, r3
 364 0040 FFF7FEFF 		bl	I2C_1_MasterWriteByte
 365 0044 0346     		mov	r3, r0
 366 0046 BB71     		strb	r3, [r7, #6]
 165:.\I2C.c       ****             if(status != I2C_1_MSTR_NO_ERROR)
 367              		.loc 1 165 0
 368 0048 BB79     		ldrb	r3, [r7, #6]	@ zero_extendqisi2
 369 004a 002B     		cmp	r3, #0
 370 004c 01D0     		beq	.L28
 166:.\I2C.c       ****             {
 167:.\I2C.c       ****                 return 0;
 371              		.loc 1 167 0
 372 004e 0023     		movs	r3, #0
 373 0050 0BE0     		b	.L32
 374              	.L28:
 162:.\I2C.c       ****         {
 375              		.loc 1 162 0 discriminator 2
 376 0052 FB79     		ldrb	r3, [r7, #7]	@ zero_extendqisi2
 377 0054 0133     		adds	r3, r3, #1
 378 0056 FB71     		strb	r3, [r7, #7]
 379              	.L27:
 162:.\I2C.c       ****         {
 380              		.loc 1 162 0 is_stmt 0 discriminator 1
 381 0058 FB79     		ldrb	r3, [r7, #7]	@ zero_extendqisi2
 382 005a 022B     		cmp	r3, #2
 383 005c E9D9     		bls	.L30
 384 005e 01E0     		b	.L33
 385              	.L26:
 168:.\I2C.c       ****             }
 169:.\I2C.c       ****         }
 170:.\I2C.c       ****     }
 171:.\I2C.c       ****     else{
 172:.\I2C.c       **** 		return 0;
 386              		.loc 1 172 0 is_stmt 1
 387 0060 0023     		movs	r3, #0
 388 0062 02E0     		b	.L32
 389              	.L33:
 173:.\I2C.c       ****     }
ARM GAS  C:\Users\Usuario\AppData\Local\Temp\ccAY0OnG.s 			page 11


 174:.\I2C.c       ****     I2C_1_MasterSendStop();	
 390              		.loc 1 174 0
 391 0064 FFF7FEFF 		bl	I2C_1_MasterSendStop
 175:.\I2C.c       **** 	return 1;
 392              		.loc 1 175 0
 393 0068 0123     		movs	r3, #1
 394              	.L32:
 176:.\I2C.c       **** }
 395              		.loc 1 176 0 discriminator 1
 396 006a 1846     		mov	r0, r3
 397 006c 0837     		adds	r7, r7, #8
 398              		.cfi_def_cfa_offset 8
 399 006e BD46     		mov	sp, r7
 400              		.cfi_def_cfa_register 13
 401              		@ sp needed
 402 0070 80BD     		pop	{r7, pc}
 403              	.L35:
 404 0072 00BF     		.align	2
 405              	.L34:
 406 0074 00000000 		.word	hora
 407              		.cfi_endproc
 408              	.LFE65:
 409              		.size	write_hora, .-write_hora
 410              		.section	.text.write_fecha,"ax",%progbits
 411              		.align	2
 412              		.global	write_fecha
 413              		.thumb
 414              		.thumb_func
 415              		.type	write_fecha, %function
 416              	write_fecha:
 417              	.LFB66:
 177:.\I2C.c       **** 
 178:.\I2C.c       **** /*
 179:.\I2C.c       **** ***************************************************************************************************
 180:.\I2C.c       **** *                                         uint8 write_fecha( void )
 181:.\I2C.c       **** *
 182:.\I2C.c       **** * Description : 
 183:.\I2C.c       **** *               
 184:.\I2C.c       **** *
 185:.\I2C.c       **** * Argument(s) : none
 186:.\I2C.c       **** *
 187:.\I2C.c       **** * Return(s)   : none
 188:.\I2C.c       **** *
 189:.\I2C.c       **** * Caller(s)   : 
 190:.\I2C.c       **** *
 191:.\I2C.c       **** * Note(s)     : none.
 192:.\I2C.c       **** ***************************************************************************************************
 193:.\I2C.c       **** */
 194:.\I2C.c       **** 
 195:.\I2C.c       **** uint8 write_fecha( void ){
 418              		.loc 1 195 0
 419              		.cfi_startproc
 420              		@ args = 0, pretend = 0, frame = 8
 421              		@ frame_needed = 1, uses_anonymous_args = 0
 422 0000 80B5     		push	{r7, lr}
 423              		.cfi_def_cfa_offset 8
 424              		.cfi_offset 7, -8
ARM GAS  C:\Users\Usuario\AppData\Local\Temp\ccAY0OnG.s 			page 12


 425              		.cfi_offset 14, -4
 426 0002 82B0     		sub	sp, sp, #8
 427              		.cfi_def_cfa_offset 16
 428 0004 00AF     		add	r7, sp, #0
 429              		.cfi_def_cfa_register 7
 196:.\I2C.c       **** 	uint8 status, dato[4],i;
 197:.\I2C.c       **** 	dato[0]=4;
 430              		.loc 1 197 0
 431 0006 0423     		movs	r3, #4
 432 0008 3B70     		strb	r3, [r7]
 198:.\I2C.c       **** 	dato[1]=fecha[0];
 433              		.loc 1 198 0
 434 000a 1B4B     		ldr	r3, .L45
 435 000c 1B78     		ldrb	r3, [r3]	@ zero_extendqisi2
 436 000e 7B70     		strb	r3, [r7, #1]
 199:.\I2C.c       **** 	dato[2]=fecha[1];
 437              		.loc 1 199 0
 438 0010 194B     		ldr	r3, .L45
 439 0012 5B78     		ldrb	r3, [r3, #1]	@ zero_extendqisi2
 440 0014 BB70     		strb	r3, [r7, #2]
 200:.\I2C.c       **** 	dato[3]=fecha[2];
 441              		.loc 1 200 0
 442 0016 184B     		ldr	r3, .L45
 443 0018 9B78     		ldrb	r3, [r3, #2]	@ zero_extendqisi2
 444 001a FB70     		strb	r3, [r7, #3]
 201:.\I2C.c       **** 	I2C_1_MasterClearStatus();
 445              		.loc 1 201 0
 446 001c FFF7FEFF 		bl	I2C_1_MasterClearStatus
 202:.\I2C.c       ****     status = I2C_1_MasterSendStart(0x68, I2C_1_WRITE_XFER_MODE);
 447              		.loc 1 202 0
 448 0020 6820     		movs	r0, #104
 449 0022 0021     		movs	r1, #0
 450 0024 FFF7FEFF 		bl	I2C_1_MasterSendStart
 451 0028 0346     		mov	r3, r0
 452 002a BB71     		strb	r3, [r7, #6]
 203:.\I2C.c       ****     if(I2C_1_MSTR_NO_ERROR == status) 
 453              		.loc 1 203 0
 454 002c BB79     		ldrb	r3, [r7, #6]	@ zero_extendqisi2
 455 002e 002B     		cmp	r3, #0
 456 0030 19D1     		bne	.L37
 204:.\I2C.c       ****     {
 205:.\I2C.c       ****         for(i=0; i<4; i++)
 457              		.loc 1 205 0
 458 0032 0023     		movs	r3, #0
 459 0034 FB71     		strb	r3, [r7, #7]
 460 0036 12E0     		b	.L38
 461              	.L41:
 206:.\I2C.c       ****         {
 207:.\I2C.c       ****             status = I2C_1_MasterWriteByte(dato[i]);
 462              		.loc 1 207 0
 463 0038 FB79     		ldrb	r3, [r7, #7]	@ zero_extendqisi2
 464 003a 07F10802 		add	r2, r7, #8
 465 003e 1344     		add	r3, r3, r2
 466 0040 13F8083C 		ldrb	r3, [r3, #-8]	@ zero_extendqisi2
 467 0044 1846     		mov	r0, r3
 468 0046 FFF7FEFF 		bl	I2C_1_MasterWriteByte
 469 004a 0346     		mov	r3, r0
ARM GAS  C:\Users\Usuario\AppData\Local\Temp\ccAY0OnG.s 			page 13


 470 004c BB71     		strb	r3, [r7, #6]
 208:.\I2C.c       ****             if(status != I2C_1_MSTR_NO_ERROR)
 471              		.loc 1 208 0
 472 004e BB79     		ldrb	r3, [r7, #6]	@ zero_extendqisi2
 473 0050 002B     		cmp	r3, #0
 474 0052 01D0     		beq	.L39
 209:.\I2C.c       ****             {
 210:.\I2C.c       ****                 return 0;
 475              		.loc 1 210 0
 476 0054 0023     		movs	r3, #0
 477 0056 0BE0     		b	.L43
 478              	.L39:
 205:.\I2C.c       ****         {
 479              		.loc 1 205 0 discriminator 2
 480 0058 FB79     		ldrb	r3, [r7, #7]	@ zero_extendqisi2
 481 005a 0133     		adds	r3, r3, #1
 482 005c FB71     		strb	r3, [r7, #7]
 483              	.L38:
 205:.\I2C.c       ****         {
 484              		.loc 1 205 0 is_stmt 0 discriminator 1
 485 005e FB79     		ldrb	r3, [r7, #7]	@ zero_extendqisi2
 486 0060 032B     		cmp	r3, #3
 487 0062 E9D9     		bls	.L41
 488 0064 01E0     		b	.L44
 489              	.L37:
 211:.\I2C.c       ****             }
 212:.\I2C.c       ****         }
 213:.\I2C.c       ****     }
 214:.\I2C.c       ****     else{
 215:.\I2C.c       **** 		return 0;
 490              		.loc 1 215 0 is_stmt 1
 491 0066 0023     		movs	r3, #0
 492 0068 02E0     		b	.L43
 493              	.L44:
 216:.\I2C.c       ****     }
 217:.\I2C.c       ****     I2C_1_MasterSendStop();	
 494              		.loc 1 217 0
 495 006a FFF7FEFF 		bl	I2C_1_MasterSendStop
 218:.\I2C.c       **** 	return 1;
 496              		.loc 1 218 0
 497 006e 0123     		movs	r3, #1
 498              	.L43:
 219:.\I2C.c       **** }
 499              		.loc 1 219 0 discriminator 1
 500 0070 1846     		mov	r0, r3
 501 0072 0837     		adds	r7, r7, #8
 502              		.cfi_def_cfa_offset 8
 503 0074 BD46     		mov	sp, r7
 504              		.cfi_def_cfa_register 13
 505              		@ sp needed
 506 0076 80BD     		pop	{r7, pc}
 507              	.L46:
 508              		.align	2
 509              	.L45:
 510 0078 00000000 		.word	fecha
 511              		.cfi_endproc
 512              	.LFE66:
ARM GAS  C:\Users\Usuario\AppData\Local\Temp\ccAY0OnG.s 			page 14


 513              		.size	write_fecha, .-write_fecha
 514              		.section	.text.write_eeprom,"ax",%progbits
 515              		.align	2
 516              		.global	write_eeprom
 517              		.thumb
 518              		.thumb_func
 519              		.type	write_eeprom, %function
 520              	write_eeprom:
 521              	.LFB67:
 220:.\I2C.c       **** 
 221:.\I2C.c       **** /*
 222:.\I2C.c       **** ***************************************************************************************************
 223:.\I2C.c       **** *                              uint8 write_eeprom(uint16 page, uint8 valor)
 224:.\I2C.c       **** *
 225:.\I2C.c       **** * Description : 
 226:.\I2C.c       **** *               
 227:.\I2C.c       **** *
 228:.\I2C.c       **** * Argument(s) : none
 229:.\I2C.c       **** *
 230:.\I2C.c       **** * Return(s)   : none
 231:.\I2C.c       **** *
 232:.\I2C.c       **** * Caller(s)   : 
 233:.\I2C.c       **** *
 234:.\I2C.c       **** * Note(s)     : none.
 235:.\I2C.c       **** ***************************************************************************************************
 236:.\I2C.c       **** */
 237:.\I2C.c       **** 
 238:.\I2C.c       **** uint8 write_eeprom(uint16 page, uint8 *valor){
 522              		.loc 1 238 0
 523              		.cfi_startproc
 524              		@ args = 0, pretend = 0, frame = 16
 525              		@ frame_needed = 1, uses_anonymous_args = 0
 526 0000 80B5     		push	{r7, lr}
 527              		.cfi_def_cfa_offset 8
 528              		.cfi_offset 7, -8
 529              		.cfi_offset 14, -4
 530 0002 84B0     		sub	sp, sp, #16
 531              		.cfi_def_cfa_offset 24
 532 0004 00AF     		add	r7, sp, #0
 533              		.cfi_def_cfa_register 7
 534 0006 0346     		mov	r3, r0
 535 0008 3960     		str	r1, [r7]
 536 000a FB80     		strh	r3, [r7, #6]	@ movhi
 239:.\I2C.c       **** 	uint8 status, dato[4],i;
 240:.\I2C.c       **** 	dato[1]=(page&0xFF);
 537              		.loc 1 240 0
 538 000c FB88     		ldrh	r3, [r7, #6]	@ movhi
 539 000e DBB2     		uxtb	r3, r3
 540 0010 7B72     		strb	r3, [r7, #9]
 241:.\I2C.c       **** 	page=(page>>8)&0xFF;
 541              		.loc 1 241 0
 542 0012 FB88     		ldrh	r3, [r7, #6]
 543 0014 1B0A     		lsrs	r3, r3, #8
 544 0016 FB80     		strh	r3, [r7, #6]	@ movhi
 242:.\I2C.c       **** 	dato[0]=page;
 545              		.loc 1 242 0
 546 0018 FB88     		ldrh	r3, [r7, #6]	@ movhi
ARM GAS  C:\Users\Usuario\AppData\Local\Temp\ccAY0OnG.s 			page 15


 547 001a DBB2     		uxtb	r3, r3
 548 001c 3B72     		strb	r3, [r7, #8]
 243:.\I2C.c       **** 	Pin_WP_Write(0);
 549              		.loc 1 243 0
 550 001e 0020     		movs	r0, #0
 551 0020 FFF7FEFF 		bl	Pin_WP_Write
 244:.\I2C.c       **** 	I2C_1_MasterClearStatus();
 552              		.loc 1 244 0
 553 0024 FFF7FEFF 		bl	I2C_1_MasterClearStatus
 245:.\I2C.c       ****     status = I2C_1_MasterSendStart(0x54, I2C_1_WRITE_XFER_MODE);
 554              		.loc 1 245 0
 555 0028 5420     		movs	r0, #84
 556 002a 0021     		movs	r1, #0
 557 002c FFF7FEFF 		bl	I2C_1_MasterSendStart
 558 0030 0346     		mov	r3, r0
 559 0032 BB73     		strb	r3, [r7, #14]
 246:.\I2C.c       ****     if(I2C_1_MSTR_NO_ERROR == status) 
 560              		.loc 1 246 0
 561 0034 BB7B     		ldrb	r3, [r7, #14]	@ zero_extendqisi2
 562 0036 002B     		cmp	r3, #0
 563 0038 35D1     		bne	.L48
 247:.\I2C.c       ****     {
 248:.\I2C.c       ****         for(i=0; i<2; i++)
 564              		.loc 1 248 0
 565 003a 0023     		movs	r3, #0
 566 003c FB73     		strb	r3, [r7, #15]
 567 003e 12E0     		b	.L49
 568              	.L52:
 249:.\I2C.c       ****         {
 250:.\I2C.c       ****             status = I2C_1_MasterWriteByte(dato[i]);
 569              		.loc 1 250 0
 570 0040 FB7B     		ldrb	r3, [r7, #15]	@ zero_extendqisi2
 571 0042 07F11002 		add	r2, r7, #16
 572 0046 1344     		add	r3, r3, r2
 573 0048 13F8083C 		ldrb	r3, [r3, #-8]	@ zero_extendqisi2
 574 004c 1846     		mov	r0, r3
 575 004e FFF7FEFF 		bl	I2C_1_MasterWriteByte
 576 0052 0346     		mov	r3, r0
 577 0054 BB73     		strb	r3, [r7, #14]
 251:.\I2C.c       ****             if(status != I2C_1_MSTR_NO_ERROR)
 578              		.loc 1 251 0
 579 0056 BB7B     		ldrb	r3, [r7, #14]	@ zero_extendqisi2
 580 0058 002B     		cmp	r3, #0
 581 005a 01D0     		beq	.L50
 252:.\I2C.c       ****             {
 253:.\I2C.c       ****                 return 0;
 582              		.loc 1 253 0
 583 005c 0023     		movs	r3, #0
 584 005e 2DE0     		b	.L57
 585              	.L50:
 248:.\I2C.c       ****         {
 586              		.loc 1 248 0 discriminator 2
 587 0060 FB7B     		ldrb	r3, [r7, #15]	@ zero_extendqisi2
 588 0062 0133     		adds	r3, r3, #1
 589 0064 FB73     		strb	r3, [r7, #15]
 590              	.L49:
 248:.\I2C.c       ****         {
ARM GAS  C:\Users\Usuario\AppData\Local\Temp\ccAY0OnG.s 			page 16


 591              		.loc 1 248 0 is_stmt 0 discriminator 1
 592 0066 FB7B     		ldrb	r3, [r7, #15]	@ zero_extendqisi2
 593 0068 012B     		cmp	r3, #1
 594 006a E9D9     		bls	.L52
 254:.\I2C.c       ****             }
 255:.\I2C.c       ****         }
 256:.\I2C.c       ****         for(i=0; i<=valor[0]; i++)
 595              		.loc 1 256 0 is_stmt 1
 596 006c 0023     		movs	r3, #0
 597 006e FB73     		strb	r3, [r7, #15]
 598 0070 13E0     		b	.L53
 599              	.L55:
 257:.\I2C.c       ****         {
 258:.\I2C.c       ****             status = I2C_1_MasterWriteByte(valor[i]);
 600              		.loc 1 258 0
 601 0072 FB7B     		ldrb	r3, [r7, #15]	@ zero_extendqisi2
 602 0074 3A68     		ldr	r2, [r7]
 603 0076 1344     		add	r3, r3, r2
 604 0078 1B78     		ldrb	r3, [r3]	@ zero_extendqisi2
 605 007a 1846     		mov	r0, r3
 606 007c FFF7FEFF 		bl	I2C_1_MasterWriteByte
 607 0080 0346     		mov	r3, r0
 608 0082 BB73     		strb	r3, [r7, #14]
 259:.\I2C.c       ****             if(status != I2C_1_MSTR_NO_ERROR)
 609              		.loc 1 259 0
 610 0084 BB7B     		ldrb	r3, [r7, #14]	@ zero_extendqisi2
 611 0086 002B     		cmp	r3, #0
 612 0088 01D0     		beq	.L54
 260:.\I2C.c       ****             {
 261:.\I2C.c       ****                 return 0;
 613              		.loc 1 261 0
 614 008a 0023     		movs	r3, #0
 615 008c 16E0     		b	.L57
 616              	.L54:
 262:.\I2C.c       ****             }
 263:.\I2C.c       **** 			CyDelay(5);
 617              		.loc 1 263 0 discriminator 2
 618 008e 0520     		movs	r0, #5
 619 0090 FFF7FEFF 		bl	CyDelay
 256:.\I2C.c       ****         {
 620              		.loc 1 256 0 discriminator 2
 621 0094 FB7B     		ldrb	r3, [r7, #15]	@ zero_extendqisi2
 622 0096 0133     		adds	r3, r3, #1
 623 0098 FB73     		strb	r3, [r7, #15]
 624              	.L53:
 256:.\I2C.c       ****         {
 625              		.loc 1 256 0 is_stmt 0 discriminator 1
 626 009a 3B68     		ldr	r3, [r7]
 627 009c 1B78     		ldrb	r3, [r3]	@ zero_extendqisi2
 628 009e FA7B     		ldrb	r2, [r7, #15]	@ zero_extendqisi2
 629 00a0 9A42     		cmp	r2, r3
 630 00a2 E6D9     		bls	.L55
 631 00a4 01E0     		b	.L58
 632              	.L48:
 264:.\I2C.c       ****         }		
 265:.\I2C.c       ****     }
 266:.\I2C.c       ****     else{
ARM GAS  C:\Users\Usuario\AppData\Local\Temp\ccAY0OnG.s 			page 17


 267:.\I2C.c       **** 		return 0;
 633              		.loc 1 267 0 is_stmt 1
 634 00a6 0023     		movs	r3, #0
 635 00a8 08E0     		b	.L57
 636              	.L58:
 268:.\I2C.c       ****     }
 269:.\I2C.c       ****     I2C_1_MasterSendStop();	
 637              		.loc 1 269 0
 638 00aa FFF7FEFF 		bl	I2C_1_MasterSendStop
 270:.\I2C.c       **** 	CyDelay(6);
 639              		.loc 1 270 0
 640 00ae 0620     		movs	r0, #6
 641 00b0 FFF7FEFF 		bl	CyDelay
 271:.\I2C.c       **** 	Pin_WP_Write(1);
 642              		.loc 1 271 0
 643 00b4 0120     		movs	r0, #1
 644 00b6 FFF7FEFF 		bl	Pin_WP_Write
 272:.\I2C.c       **** 	return 1;
 645              		.loc 1 272 0
 646 00ba 0123     		movs	r3, #1
 647              	.L57:
 273:.\I2C.c       **** }
 648              		.loc 1 273 0 discriminator 1
 649 00bc 1846     		mov	r0, r3
 650 00be 1037     		adds	r7, r7, #16
 651              		.cfi_def_cfa_offset 8
 652 00c0 BD46     		mov	sp, r7
 653              		.cfi_def_cfa_register 13
 654              		@ sp needed
 655 00c2 80BD     		pop	{r7, pc}
 656              		.cfi_endproc
 657              	.LFE67:
 658              		.size	write_eeprom, .-write_eeprom
 659              		.section	.text.leer_eeprom,"ax",%progbits
 660              		.align	2
 661              		.global	leer_eeprom
 662              		.thumb
 663              		.thumb_func
 664              		.type	leer_eeprom, %function
 665              	leer_eeprom:
 666              	.LFB68:
 274:.\I2C.c       **** 
 275:.\I2C.c       **** /*
 276:.\I2C.c       **** ***************************************************************************************************
 277:.\I2C.c       **** *                               uint8 leer_eeprom(uint16 page, uint8 size))
 278:.\I2C.c       **** *
 279:.\I2C.c       **** * Description : 
 280:.\I2C.c       **** *               
 281:.\I2C.c       **** *
 282:.\I2C.c       **** * Argument(s) : none
 283:.\I2C.c       **** *
 284:.\I2C.c       **** * Return(s)   : none
 285:.\I2C.c       **** *
 286:.\I2C.c       **** * Caller(s)   : 
 287:.\I2C.c       **** *
 288:.\I2C.c       **** * Note(s)     : none.
 289:.\I2C.c       **** ***************************************************************************************************
ARM GAS  C:\Users\Usuario\AppData\Local\Temp\ccAY0OnG.s 			page 18


 290:.\I2C.c       **** */
 291:.\I2C.c       **** uint8 leer_eeprom(uint16 page, volatile uint8 size){
 667              		.loc 1 291 0
 668              		.cfi_startproc
 669              		@ args = 0, pretend = 0, frame = 24
 670              		@ frame_needed = 1, uses_anonymous_args = 0
 671 0000 90B5     		push	{r4, r7, lr}
 672              		.cfi_def_cfa_offset 12
 673              		.cfi_offset 4, -12
 674              		.cfi_offset 7, -8
 675              		.cfi_offset 14, -4
 676 0002 87B0     		sub	sp, sp, #28
 677              		.cfi_def_cfa_offset 40
 678 0004 00AF     		add	r7, sp, #0
 679              		.cfi_def_cfa_register 7
 680 0006 0346     		mov	r3, r0
 681 0008 0A46     		mov	r2, r1
 682 000a FB80     		strh	r3, [r7, #6]	@ movhi
 683 000c 1346     		mov	r3, r2
 684 000e 7B71     		strb	r3, [r7, #5]
 292:.\I2C.c       **** 	uint16 status, dato[4],i;
 293:.\I2C.c       **** 	dato[1]=(page&0xFF);
 685              		.loc 1 293 0
 686 0010 FB88     		ldrh	r3, [r7, #6]	@ movhi
 687 0012 DBB2     		uxtb	r3, r3
 688 0014 9BB2     		uxth	r3, r3
 689 0016 FB81     		strh	r3, [r7, #14]	@ movhi
 294:.\I2C.c       **** 	page=(page>>8)&0xFF;
 690              		.loc 1 294 0
 691 0018 FB88     		ldrh	r3, [r7, #6]
 692 001a 1B0A     		lsrs	r3, r3, #8
 693 001c FB80     		strh	r3, [r7, #6]	@ movhi
 295:.\I2C.c       **** 	dato[0]=page;	
 694              		.loc 1 295 0
 695 001e FB88     		ldrh	r3, [r7, #6]	@ movhi
 696 0020 BB81     		strh	r3, [r7, #12]	@ movhi
 296:.\I2C.c       ****     I2C_1_MasterClearStatus();
 697              		.loc 1 296 0
 698 0022 FFF7FEFF 		bl	I2C_1_MasterClearStatus
 297:.\I2C.c       ****     status = I2C_1_MasterSendStart(0x54, I2C_1_WRITE_XFER_MODE);
 699              		.loc 1 297 0
 700 0026 5420     		movs	r0, #84
 701 0028 0021     		movs	r1, #0
 702 002a FFF7FEFF 		bl	I2C_1_MasterSendStart
 703 002e 0346     		mov	r3, r0
 704 0030 BB82     		strh	r3, [r7, #20]	@ movhi
 298:.\I2C.c       ****     if(I2C_1_MSTR_NO_ERROR == status)								 		/* Check if transfer completed without errors */
 705              		.loc 1 298 0
 706 0032 BB8A     		ldrh	r3, [r7, #20]
 707 0034 002B     		cmp	r3, #0
 708 0036 1ED1     		bne	.L60
 299:.\I2C.c       **** 	{
 300:.\I2C.c       ****         for(i=0;i<2;i++)
 709              		.loc 1 300 0
 710 0038 0023     		movs	r3, #0
 711 003a FB82     		strh	r3, [r7, #22]	@ movhi
 712 003c 17E0     		b	.L61
ARM GAS  C:\Users\Usuario\AppData\Local\Temp\ccAY0OnG.s 			page 19


 713              	.L64:
 301:.\I2C.c       ****         {
 302:.\I2C.c       ****             status = I2C_1_MasterWriteByte(dato[i]);
 714              		.loc 1 302 0
 715 003e FB8A     		ldrh	r3, [r7, #22]
 716 0040 5B00     		lsls	r3, r3, #1
 717 0042 07F11802 		add	r2, r7, #24
 718 0046 1344     		add	r3, r3, r2
 719 0048 33F80C3C 		ldrh	r3, [r3, #-12]
 720 004c DBB2     		uxtb	r3, r3
 721 004e 1846     		mov	r0, r3
 722 0050 FFF7FEFF 		bl	I2C_1_MasterWriteByte
 723 0054 0346     		mov	r3, r0
 724 0056 BB82     		strh	r3, [r7, #20]	@ movhi
 303:.\I2C.c       ****             if(status != I2C_1_MSTR_NO_ERROR)
 725              		.loc 1 303 0
 726 0058 BB8A     		ldrh	r3, [r7, #20]
 727 005a 002B     		cmp	r3, #0
 728 005c 01D0     		beq	.L62
 304:.\I2C.c       ****             {
 305:.\I2C.c       ****             	return 0;
 729              		.loc 1 305 0
 730 005e 0023     		movs	r3, #0
 731 0060 39E0     		b	.L70
 732              	.L62:
 306:.\I2C.c       ****             }
 307:.\I2C.c       **** 			CyDelay(5);
 733              		.loc 1 307 0 discriminator 2
 734 0062 0520     		movs	r0, #5
 735 0064 FFF7FEFF 		bl	CyDelay
 300:.\I2C.c       ****         {
 736              		.loc 1 300 0 discriminator 2
 737 0068 FB8A     		ldrh	r3, [r7, #22]
 738 006a 0133     		adds	r3, r3, #1
 739 006c FB82     		strh	r3, [r7, #22]	@ movhi
 740              	.L61:
 300:.\I2C.c       ****         {
 741              		.loc 1 300 0 is_stmt 0 discriminator 1
 742 006e FB8A     		ldrh	r3, [r7, #22]
 743 0070 012B     		cmp	r3, #1
 744 0072 E4D9     		bls	.L64
 745 0074 01E0     		b	.L71
 746              	.L60:
 308:.\I2C.c       ****         }		
 309:.\I2C.c       ****     }
 310:.\I2C.c       **** 	else{
 311:.\I2C.c       **** 		return 0;
 747              		.loc 1 311 0 is_stmt 1
 748 0076 0023     		movs	r3, #0
 749 0078 2DE0     		b	.L70
 750              	.L71:
 312:.\I2C.c       **** 	}
 313:.\I2C.c       **** 	I2C_1_MasterSendStop();	
 751              		.loc 1 313 0
 752 007a FFF7FEFF 		bl	I2C_1_MasterSendStop
 314:.\I2C.c       ****     CyDelay(50);
 753              		.loc 1 314 0
ARM GAS  C:\Users\Usuario\AppData\Local\Temp\ccAY0OnG.s 			page 20


 754 007e 3220     		movs	r0, #50
 755 0080 FFF7FEFF 		bl	CyDelay
 315:.\I2C.c       ****     status = I2C_1_MasterSendStart(0x54, I2C_1_READ_XFER_MODE);
 756              		.loc 1 315 0
 757 0084 5420     		movs	r0, #84
 758 0086 0121     		movs	r1, #1
 759 0088 FFF7FEFF 		bl	I2C_1_MasterSendStart
 760 008c 0346     		mov	r3, r0
 761 008e BB82     		strh	r3, [r7, #20]	@ movhi
 316:.\I2C.c       ****     if(I2C_1_MSTR_NO_ERROR == status){
 762              		.loc 1 316 0
 763 0090 BB8A     		ldrh	r3, [r7, #20]
 764 0092 002B     		cmp	r3, #0
 765 0094 17D1     		bne	.L66
 317:.\I2C.c       **** 		for(i=0;i<size;i++){
 766              		.loc 1 317 0
 767 0096 0023     		movs	r3, #0
 768 0098 FB82     		strh	r3, [r7, #22]	@ movhi
 769 009a 0DE0     		b	.L67
 770              	.L68:
 318:.\I2C.c       **** 	        buffer_i2c[i] = I2C_1_MasterReadByte(I2C_1_ACK_DATA);
 771              		.loc 1 318 0 discriminator 3
 772 009c FC8A     		ldrh	r4, [r7, #22]
 773 009e 0120     		movs	r0, #1
 774 00a0 FFF7FEFF 		bl	I2C_1_MasterReadByte
 775 00a4 0346     		mov	r3, r0
 776 00a6 1A46     		mov	r2, r3
 777 00a8 0D4B     		ldr	r3, .L73
 778 00aa 1A55     		strb	r2, [r3, r4]
 319:.\I2C.c       **** 			CyDelay(5);
 779              		.loc 1 319 0 discriminator 3
 780 00ac 0520     		movs	r0, #5
 781 00ae FFF7FEFF 		bl	CyDelay
 317:.\I2C.c       **** 		for(i=0;i<size;i++){
 782              		.loc 1 317 0 discriminator 3
 783 00b2 FB8A     		ldrh	r3, [r7, #22]
 784 00b4 0133     		adds	r3, r3, #1
 785 00b6 FB82     		strh	r3, [r7, #22]	@ movhi
 786              	.L67:
 317:.\I2C.c       **** 		for(i=0;i<size;i++){
 787              		.loc 1 317 0 is_stmt 0 discriminator 1
 788 00b8 7B79     		ldrb	r3, [r7, #5]
 789 00ba DBB2     		uxtb	r3, r3
 790 00bc 9BB2     		uxth	r3, r3
 791 00be FA8A     		ldrh	r2, [r7, #22]
 792 00c0 9A42     		cmp	r2, r3
 793 00c2 EBD3     		bcc	.L68
 794 00c4 01E0     		b	.L72
 795              	.L66:
 320:.\I2C.c       **** 		}
 321:.\I2C.c       ****     }
 322:.\I2C.c       **** 	else{
 323:.\I2C.c       **** 		return 0;
 796              		.loc 1 323 0 is_stmt 1
 797 00c6 0023     		movs	r3, #0
 798 00c8 05E0     		b	.L70
 799              	.L72:
ARM GAS  C:\Users\Usuario\AppData\Local\Temp\ccAY0OnG.s 			page 21


 324:.\I2C.c       **** 	}
 325:.\I2C.c       ****     I2C_1_MasterSendStop();	
 800              		.loc 1 325 0
 801 00ca FFF7FEFF 		bl	I2C_1_MasterSendStop
 326:.\I2C.c       **** 	CyDelay(6);	
 802              		.loc 1 326 0
 803 00ce 0620     		movs	r0, #6
 804 00d0 FFF7FEFF 		bl	CyDelay
 327:.\I2C.c       **** 	return 1;
 805              		.loc 1 327 0
 806 00d4 0123     		movs	r3, #1
 807              	.L70:
 328:.\I2C.c       **** }
 808              		.loc 1 328 0 discriminator 1
 809 00d6 1846     		mov	r0, r3
 810 00d8 1C37     		adds	r7, r7, #28
 811              		.cfi_def_cfa_offset 12
 812 00da BD46     		mov	sp, r7
 813              		.cfi_def_cfa_register 13
 814              		@ sp needed
 815 00dc 90BD     		pop	{r4, r7, pc}
 816              	.L74:
 817 00de 00BF     		.align	2
 818              	.L73:
 819 00e0 00000000 		.word	buffer_i2c
 820              		.cfi_endproc
 821              	.LFE68:
 822              		.size	leer_eeprom, .-leer_eeprom
 823              		.section	.text.write_psoc1,"ax",%progbits
 824              		.align	2
 825              		.global	write_psoc1
 826              		.thumb
 827              		.thumb_func
 828              		.type	write_psoc1, %function
 829              	write_psoc1:
 830              	.LFB69:
 329:.\I2C.c       **** 
 330:.\I2C.c       **** /*
 331:.\I2C.c       **** ***************************************************************************************************
 332:.\I2C.c       **** *                                   uint8 write_psoc1( uint8 puerto, uint8 valor )
 333:.\I2C.c       **** *
 334:.\I2C.c       **** * Description : 
 335:.\I2C.c       **** *               
 336:.\I2C.c       **** *
 337:.\I2C.c       **** * Argument(s) : none
 338:.\I2C.c       **** *
 339:.\I2C.c       **** * Return(s)   : none
 340:.\I2C.c       **** *
 341:.\I2C.c       **** * Caller(s)   : 
 342:.\I2C.c       **** *
 343:.\I2C.c       **** * Note(s)     : none.
 344:.\I2C.c       **** ***************************************************************************************************
 345:.\I2C.c       **** */
 346:.\I2C.c       **** 
 347:.\I2C.c       **** uint8 write_psoc1( uint8 puerto, uint8 valor ){
 831              		.loc 1 347 0
 832              		.cfi_startproc
ARM GAS  C:\Users\Usuario\AppData\Local\Temp\ccAY0OnG.s 			page 22


 833              		@ args = 0, pretend = 0, frame = 16
 834              		@ frame_needed = 1, uses_anonymous_args = 0
 835 0000 80B5     		push	{r7, lr}
 836              		.cfi_def_cfa_offset 8
 837              		.cfi_offset 7, -8
 838              		.cfi_offset 14, -4
 839 0002 84B0     		sub	sp, sp, #16
 840              		.cfi_def_cfa_offset 24
 841 0004 00AF     		add	r7, sp, #0
 842              		.cfi_def_cfa_register 7
 843 0006 0346     		mov	r3, r0
 844 0008 0A46     		mov	r2, r1
 845 000a FB71     		strb	r3, [r7, #7]
 846 000c 1346     		mov	r3, r2
 847 000e BB71     		strb	r3, [r7, #6]
 348:.\I2C.c       **** 	uint8 status, dato[2],i;
 349:.\I2C.c       **** 	dato[0]=puerto;
 848              		.loc 1 349 0
 849 0010 FB79     		ldrb	r3, [r7, #7]
 850 0012 3B73     		strb	r3, [r7, #12]
 350:.\I2C.c       **** 	dato[1]=valor;
 851              		.loc 1 350 0
 852 0014 BB79     		ldrb	r3, [r7, #6]
 853 0016 7B73     		strb	r3, [r7, #13]
 351:.\I2C.c       **** 	I2C_1_MasterClearStatus();
 854              		.loc 1 351 0
 855 0018 FFF7FEFF 		bl	I2C_1_MasterClearStatus
 352:.\I2C.c       ****     status = I2C_1_MasterSendStart(7u, I2C_1_WRITE_XFER_MODE);
 856              		.loc 1 352 0
 857 001c 0720     		movs	r0, #7
 858 001e 0021     		movs	r1, #0
 859 0020 FFF7FEFF 		bl	I2C_1_MasterSendStart
 860 0024 0346     		mov	r3, r0
 861 0026 BB73     		strb	r3, [r7, #14]
 353:.\I2C.c       ****     if(I2C_1_MSTR_NO_ERROR == status) 
 862              		.loc 1 353 0
 863 0028 BB7B     		ldrb	r3, [r7, #14]	@ zero_extendqisi2
 864 002a 002B     		cmp	r3, #0
 865 002c 19D1     		bne	.L76
 354:.\I2C.c       ****     {
 355:.\I2C.c       ****         for(i=0; i<2; i++)
 866              		.loc 1 355 0
 867 002e 0023     		movs	r3, #0
 868 0030 FB73     		strb	r3, [r7, #15]
 869 0032 12E0     		b	.L77
 870              	.L80:
 356:.\I2C.c       ****         {
 357:.\I2C.c       ****             status = I2C_1_MasterWriteByte(dato[i]);
 871              		.loc 1 357 0
 872 0034 FB7B     		ldrb	r3, [r7, #15]	@ zero_extendqisi2
 873 0036 07F11002 		add	r2, r7, #16
 874 003a 1344     		add	r3, r3, r2
 875 003c 13F8043C 		ldrb	r3, [r3, #-4]	@ zero_extendqisi2
 876 0040 1846     		mov	r0, r3
 877 0042 FFF7FEFF 		bl	I2C_1_MasterWriteByte
 878 0046 0346     		mov	r3, r0
 879 0048 BB73     		strb	r3, [r7, #14]
ARM GAS  C:\Users\Usuario\AppData\Local\Temp\ccAY0OnG.s 			page 23


 358:.\I2C.c       ****             if(status != I2C_1_MSTR_NO_ERROR)
 880              		.loc 1 358 0
 881 004a BB7B     		ldrb	r3, [r7, #14]	@ zero_extendqisi2
 882 004c 002B     		cmp	r3, #0
 883 004e 01D0     		beq	.L78
 359:.\I2C.c       ****             {
 360:.\I2C.c       ****                 return 0;
 884              		.loc 1 360 0
 885 0050 0023     		movs	r3, #0
 886 0052 0BE0     		b	.L82
 887              	.L78:
 355:.\I2C.c       ****         {
 888              		.loc 1 355 0 discriminator 2
 889 0054 FB7B     		ldrb	r3, [r7, #15]	@ zero_extendqisi2
 890 0056 0133     		adds	r3, r3, #1
 891 0058 FB73     		strb	r3, [r7, #15]
 892              	.L77:
 355:.\I2C.c       ****         {
 893              		.loc 1 355 0 is_stmt 0 discriminator 1
 894 005a FB7B     		ldrb	r3, [r7, #15]	@ zero_extendqisi2
 895 005c 012B     		cmp	r3, #1
 896 005e E9D9     		bls	.L80
 897 0060 01E0     		b	.L83
 898              	.L76:
 361:.\I2C.c       ****             }
 362:.\I2C.c       ****         }
 363:.\I2C.c       ****     }
 364:.\I2C.c       ****     else{
 365:.\I2C.c       **** 		return 0;
 899              		.loc 1 365 0 is_stmt 1
 900 0062 0023     		movs	r3, #0
 901 0064 02E0     		b	.L82
 902              	.L83:
 366:.\I2C.c       ****     }
 367:.\I2C.c       ****     I2C_1_MasterSendStop();	
 903              		.loc 1 367 0
 904 0066 FFF7FEFF 		bl	I2C_1_MasterSendStop
 368:.\I2C.c       **** 	return 1;
 905              		.loc 1 368 0
 906 006a 0123     		movs	r3, #1
 907              	.L82:
 369:.\I2C.c       **** }
 908              		.loc 1 369 0 discriminator 1
 909 006c 1846     		mov	r0, r3
 910 006e 1037     		adds	r7, r7, #16
 911              		.cfi_def_cfa_offset 8
 912 0070 BD46     		mov	sp, r7
 913              		.cfi_def_cfa_register 13
 914              		@ sp needed
 915 0072 80BD     		pop	{r7, pc}
 916              		.cfi_endproc
 917              	.LFE69:
 918              		.size	write_psoc1, .-write_psoc1
 919              		.text
 920              	.Letext0:
 921              		.file 2 "c:\\program files (x86)\\cypress\\psoc creator\\3.3\\psoc creator\\import\\gnu\\arm\\4.9.
 922              		.file 3 "c:\\program files (x86)\\cypress\\psoc creator\\3.3\\psoc creator\\import\\gnu\\arm\\4.9.
ARM GAS  C:\Users\Usuario\AppData\Local\Temp\ccAY0OnG.s 			page 24


 923              		.file 4 "Generated_Source\\PSoC5/cytypes.h"
 924              		.file 5 ".\\VariablesG.h"
 925              		.file 6 "Generated_Source\\PSoC5/core_cm3.h"