ARM GAS  C:\Users\Usuario\AppData\Local\Temp\ccuOhWMm.s 			page 1


   1              		.syntax unified
   2              		.cpu cortex-m3
   3              		.fpu softvfp
   4              		.eabi_attribute 20, 1
   5              		.eabi_attribute 21, 1
   6              		.eabi_attribute 23, 3
   7              		.eabi_attribute 24, 1
   8              		.eabi_attribute 25, 1
   9              		.eabi_attribute 26, 1
  10              		.eabi_attribute 30, 6
  11              		.eabi_attribute 34, 1
  12              		.eabi_attribute 18, 4
  13              		.thumb
  14              		.file	"main.c"
  15              		.text
  16              	.Ltext0:
  17              		.cfi_sections	.debug_frame
  18              		.comm	count_teclas1,1,1
  19              		.comm	comas1,1,1
  20              		.comm	comas2,1,1
  21              		.comm	id_coma1,1,1
  22              		.comm	id_teclado1,1,1
  23              		.comm	count_teclas2,1,1
  24              		.comm	id_coma2,1,1
  25              		.comm	id_teclado2,1,1
  26              		.comm	posx1,2,2
  27              		.comm	posy1,2,2
  28              		.comm	sizeletra1,2,2
  29              		.comm	posx2,2,2
  30              		.comm	posy2,2,2
  31              		.comm	sizeletra2,2,2
  32              		.comm	teclas1,1,1
  33              		.comm	teclas2,1,1
  34              		.comm	flujo_LCD1,1,1
  35              		.comm	flujo_LCD2,1,1
  36              		.comm	flujo_LCD3,1,1
  37              		.comm	flujo_LCD4,1,1
  38              		.comm	Buffer_LCD1,30,4
  39              		.comm	Buffer_LCD2,30,4
  40              		.comm	count_protector,1,1
  41              		.comm	count_protector2,1,1
  42              		.comm	password_lcd,9,4
  43              		.comm	imagen_grado1,2,2
  44              		.comm	imagen_grado2,2,2
  45              		.comm	imagen_grado3,2,2
  46              		.comm	imagen_grado4,2,2
  47              		.comm	prox_caso,16,4
  48              		.comm	bloqueo_LCD,3,4
  49              		.comm	ppux10,1,1
  50              		.comm	nombre_pro1,17,4
  51              		.comm	nombre_pro2,17,4
  52              		.comm	nombre_pro3,17,4
  53              		.comm	version,4,4
  54              		.comm	lado1,93,4
  55              		.comm	lado2,93,4
  56              		.comm	lado3,93,4
  57              		.comm	lado4,93,4
ARM GAS  C:\Users\Usuario\AppData\Local\Temp\ccuOhWMm.s 			page 2


  58              		.comm	nombre,33,4
  59              		.comm	nit,15,4
  60              		.comm	telefono,20,4
  61              		.comm	direccion,33,4
  62              		.comm	lema1,32,4
  63              		.comm	lema2,32,4
  64              		.comm	id_logo,2,4
  65              		.comm	km,2,4
  66              		.comm	fecha,3,4
  67              		.comm	hora,2,4
  68              		.comm	rventa1,97,4
  69              		.comm	rventa2,97,4
  70              		.comm	rventa3,97,4
  71              		.comm	rventa4,97,4
  72              		.comm	ok_RF,1,1
  73              		.comm	ok_datosRF,1,1
  74              		.comm	rf_mod,200,4
  75              		.comm	buffer_i2c,64,4
  76              		.comm	crc_total,1,1
  77              		.comm	print1,2,4
  78              		.comm	print2,2,4
  79              		.global	letras
  80              		.data
  81              		.align	2
  82              		.type	letras, %object
  83              		.size	letras, 26
  84              	letras:
  85 0000 25       		.byte	37
  86 0001 42       		.byte	66
  87 0002 31       		.byte	49
  88 0003 27       		.byte	39
  89 0004 1D       		.byte	29
  90 0005 28       		.byte	40
  91 0006 29       		.byte	41
  92 0007 2A       		.byte	42
  93 0008 22       		.byte	34
  94 0009 2B       		.byte	43
  95 000a 2C       		.byte	44
  96 000b 2D       		.byte	45
  97 000c 35       		.byte	53
  98 000d 34       		.byte	52
  99 000e 23       		.byte	35
 100 000f 24       		.byte	36
 101 0010 1B       		.byte	27
 102 0011 1E       		.byte	30
 103 0012 26       		.byte	38
 104 0013 1F       		.byte	31
 105 0014 21       		.byte	33
 106 0015 32       		.byte	50
 107 0016 1C       		.byte	28
 108 0017 30       		.byte	48
 109 0018 20       		.byte	32
 110 0019 2F       		.byte	47
 111              		.global	clave_config
 112 001a 0000     		.align	2
 113              		.type	clave_config, %object
 114              		.size	clave_config, 5
ARM GAS  C:\Users\Usuario\AppData\Local\Temp\ccuOhWMm.s 			page 3


 115              	clave_config:
 116 001c 30323431 		.ascii	"02412"
 116      32
 117              		.comm	espera,1,1
 118              		.global	test
 119 0021 000000   		.align	2
 120              		.type	test, %object
 121              		.size	test, 18
 122              	test:
 123 0024 54657374 		.ascii	"Test de Impresora\000"
 123      20646520 
 123      496D7072 
 123      65736F72 
 123      6100
 124              		.global	msn_errort
 125 0036 0000     		.align	2
 126              		.type	msn_errort, %object
 127              		.size	msn_errort, 21
 128              	msn_errort:
 129 0038 4E6F2070 		.ascii	"No pudo tomar Totales"
 129      75646F20 
 129      746F6D61 
 129      7220546F 
 129      74616C65 
 130              		.global	msn_errorv
 131 004d 000000   		.align	2
 132              		.type	msn_errorv, %object
 133              		.size	msn_errorv, 19
 134              	msn_errorv:
 135 0050 4E6F2070 		.ascii	"No pudo tomar venta"
 135      75646F20 
 135      746F6D61 
 135      72207665 
 135      6E7461
 136              		.comm	estado_lcd1,1,1
 137              		.comm	estado_lcd2,1,1
 138              		.comm	estado_pos,4,4
 139              		.comm	idaux,8,4
 140              		.comm	state_rf,1,1
 141 0063 00       		.section	.text.init,"ax",%progbits
 142              		.align	2
 143              		.global	init
 144              		.thumb
 145              		.thumb_func
 146              		.type	init, %function
 147              	init:
 148              	.LFB63:
 149              		.file 1 ".\\main.c"
   1:.\main.c      **** /*
   2:.\main.c      **** ***************************************************************************************************
   3:.\main.c      **** *                                           GRP550M CODE2
   4:.\main.c      **** *
   5:.\main.c      **** *                             (c) Copyright 2013; Sistemas Insepet LTDA
   6:.\main.c      **** *
   7:.\main.c      **** *               All rights reserved.  Protected by international copyright laws.
   8:.\main.c      **** *               Knowledge of the source code may NOT be used to develop a similar product.
   9:.\main.c      **** *               Please help us continue to provide the Embedded community with the finest
ARM GAS  C:\Users\Usuario\AppData\Local\Temp\ccuOhWMm.s 			page 4


  10:.\main.c      **** *               software available.  Your honesty is greatly appreciated.
  11:.\main.c      **** ***************************************************************************************************
  12:.\main.c      **** */
  13:.\main.c      **** 
  14:.\main.c      **** /*
  15:.\main.c      **** ***************************************************************************************************
  16:.\main.c      **** *
  17:.\main.c      **** *                                               GRP550M CODE
  18:.\main.c      **** *
  19:.\main.c      **** *                                             CYPRESS PSoC5LP
  20:.\main.c      **** *                                                with the
  21:.\main.c      **** *                                            CY8C5969AXI-LP035
  22:.\main.c      **** *
  23:.\main.c      **** * Filename      : main.c
  24:.\main.c      **** * Version       : V2.00
  25:.\main.c      **** * Programmer(s) : 
  26:.\main.c      ****                   
  27:.\main.c      **** ***************************************************************************************************
  28:.\main.c      **** */
  29:.\main.c      **** 
  30:.\main.c      **** /*
  31:.\main.c      **** ***************************************************************************************************
  32:.\main.c      **** *                                             INCLUDE FILES
  33:.\main.c      **** ***************************************************************************************************
  34:.\main.c      **** */
  35:.\main.c      **** 
  36:.\main.c      **** #include <device.h>
  37:.\main.c      **** #include <math.h>
  38:.\main.c      **** #include <stdio.h>
  39:.\main.c      **** #include <stdlib.h>
  40:.\main.c      **** #include <string.h>
  41:.\main.c      **** #include "Protocolo.h"
  42:.\main.c      **** #include "VariablesG.h"
  43:.\main.c      **** #include "Print.h"
  44:.\main.c      **** #include "LCD.h"
  45:.\main.c      **** #include "ibutton.h"
  46:.\main.c      **** #include "i2c.h"
  47:.\main.c      **** 
  48:.\main.c      **** /*
  49:.\main.c      **** ***************************************************************************************************
  50:.\main.c      **** *                                             DECLARACION DE FUNCIONES
  51:.\main.c      **** ***************************************************************************************************
  52:.\main.c      **** */
  53:.\main.c      **** uint8 letras[26]={0x25,0x42,0x31,0x27,0x1D,0x28,0x29,0x2A,0x22,0x2B,0x2C,0x2D,0x35,0x34,0x23,0x24,0
  54:.\main.c      **** uint8 clave_config[5]="02412";
  55:.\main.c      **** uint8 espera;
  56:.\main.c      **** uint8 test[18]="Test de Impresora";
  57:.\main.c      **** uint8 msn_errort[21]="No pudo tomar Totales";
  58:.\main.c      **** uint8 msn_errorv[19]="No pudo tomar venta";
  59:.\main.c      **** uint8 estado_lcd1,estado_lcd2, estado_pos[4];
  60:.\main.c      **** CY_ISR(animacion);
  61:.\main.c      **** CY_ISR(animacion2);
  62:.\main.c      **** CY_ISR(modo_mux);
  63:.\main.c      **** uint8 idaux[8];
  64:.\main.c      **** uint8 state_rf;
  65:.\main.c      **** /*
  66:.\main.c      **** ***************************************************************************************************
ARM GAS  C:\Users\Usuario\AppData\Local\Temp\ccuOhWMm.s 			page 5


  67:.\main.c      **** *                                         init( void )
  68:.\main.c      **** *
  69:.\main.c      **** * Description : 
  70:.\main.c      **** *               
  71:.\main.c      **** *
  72:.\main.c      **** * Argument(s) : none
  73:.\main.c      **** *
  74:.\main.c      **** * Return(s)   : none
  75:.\main.c      **** *
  76:.\main.c      **** * Caller(s)   : 
  77:.\main.c      **** *
  78:.\main.c      **** * Note(s)     : none.
  79:.\main.c      **** ***************************************************************************************************
  80:.\main.c      **** */
  81:.\main.c      **** void init(void){
 150              		.loc 1 81 0
 151              		.cfi_startproc
 152              		@ args = 0, pretend = 0, frame = 8
 153              		@ frame_needed = 1, uses_anonymous_args = 0
 154 0000 80B5     		push	{r7, lr}
 155              		.cfi_def_cfa_offset 8
 156              		.cfi_offset 7, -8
 157              		.cfi_offset 14, -4
 158 0002 82B0     		sub	sp, sp, #8
 159              		.cfi_def_cfa_offset 16
 160 0004 00AF     		add	r7, sp, #0
 161              		.cfi_def_cfa_register 7
  82:.\main.c      **** 	uint8 x,y,i;
  83:.\main.c      ****     CyGlobalIntEnable;
 162              		.loc 1 83 0
 163              	@ 83 ".\main.c" 1
 164 0006 62B6     		CPSIE   i
 165              	@ 0 "" 2
  84:.\main.c      ****     Surtidor_EnableRxInt();
 166              		.loc 1 84 0
 167              		.thumb
 168 0008 A54B     		ldr	r3, .L126
 169 000a 0822     		movs	r2, #8
 170 000c 1A60     		str	r2, [r3]
  85:.\main.c      ****     PC_EnableRxInt();
 171              		.loc 1 85 0
 172 000e A44B     		ldr	r3, .L126
 173 0010 0422     		movs	r2, #4
 174 0012 1A60     		str	r2, [r3]
  86:.\main.c      ****     I2C_1_Start();
 175              		.loc 1 86 0
 176 0014 FFF7FEFF 		bl	I2C_1_Start
  87:.\main.c      ****     Surtidor_Start();
 177              		.loc 1 87 0
 178 0018 FFF7FEFF 		bl	Surtidor_Start
  88:.\main.c      ****     Impresora_Start();
 179              		.loc 1 88 0
 180 001c FFF7FEFF 		bl	Impresora_Start
  89:.\main.c      ****     LCD_1_Start();
 181              		.loc 1 89 0
 182 0020 FFF7FEFF 		bl	LCD_1_Start
  90:.\main.c      ****     LCD_2_Start();
ARM GAS  C:\Users\Usuario\AppData\Local\Temp\ccuOhWMm.s 			page 6


 183              		.loc 1 90 0
 184 0024 FFF7FEFF 		bl	LCD_2_Start
  91:.\main.c      ****     LCD_1_EnableRxInt();
 185              		.loc 1 91 0
 186 0028 9D4B     		ldr	r3, .L126
 187 002a 0122     		movs	r2, #1
 188 002c 1A60     		str	r2, [r3]
  92:.\main.c      **** 	LCD_2_EnableRxInt();
 189              		.loc 1 92 0
 190 002e 9C4B     		ldr	r3, .L126
 191 0030 0222     		movs	r2, #2
 192 0032 1A60     		str	r2, [r3]
  93:.\main.c      **** 	Timer_Modo_Start();
 193              		.loc 1 93 0
 194 0034 FFF7FEFF 		bl	Timer_Modo_Start
  94:.\main.c      **** 	/***********Iniciacionde variables***************/
  95:.\main.c      **** 	lado1.grado[0][0]=0;
 195              		.loc 1 95 0
 196 0038 9A4B     		ldr	r3, .L126+4
 197 003a 0022     		movs	r2, #0
 198 003c 83F85920 		strb	r2, [r3, #89]
  96:.\main.c      **** 	lado1.grado[1][0]=0;
 199              		.loc 1 96 0
 200 0040 984B     		ldr	r3, .L126+4
 201 0042 0022     		movs	r2, #0
 202 0044 83F85A20 		strb	r2, [r3, #90]
  97:.\main.c      **** 	lado1.grado[2][0]=0;
 203              		.loc 1 97 0
 204 0048 964B     		ldr	r3, .L126+4
 205 004a 0022     		movs	r2, #0
 206 004c 83F85B20 		strb	r2, [r3, #91]
  98:.\main.c      **** 	lado2.grado[0][0]=0;
 207              		.loc 1 98 0
 208 0050 954B     		ldr	r3, .L126+8
 209 0052 0022     		movs	r2, #0
 210 0054 83F85920 		strb	r2, [r3, #89]
  99:.\main.c      **** 	lado2.grado[1][0]=0;
 211              		.loc 1 99 0
 212 0058 934B     		ldr	r3, .L126+8
 213 005a 0022     		movs	r2, #0
 214 005c 83F85A20 		strb	r2, [r3, #90]
 100:.\main.c      **** 	lado2.grado[2][0]=0;
 215              		.loc 1 100 0
 216 0060 914B     		ldr	r3, .L126+8
 217 0062 0022     		movs	r2, #0
 218 0064 83F85B20 		strb	r2, [r3, #91]
 101:.\main.c      **** 	for(y=0;y<=2;y++){
 219              		.loc 1 101 0
 220 0068 0023     		movs	r3, #0
 221 006a BB71     		strb	r3, [r7, #6]
 222 006c 16E0     		b	.L2
 223              	.L5:
 102:.\main.c      **** 		for(x=0;x<=23;x++){
 224              		.loc 1 102 0
 225 006e 0023     		movs	r3, #0
 226 0070 FB71     		strb	r3, [r7, #7]
 227 0072 0DE0     		b	.L3
ARM GAS  C:\Users\Usuario\AppData\Local\Temp\ccuOhWMm.s 			page 7


 228              	.L4:
 103:.\main.c      **** 			lado1.totales[y][x]=0;
 229              		.loc 1 103 0 discriminator 3
 230 0074 BA79     		ldrb	r2, [r7, #6]	@ zero_extendqisi2
 231 0076 F979     		ldrb	r1, [r7, #7]	@ zero_extendqisi2
 232 0078 8A48     		ldr	r0, .L126+4
 233 007a 1346     		mov	r3, r2
 234 007c 5B00     		lsls	r3, r3, #1
 235 007e 1344     		add	r3, r3, r2
 236 0080 DB00     		lsls	r3, r3, #3
 237 0082 0B44     		add	r3, r3, r1
 238 0084 0344     		add	r3, r3, r0
 239 0086 0022     		movs	r2, #0
 240 0088 9A70     		strb	r2, [r3, #2]
 102:.\main.c      **** 		for(x=0;x<=23;x++){
 241              		.loc 1 102 0 discriminator 3
 242 008a FB79     		ldrb	r3, [r7, #7]	@ zero_extendqisi2
 243 008c 0133     		adds	r3, r3, #1
 244 008e FB71     		strb	r3, [r7, #7]
 245              	.L3:
 102:.\main.c      **** 		for(x=0;x<=23;x++){
 246              		.loc 1 102 0 is_stmt 0 discriminator 1
 247 0090 FB79     		ldrb	r3, [r7, #7]	@ zero_extendqisi2
 248 0092 172B     		cmp	r3, #23
 249 0094 EED9     		bls	.L4
 101:.\main.c      **** 	for(y=0;y<=2;y++){
 250              		.loc 1 101 0 is_stmt 1 discriminator 2
 251 0096 BB79     		ldrb	r3, [r7, #6]	@ zero_extendqisi2
 252 0098 0133     		adds	r3, r3, #1
 253 009a BB71     		strb	r3, [r7, #6]
 254              	.L2:
 101:.\main.c      **** 	for(y=0;y<=2;y++){
 255              		.loc 1 101 0 is_stmt 0 discriminator 1
 256 009c BB79     		ldrb	r3, [r7, #6]	@ zero_extendqisi2
 257 009e 022B     		cmp	r3, #2
 258 00a0 E5D9     		bls	.L5
 104:.\main.c      **** 		}
 105:.\main.c      **** 	}
 106:.\main.c      **** 	for(y=0;y<=2;y++){
 259              		.loc 1 106 0 is_stmt 1
 260 00a2 0023     		movs	r3, #0
 261 00a4 BB71     		strb	r3, [r7, #6]
 262 00a6 16E0     		b	.L6
 263              	.L9:
 107:.\main.c      **** 		for(x=0;x<=23;x++){
 264              		.loc 1 107 0
 265 00a8 0023     		movs	r3, #0
 266 00aa FB71     		strb	r3, [r7, #7]
 267 00ac 0DE0     		b	.L7
 268              	.L8:
 108:.\main.c      **** 			lado2.totales[y][x]=0;
 269              		.loc 1 108 0 discriminator 3
 270 00ae BA79     		ldrb	r2, [r7, #6]	@ zero_extendqisi2
 271 00b0 F979     		ldrb	r1, [r7, #7]	@ zero_extendqisi2
 272 00b2 7D48     		ldr	r0, .L126+8
 273 00b4 1346     		mov	r3, r2
 274 00b6 5B00     		lsls	r3, r3, #1
ARM GAS  C:\Users\Usuario\AppData\Local\Temp\ccuOhWMm.s 			page 8


 275 00b8 1344     		add	r3, r3, r2
 276 00ba DB00     		lsls	r3, r3, #3
 277 00bc 0B44     		add	r3, r3, r1
 278 00be 0344     		add	r3, r3, r0
 279 00c0 0022     		movs	r2, #0
 280 00c2 9A70     		strb	r2, [r3, #2]
 107:.\main.c      **** 		for(x=0;x<=23;x++){
 281              		.loc 1 107 0 discriminator 3
 282 00c4 FB79     		ldrb	r3, [r7, #7]	@ zero_extendqisi2
 283 00c6 0133     		adds	r3, r3, #1
 284 00c8 FB71     		strb	r3, [r7, #7]
 285              	.L7:
 107:.\main.c      **** 		for(x=0;x<=23;x++){
 286              		.loc 1 107 0 is_stmt 0 discriminator 1
 287 00ca FB79     		ldrb	r3, [r7, #7]	@ zero_extendqisi2
 288 00cc 172B     		cmp	r3, #23
 289 00ce EED9     		bls	.L8
 106:.\main.c      **** 		for(x=0;x<=23;x++){
 290              		.loc 1 106 0 is_stmt 1 discriminator 2
 291 00d0 BB79     		ldrb	r3, [r7, #6]	@ zero_extendqisi2
 292 00d2 0133     		adds	r3, r3, #1
 293 00d4 BB71     		strb	r3, [r7, #6]
 294              	.L6:
 106:.\main.c      **** 		for(x=0;x<=23;x++){
 295              		.loc 1 106 0 is_stmt 0 discriminator 1
 296 00d6 BB79     		ldrb	r3, [r7, #6]	@ zero_extendqisi2
 297 00d8 022B     		cmp	r3, #2
 298 00da E5D9     		bls	.L9
 109:.\main.c      **** 		}
 110:.\main.c      **** 	}	
 111:.\main.c      ****     CyDelay(5);
 299              		.loc 1 111 0 is_stmt 1
 300 00dc 0520     		movs	r0, #5
 301 00de FFF7FEFF 		bl	CyDelay
 112:.\main.c      **** 	/******************Lectura de EEPROM*************/
 113:.\main.c      **** 	leer_eeprom(0,32);									//Nombre Estacion
 302              		.loc 1 113 0
 303 00e2 0020     		movs	r0, #0
 304 00e4 2021     		movs	r1, #32
 305 00e6 FFF7FEFF 		bl	leer_eeprom
 114:.\main.c      ****     if((buffer_i2c[0]>0)&&(buffer_i2c[0]<=32)){
 306              		.loc 1 114 0
 307 00ea 704B     		ldr	r3, .L126+12
 308 00ec 1B78     		ldrb	r3, [r3]	@ zero_extendqisi2
 309 00ee 002B     		cmp	r3, #0
 310 00f0 14D0     		beq	.L10
 311              		.loc 1 114 0 is_stmt 0 discriminator 1
 312 00f2 6E4B     		ldr	r3, .L126+12
 313 00f4 1B78     		ldrb	r3, [r3]	@ zero_extendqisi2
 314 00f6 202B     		cmp	r3, #32
 315 00f8 10D8     		bhi	.L10
 115:.\main.c      ****     	for(x=0;x<=buffer_i2c[0];x++){
 316              		.loc 1 115 0 is_stmt 1
 317 00fa 0023     		movs	r3, #0
 318 00fc FB71     		strb	r3, [r7, #7]
 319 00fe 08E0     		b	.L11
 320              	.L12:
ARM GAS  C:\Users\Usuario\AppData\Local\Temp\ccuOhWMm.s 			page 9


 116:.\main.c      ****     		nombre[x]=buffer_i2c[x];
 321              		.loc 1 116 0 discriminator 3
 322 0100 FB79     		ldrb	r3, [r7, #7]	@ zero_extendqisi2
 323 0102 FA79     		ldrb	r2, [r7, #7]	@ zero_extendqisi2
 324 0104 6949     		ldr	r1, .L126+12
 325 0106 895C     		ldrb	r1, [r1, r2]	@ zero_extendqisi2
 326 0108 694A     		ldr	r2, .L126+16
 327 010a D154     		strb	r1, [r2, r3]
 115:.\main.c      ****     	for(x=0;x<=buffer_i2c[0];x++){
 328              		.loc 1 115 0 discriminator 3
 329 010c FB79     		ldrb	r3, [r7, #7]	@ zero_extendqisi2
 330 010e 0133     		adds	r3, r3, #1
 331 0110 FB71     		strb	r3, [r7, #7]
 332              	.L11:
 115:.\main.c      ****     	for(x=0;x<=buffer_i2c[0];x++){
 333              		.loc 1 115 0 is_stmt 0 discriminator 1
 334 0112 664B     		ldr	r3, .L126+12
 335 0114 1B78     		ldrb	r3, [r3]	@ zero_extendqisi2
 336 0116 FA79     		ldrb	r2, [r7, #7]	@ zero_extendqisi2
 337 0118 9A42     		cmp	r2, r3
 338 011a F1D9     		bls	.L12
 339              	.L10:
 117:.\main.c      ****     	}
 118:.\main.c      ****     }
 119:.\main.c      **** 	leer_eeprom(32,15);									//Nit
 340              		.loc 1 119 0 is_stmt 1
 341 011c 2020     		movs	r0, #32
 342 011e 0F21     		movs	r1, #15
 343 0120 FFF7FEFF 		bl	leer_eeprom
 120:.\main.c      ****     if((buffer_i2c[0]>0)&&(buffer_i2c[0]<=15)){
 344              		.loc 1 120 0
 345 0124 614B     		ldr	r3, .L126+12
 346 0126 1B78     		ldrb	r3, [r3]	@ zero_extendqisi2
 347 0128 002B     		cmp	r3, #0
 348 012a 14D0     		beq	.L13
 349              		.loc 1 120 0 is_stmt 0 discriminator 1
 350 012c 5F4B     		ldr	r3, .L126+12
 351 012e 1B78     		ldrb	r3, [r3]	@ zero_extendqisi2
 352 0130 0F2B     		cmp	r3, #15
 353 0132 10D8     		bhi	.L13
 121:.\main.c      ****     	for(x=0;x<=buffer_i2c[0];x++){
 354              		.loc 1 121 0 is_stmt 1
 355 0134 0023     		movs	r3, #0
 356 0136 FB71     		strb	r3, [r7, #7]
 357 0138 08E0     		b	.L14
 358              	.L15:
 122:.\main.c      ****     		nit[x]=buffer_i2c[x];		
 359              		.loc 1 122 0 discriminator 3
 360 013a FB79     		ldrb	r3, [r7, #7]	@ zero_extendqisi2
 361 013c FA79     		ldrb	r2, [r7, #7]	@ zero_extendqisi2
 362 013e 5B49     		ldr	r1, .L126+12
 363 0140 895C     		ldrb	r1, [r1, r2]	@ zero_extendqisi2
 364 0142 5C4A     		ldr	r2, .L126+20
 365 0144 D154     		strb	r1, [r2, r3]
 121:.\main.c      ****     	for(x=0;x<=buffer_i2c[0];x++){
 366              		.loc 1 121 0 discriminator 3
 367 0146 FB79     		ldrb	r3, [r7, #7]	@ zero_extendqisi2
ARM GAS  C:\Users\Usuario\AppData\Local\Temp\ccuOhWMm.s 			page 10


 368 0148 0133     		adds	r3, r3, #1
 369 014a FB71     		strb	r3, [r7, #7]
 370              	.L14:
 121:.\main.c      ****     	for(x=0;x<=buffer_i2c[0];x++){
 371              		.loc 1 121 0 is_stmt 0 discriminator 1
 372 014c 574B     		ldr	r3, .L126+12
 373 014e 1B78     		ldrb	r3, [r3]	@ zero_extendqisi2
 374 0150 FA79     		ldrb	r2, [r7, #7]	@ zero_extendqisi2
 375 0152 9A42     		cmp	r2, r3
 376 0154 F1D9     		bls	.L15
 377              	.L13:
 123:.\main.c      ****     	}
 124:.\main.c      ****     }
 125:.\main.c      **** 	leer_eeprom(64,32);									//Direccion
 378              		.loc 1 125 0 is_stmt 1
 379 0156 4020     		movs	r0, #64
 380 0158 2021     		movs	r1, #32
 381 015a FFF7FEFF 		bl	leer_eeprom
 126:.\main.c      ****     if((buffer_i2c[0]>0)&&(buffer_i2c[0]<=32)){
 382              		.loc 1 126 0
 383 015e 534B     		ldr	r3, .L126+12
 384 0160 1B78     		ldrb	r3, [r3]	@ zero_extendqisi2
 385 0162 002B     		cmp	r3, #0
 386 0164 14D0     		beq	.L16
 387              		.loc 1 126 0 is_stmt 0 discriminator 1
 388 0166 514B     		ldr	r3, .L126+12
 389 0168 1B78     		ldrb	r3, [r3]	@ zero_extendqisi2
 390 016a 202B     		cmp	r3, #32
 391 016c 10D8     		bhi	.L16
 127:.\main.c      ****     	for(x=0;x<=buffer_i2c[0];x++){
 392              		.loc 1 127 0 is_stmt 1
 393 016e 0023     		movs	r3, #0
 394 0170 FB71     		strb	r3, [r7, #7]
 395 0172 08E0     		b	.L17
 396              	.L18:
 128:.\main.c      ****     		direccion[x]=buffer_i2c[x];		
 397              		.loc 1 128 0 discriminator 3
 398 0174 FB79     		ldrb	r3, [r7, #7]	@ zero_extendqisi2
 399 0176 FA79     		ldrb	r2, [r7, #7]	@ zero_extendqisi2
 400 0178 4C49     		ldr	r1, .L126+12
 401 017a 895C     		ldrb	r1, [r1, r2]	@ zero_extendqisi2
 402 017c 4E4A     		ldr	r2, .L126+24
 403 017e D154     		strb	r1, [r2, r3]
 127:.\main.c      ****     	for(x=0;x<=buffer_i2c[0];x++){
 404              		.loc 1 127 0 discriminator 3
 405 0180 FB79     		ldrb	r3, [r7, #7]	@ zero_extendqisi2
 406 0182 0133     		adds	r3, r3, #1
 407 0184 FB71     		strb	r3, [r7, #7]
 408              	.L17:
 127:.\main.c      ****     	for(x=0;x<=buffer_i2c[0];x++){
 409              		.loc 1 127 0 is_stmt 0 discriminator 1
 410 0186 494B     		ldr	r3, .L126+12
 411 0188 1B78     		ldrb	r3, [r3]	@ zero_extendqisi2
 412 018a FA79     		ldrb	r2, [r7, #7]	@ zero_extendqisi2
 413 018c 9A42     		cmp	r2, r3
 414 018e F1D9     		bls	.L18
 415              	.L16:
ARM GAS  C:\Users\Usuario\AppData\Local\Temp\ccuOhWMm.s 			page 11


 129:.\main.c      ****     	}
 130:.\main.c      ****     }
 131:.\main.c      **** 	leer_eeprom(47,12);									//Telefono
 416              		.loc 1 131 0 is_stmt 1
 417 0190 2F20     		movs	r0, #47
 418 0192 0C21     		movs	r1, #12
 419 0194 FFF7FEFF 		bl	leer_eeprom
 132:.\main.c      ****     if((buffer_i2c[0]>0)&&(buffer_i2c[0]<=12)){
 420              		.loc 1 132 0
 421 0198 444B     		ldr	r3, .L126+12
 422 019a 1B78     		ldrb	r3, [r3]	@ zero_extendqisi2
 423 019c 002B     		cmp	r3, #0
 424 019e 14D0     		beq	.L19
 425              		.loc 1 132 0 is_stmt 0 discriminator 1
 426 01a0 424B     		ldr	r3, .L126+12
 427 01a2 1B78     		ldrb	r3, [r3]	@ zero_extendqisi2
 428 01a4 0C2B     		cmp	r3, #12
 429 01a6 10D8     		bhi	.L19
 133:.\main.c      ****     	for(x=0;x<=buffer_i2c[0];x++){
 430              		.loc 1 133 0 is_stmt 1
 431 01a8 0023     		movs	r3, #0
 432 01aa FB71     		strb	r3, [r7, #7]
 433 01ac 08E0     		b	.L20
 434              	.L21:
 134:.\main.c      ****     		telefono[x]=buffer_i2c[x];		
 435              		.loc 1 134 0 discriminator 3
 436 01ae FB79     		ldrb	r3, [r7, #7]	@ zero_extendqisi2
 437 01b0 FA79     		ldrb	r2, [r7, #7]	@ zero_extendqisi2
 438 01b2 3E49     		ldr	r1, .L126+12
 439 01b4 895C     		ldrb	r1, [r1, r2]	@ zero_extendqisi2
 440 01b6 414A     		ldr	r2, .L126+28
 441 01b8 D154     		strb	r1, [r2, r3]
 133:.\main.c      ****     	for(x=0;x<=buffer_i2c[0];x++){
 442              		.loc 1 133 0 discriminator 3
 443 01ba FB79     		ldrb	r3, [r7, #7]	@ zero_extendqisi2
 444 01bc 0133     		adds	r3, r3, #1
 445 01be FB71     		strb	r3, [r7, #7]
 446              	.L20:
 133:.\main.c      ****     	for(x=0;x<=buffer_i2c[0];x++){
 447              		.loc 1 133 0 is_stmt 0 discriminator 1
 448 01c0 3A4B     		ldr	r3, .L126+12
 449 01c2 1B78     		ldrb	r3, [r3]	@ zero_extendqisi2
 450 01c4 FA79     		ldrb	r2, [r7, #7]	@ zero_extendqisi2
 451 01c6 9A42     		cmp	r2, r3
 452 01c8 F1D9     		bls	.L21
 453              	.L19:
 135:.\main.c      ****     	}
 136:.\main.c      ****     }
 137:.\main.c      **** 	leer_eeprom(128,32);								//Lema 1
 454              		.loc 1 137 0 is_stmt 1
 455 01ca 8020     		movs	r0, #128
 456 01cc 2021     		movs	r1, #32
 457 01ce FFF7FEFF 		bl	leer_eeprom
 138:.\main.c      ****     if((buffer_i2c[0]>0)&&(buffer_i2c[0]<=32)){
 458              		.loc 1 138 0
 459 01d2 364B     		ldr	r3, .L126+12
 460 01d4 1B78     		ldrb	r3, [r3]	@ zero_extendqisi2
ARM GAS  C:\Users\Usuario\AppData\Local\Temp\ccuOhWMm.s 			page 12


 461 01d6 002B     		cmp	r3, #0
 462 01d8 14D0     		beq	.L22
 463              		.loc 1 138 0 is_stmt 0 discriminator 1
 464 01da 344B     		ldr	r3, .L126+12
 465 01dc 1B78     		ldrb	r3, [r3]	@ zero_extendqisi2
 466 01de 202B     		cmp	r3, #32
 467 01e0 10D8     		bhi	.L22
 139:.\main.c      ****     	for(x=0;x<=buffer_i2c[0];x++){
 468              		.loc 1 139 0 is_stmt 1
 469 01e2 0023     		movs	r3, #0
 470 01e4 FB71     		strb	r3, [r7, #7]
 471 01e6 08E0     		b	.L23
 472              	.L24:
 140:.\main.c      ****     		lema1[x]=buffer_i2c[x];	
 473              		.loc 1 140 0 discriminator 3
 474 01e8 FB79     		ldrb	r3, [r7, #7]	@ zero_extendqisi2
 475 01ea FA79     		ldrb	r2, [r7, #7]	@ zero_extendqisi2
 476 01ec 2F49     		ldr	r1, .L126+12
 477 01ee 895C     		ldrb	r1, [r1, r2]	@ zero_extendqisi2
 478 01f0 334A     		ldr	r2, .L126+32
 479 01f2 D154     		strb	r1, [r2, r3]
 139:.\main.c      ****     	for(x=0;x<=buffer_i2c[0];x++){
 480              		.loc 1 139 0 discriminator 3
 481 01f4 FB79     		ldrb	r3, [r7, #7]	@ zero_extendqisi2
 482 01f6 0133     		adds	r3, r3, #1
 483 01f8 FB71     		strb	r3, [r7, #7]
 484              	.L23:
 139:.\main.c      ****     	for(x=0;x<=buffer_i2c[0];x++){
 485              		.loc 1 139 0 is_stmt 0 discriminator 1
 486 01fa 2C4B     		ldr	r3, .L126+12
 487 01fc 1B78     		ldrb	r3, [r3]	@ zero_extendqisi2
 488 01fe FA79     		ldrb	r2, [r7, #7]	@ zero_extendqisi2
 489 0200 9A42     		cmp	r2, r3
 490 0202 F1D9     		bls	.L24
 491              	.L22:
 141:.\main.c      ****     	}
 142:.\main.c      ****     }
 143:.\main.c      **** 	leer_eeprom(160,32);								//Lema 2
 492              		.loc 1 143 0 is_stmt 1
 493 0204 A020     		movs	r0, #160
 494 0206 2021     		movs	r1, #32
 495 0208 FFF7FEFF 		bl	leer_eeprom
 144:.\main.c      ****     if((buffer_i2c[0]>0)&&(buffer_i2c[0]<=32)){
 496              		.loc 1 144 0
 497 020c 274B     		ldr	r3, .L126+12
 498 020e 1B78     		ldrb	r3, [r3]	@ zero_extendqisi2
 499 0210 002B     		cmp	r3, #0
 500 0212 14D0     		beq	.L25
 501              		.loc 1 144 0 is_stmt 0 discriminator 1
 502 0214 254B     		ldr	r3, .L126+12
 503 0216 1B78     		ldrb	r3, [r3]	@ zero_extendqisi2
 504 0218 202B     		cmp	r3, #32
 505 021a 10D8     		bhi	.L25
 145:.\main.c      ****     	for(x=0;x<=buffer_i2c[0];x++){
 506              		.loc 1 145 0 is_stmt 1
 507 021c 0023     		movs	r3, #0
 508 021e FB71     		strb	r3, [r7, #7]
ARM GAS  C:\Users\Usuario\AppData\Local\Temp\ccuOhWMm.s 			page 13


 509 0220 08E0     		b	.L26
 510              	.L27:
 146:.\main.c      ****     		lema2[x]=buffer_i2c[x];
 511              		.loc 1 146 0 discriminator 3
 512 0222 FB79     		ldrb	r3, [r7, #7]	@ zero_extendqisi2
 513 0224 FA79     		ldrb	r2, [r7, #7]	@ zero_extendqisi2
 514 0226 2149     		ldr	r1, .L126+12
 515 0228 895C     		ldrb	r1, [r1, r2]	@ zero_extendqisi2
 516 022a 264A     		ldr	r2, .L126+36
 517 022c D154     		strb	r1, [r2, r3]
 145:.\main.c      ****     	for(x=0;x<=buffer_i2c[0];x++){
 518              		.loc 1 145 0 discriminator 3
 519 022e FB79     		ldrb	r3, [r7, #7]	@ zero_extendqisi2
 520 0230 0133     		adds	r3, r3, #1
 521 0232 FB71     		strb	r3, [r7, #7]
 522              	.L26:
 145:.\main.c      ****     	for(x=0;x<=buffer_i2c[0];x++){
 523              		.loc 1 145 0 is_stmt 0 discriminator 1
 524 0234 1D4B     		ldr	r3, .L126+12
 525 0236 1B78     		ldrb	r3, [r3]	@ zero_extendqisi2
 526 0238 FA79     		ldrb	r2, [r7, #7]	@ zero_extendqisi2
 527 023a 9A42     		cmp	r2, r3
 528 023c F1D9     		bls	.L27
 529              	.L25:
 147:.\main.c      ****     	}
 148:.\main.c      ****     }
 149:.\main.c      **** 	leer_eeprom(455,2);									//logo
 530              		.loc 1 149 0 is_stmt 1
 531 023e 40F2C710 		movw	r0, #455
 532 0242 0221     		movs	r1, #2
 533 0244 FFF7FEFF 		bl	leer_eeprom
 150:.\main.c      **** 	if(buffer_i2c[0]==1){
 534              		.loc 1 150 0
 535 0248 184B     		ldr	r3, .L126+12
 536 024a 1B78     		ldrb	r3, [r3]	@ zero_extendqisi2
 537 024c 012B     		cmp	r3, #1
 538 024e 07D1     		bne	.L28
 151:.\main.c      **** 		 id_logo[0]=buffer_i2c[0]; 
 539              		.loc 1 151 0
 540 0250 164B     		ldr	r3, .L126+12
 541 0252 1A78     		ldrb	r2, [r3]	@ zero_extendqisi2
 542 0254 1C4B     		ldr	r3, .L126+40
 543 0256 1A70     		strb	r2, [r3]
 152:.\main.c      **** 		 id_logo[1]=buffer_i2c[1];
 544              		.loc 1 152 0
 545 0258 144B     		ldr	r3, .L126+12
 546 025a 5A78     		ldrb	r2, [r3, #1]	@ zero_extendqisi2
 547 025c 1A4B     		ldr	r3, .L126+40
 548 025e 5A70     		strb	r2, [r3, #1]
 549              	.L28:
 153:.\main.c      **** 	}
 154:.\main.c      **** 	leer_eeprom(756,2);									//km
 550              		.loc 1 154 0
 551 0260 4FF43D70 		mov	r0, #756
 552 0264 0221     		movs	r1, #2
 553 0266 FFF7FEFF 		bl	leer_eeprom
 155:.\main.c      **** 	if(buffer_i2c[0]==1){
ARM GAS  C:\Users\Usuario\AppData\Local\Temp\ccuOhWMm.s 			page 14


 554              		.loc 1 155 0
 555 026a 104B     		ldr	r3, .L126+12
 556 026c 1B78     		ldrb	r3, [r3]	@ zero_extendqisi2
 557 026e 012B     		cmp	r3, #1
 558 0270 07D1     		bne	.L29
 156:.\main.c      **** 		 km[0]=buffer_i2c[0]; 
 559              		.loc 1 156 0
 560 0272 0E4B     		ldr	r3, .L126+12
 561 0274 1A78     		ldrb	r2, [r3]	@ zero_extendqisi2
 562 0276 154B     		ldr	r3, .L126+44
 563 0278 1A70     		strb	r2, [r3]
 157:.\main.c      **** 		 km[1]=buffer_i2c[1];
 564              		.loc 1 157 0
 565 027a 0C4B     		ldr	r3, .L126+12
 566 027c 5A78     		ldrb	r2, [r3, #1]	@ zero_extendqisi2
 567 027e 134B     		ldr	r3, .L126+44
 568 0280 5A70     		strb	r2, [r3, #1]
 569              	.L29:
 158:.\main.c      **** 	}		
 159:.\main.c      **** 	leer_eeprom(96,9);									//Pasword
 570              		.loc 1 159 0
 571 0282 6020     		movs	r0, #96
 572 0284 0921     		movs	r1, #9
 573 0286 FFF7FEFF 		bl	leer_eeprom
 160:.\main.c      **** 	if((buffer_i2c[0]<=0x09)&&(buffer_i2c[0]>=0x01)){
 574              		.loc 1 160 0
 575 028a 084B     		ldr	r3, .L126+12
 576 028c 1B78     		ldrb	r3, [r3]	@ zero_extendqisi2
 577 028e 092B     		cmp	r3, #9
 578 0290 31D8     		bhi	.L30
 579              		.loc 1 160 0 is_stmt 0 discriminator 1
 580 0292 064B     		ldr	r3, .L126+12
 581 0294 1B78     		ldrb	r3, [r3]	@ zero_extendqisi2
 582 0296 002B     		cmp	r3, #0
 583 0298 2DD0     		beq	.L30
 161:.\main.c      **** 		for(x=0;x<=7;x++){
 584              		.loc 1 161 0 is_stmt 1
 585 029a 0023     		movs	r3, #0
 586 029c FB71     		strb	r3, [r7, #7]
 587 029e 22E0     		b	.L31
 588              	.L127:
 589              		.align	2
 590              	.L126:
 591 02a0 00E100E0 		.word	-536813312
 592 02a4 00000000 		.word	lado1
 593 02a8 00000000 		.word	lado2
 594 02ac 00000000 		.word	buffer_i2c
 595 02b0 00000000 		.word	nombre
 596 02b4 00000000 		.word	nit
 597 02b8 00000000 		.word	direccion
 598 02bc 00000000 		.word	telefono
 599 02c0 00000000 		.word	lema1
 600 02c4 00000000 		.word	lema2
 601 02c8 00000000 		.word	id_logo
 602 02cc 00000000 		.word	km
 603              	.L32:
 162:.\main.c      **** 			password_lcd[x+1]=buffer_i2c[x+1];
ARM GAS  C:\Users\Usuario\AppData\Local\Temp\ccuOhWMm.s 			page 15


 604              		.loc 1 162 0 discriminator 3
 605 02d0 FB79     		ldrb	r3, [r7, #7]	@ zero_extendqisi2
 606 02d2 0133     		adds	r3, r3, #1
 607 02d4 FA79     		ldrb	r2, [r7, #7]	@ zero_extendqisi2
 608 02d6 0132     		adds	r2, r2, #1
 609 02d8 A749     		ldr	r1, .L128
 610 02da 895C     		ldrb	r1, [r1, r2]	@ zero_extendqisi2
 611 02dc A74A     		ldr	r2, .L128+4
 612 02de D154     		strb	r1, [r2, r3]
 161:.\main.c      **** 		for(x=0;x<=7;x++){
 613              		.loc 1 161 0 discriminator 3
 614 02e0 FB79     		ldrb	r3, [r7, #7]	@ zero_extendqisi2
 615 02e2 0133     		adds	r3, r3, #1
 616 02e4 FB71     		strb	r3, [r7, #7]
 617              	.L31:
 161:.\main.c      **** 		for(x=0;x<=7;x++){
 618              		.loc 1 161 0 is_stmt 0 discriminator 1
 619 02e6 FB79     		ldrb	r3, [r7, #7]	@ zero_extendqisi2
 620 02e8 072B     		cmp	r3, #7
 621 02ea F1D9     		bls	.L32
 163:.\main.c      **** 		}
 164:.\main.c      **** 		password_lcd[0]=buffer_i2c[0];
 622              		.loc 1 164 0 is_stmt 1
 623 02ec A24B     		ldr	r3, .L128
 624 02ee 1A78     		ldrb	r2, [r3]	@ zero_extendqisi2
 625 02f0 A24B     		ldr	r3, .L128+4
 626 02f2 1A70     		strb	r2, [r3]
 627 02f4 0CE0     		b	.L33
 628              	.L30:
 165:.\main.c      **** 	}
 166:.\main.c      **** 	else{
 167:.\main.c      **** 		for(x=1;x<=8;x++){
 629              		.loc 1 167 0
 630 02f6 0123     		movs	r3, #1
 631 02f8 FB71     		strb	r3, [r7, #7]
 632 02fa 06E0     		b	.L34
 633              	.L35:
 168:.\main.c      **** 			password_lcd[x]=x;
 634              		.loc 1 168 0 discriminator 3
 635 02fc FB79     		ldrb	r3, [r7, #7]	@ zero_extendqisi2
 636 02fe 9F49     		ldr	r1, .L128+4
 637 0300 FA79     		ldrb	r2, [r7, #7]
 638 0302 CA54     		strb	r2, [r1, r3]
 167:.\main.c      **** 			password_lcd[x]=x;
 639              		.loc 1 167 0 discriminator 3
 640 0304 FB79     		ldrb	r3, [r7, #7]	@ zero_extendqisi2
 641 0306 0133     		adds	r3, r3, #1
 642 0308 FB71     		strb	r3, [r7, #7]
 643              	.L34:
 167:.\main.c      **** 			password_lcd[x]=x;
 644              		.loc 1 167 0 is_stmt 0 discriminator 1
 645 030a FB79     		ldrb	r3, [r7, #7]	@ zero_extendqisi2
 646 030c 082B     		cmp	r3, #8
 647 030e F5D9     		bls	.L35
 648              	.L33:
 169:.\main.c      **** 		}	
 170:.\main.c      **** 	}
ARM GAS  C:\Users\Usuario\AppData\Local\Temp\ccuOhWMm.s 			page 16


 171:.\main.c      **** 	leer_eeprom(678,4);										//Numero de grados y codigo de cada uno 1
 649              		.loc 1 171 0 is_stmt 1
 650 0310 40F2A620 		movw	r0, #678
 651 0314 0421     		movs	r1, #4
 652 0316 FFF7FEFF 		bl	leer_eeprom
 172:.\main.c      ****     if((buffer_i2c[0]<=4)&&(buffer_i2c[0]>0)){
 653              		.loc 1 172 0
 654 031a 974B     		ldr	r3, .L128
 655 031c 1B78     		ldrb	r3, [r3]	@ zero_extendqisi2
 656 031e 042B     		cmp	r3, #4
 657 0320 00F29280 		bhi	.L36
 658              		.loc 1 172 0 is_stmt 0 discriminator 1
 659 0324 944B     		ldr	r3, .L128
 660 0326 1B78     		ldrb	r3, [r3]	@ zero_extendqisi2
 661 0328 002B     		cmp	r3, #0
 662 032a 00F08D80 		beq	.L36
 173:.\main.c      ****     	lado1.mangueras=buffer_i2c[0];
 663              		.loc 1 173 0 is_stmt 1
 664 032e 924B     		ldr	r3, .L128
 665 0330 1A78     		ldrb	r2, [r3]	@ zero_extendqisi2
 666 0332 934B     		ldr	r3, .L128+8
 667 0334 83F85C20 		strb	r2, [r3, #92]
 174:.\main.c      ****     	for(x=0;x<buffer_i2c[0];x++){
 668              		.loc 1 174 0
 669 0338 0023     		movs	r3, #0
 670 033a FB71     		strb	r3, [r7, #7]
 671 033c 0CE0     		b	.L37
 672              	.L38:
 175:.\main.c      ****     		lado1.grado[x][0]=buffer_i2c[x+1];	
 673              		.loc 1 175 0 discriminator 3
 674 033e FB79     		ldrb	r3, [r7, #7]	@ zero_extendqisi2
 675 0340 FA79     		ldrb	r2, [r7, #7]	@ zero_extendqisi2
 676 0342 0132     		adds	r2, r2, #1
 677 0344 8C49     		ldr	r1, .L128
 678 0346 895C     		ldrb	r1, [r1, r2]	@ zero_extendqisi2
 679 0348 8D4A     		ldr	r2, .L128+8
 680 034a 1344     		add	r3, r3, r2
 681 034c 0A46     		mov	r2, r1
 682 034e 83F85920 		strb	r2, [r3, #89]
 174:.\main.c      ****     	for(x=0;x<buffer_i2c[0];x++){
 683              		.loc 1 174 0 discriminator 3
 684 0352 FB79     		ldrb	r3, [r7, #7]	@ zero_extendqisi2
 685 0354 0133     		adds	r3, r3, #1
 686 0356 FB71     		strb	r3, [r7, #7]
 687              	.L37:
 174:.\main.c      ****     	for(x=0;x<buffer_i2c[0];x++){
 688              		.loc 1 174 0 is_stmt 0 discriminator 1
 689 0358 874B     		ldr	r3, .L128
 690 035a 1B78     		ldrb	r3, [r3]	@ zero_extendqisi2
 691 035c FA79     		ldrb	r2, [r7, #7]	@ zero_extendqisi2
 692 035e 9A42     		cmp	r2, r3
 693 0360 EDD3     		bcc	.L38
 176:.\main.c      ****     	}
 177:.\main.c      ****     	i=0;
 694              		.loc 1 177 0 is_stmt 1
 695 0362 0023     		movs	r3, #0
 696 0364 7B71     		strb	r3, [r7, #5]
ARM GAS  C:\Users\Usuario\AppData\Local\Temp\ccuOhWMm.s 			page 17


 178:.\main.c      ****     	if((lado1.grado[0][0]==1)||(lado1.grado[1][0]==1)||(lado1.grado[2][0]==1)){
 697              		.loc 1 178 0
 698 0366 864B     		ldr	r3, .L128+8
 699 0368 93F85930 		ldrb	r3, [r3, #89]
 700 036c DBB2     		uxtb	r3, r3
 701 036e 012B     		cmp	r3, #1
 702 0370 0BD0     		beq	.L39
 703              		.loc 1 178 0 is_stmt 0 discriminator 1
 704 0372 834B     		ldr	r3, .L128+8
 705 0374 93F85A30 		ldrb	r3, [r3, #90]
 706 0378 DBB2     		uxtb	r3, r3
 707 037a 012B     		cmp	r3, #1
 708 037c 05D0     		beq	.L39
 709              		.loc 1 178 0 discriminator 2
 710 037e 804B     		ldr	r3, .L128+8
 711 0380 93F85B30 		ldrb	r3, [r3, #91]
 712 0384 DBB2     		uxtb	r3, r3
 713 0386 012B     		cmp	r3, #1
 714 0388 01D1     		bne	.L40
 715              	.L39:
 179:.\main.c      ****     		i=1;
 716              		.loc 1 179 0 is_stmt 1
 717 038a 0123     		movs	r3, #1
 718 038c 7B71     		strb	r3, [r7, #5]
 719              	.L40:
 180:.\main.c      ****     	}
 181:.\main.c      ****     	if((lado1.grado[0][0]==2)||(lado1.grado[1][0]==2)||(lado1.grado[2][0]==2)){
 720              		.loc 1 181 0
 721 038e 7C4B     		ldr	r3, .L128+8
 722 0390 93F85930 		ldrb	r3, [r3, #89]
 723 0394 DBB2     		uxtb	r3, r3
 724 0396 022B     		cmp	r3, #2
 725 0398 0BD0     		beq	.L41
 726              		.loc 1 181 0 is_stmt 0 discriminator 1
 727 039a 794B     		ldr	r3, .L128+8
 728 039c 93F85A30 		ldrb	r3, [r3, #90]
 729 03a0 DBB2     		uxtb	r3, r3
 730 03a2 022B     		cmp	r3, #2
 731 03a4 05D0     		beq	.L41
 732              		.loc 1 181 0 discriminator 2
 733 03a6 764B     		ldr	r3, .L128+8
 734 03a8 93F85B30 		ldrb	r3, [r3, #91]
 735 03ac DBB2     		uxtb	r3, r3
 736 03ae 022B     		cmp	r3, #2
 737 03b0 03D1     		bne	.L42
 738              	.L41:
 182:.\main.c      ****     		i|=2;
 739              		.loc 1 182 0 is_stmt 1
 740 03b2 7B79     		ldrb	r3, [r7, #5]
 741 03b4 43F00203 		orr	r3, r3, #2
 742 03b8 7B71     		strb	r3, [r7, #5]
 743              	.L42:
 183:.\main.c      ****     	}
 184:.\main.c      ****     	if((lado1.grado[0][0]==3)||(lado1.grado[1][0]==3)||(lado1.grado[2][0]==3)){
 744              		.loc 1 184 0
 745 03ba 714B     		ldr	r3, .L128+8
 746 03bc 93F85930 		ldrb	r3, [r3, #89]
ARM GAS  C:\Users\Usuario\AppData\Local\Temp\ccuOhWMm.s 			page 18


 747 03c0 DBB2     		uxtb	r3, r3
 748 03c2 032B     		cmp	r3, #3
 749 03c4 0BD0     		beq	.L43
 750              		.loc 1 184 0 is_stmt 0 discriminator 1
 751 03c6 6E4B     		ldr	r3, .L128+8
 752 03c8 93F85A30 		ldrb	r3, [r3, #90]
 753 03cc DBB2     		uxtb	r3, r3
 754 03ce 032B     		cmp	r3, #3
 755 03d0 05D0     		beq	.L43
 756              		.loc 1 184 0 discriminator 2
 757 03d2 6B4B     		ldr	r3, .L128+8
 758 03d4 93F85B30 		ldrb	r3, [r3, #91]
 759 03d8 DBB2     		uxtb	r3, r3
 760 03da 032B     		cmp	r3, #3
 761 03dc 03D1     		bne	.L44
 762              	.L43:
 185:.\main.c      ****     		i|=4;
 763              		.loc 1 185 0 is_stmt 1
 764 03de 7B79     		ldrb	r3, [r7, #5]
 765 03e0 43F00403 		orr	r3, r3, #4
 766 03e4 7B71     		strb	r3, [r7, #5]
 767              	.L44:
 186:.\main.c      ****     	}
 187:.\main.c      ****     	switch(i){
 768              		.loc 1 187 0
 769 03e6 7B79     		ldrb	r3, [r7, #5]	@ zero_extendqisi2
 770 03e8 013B     		subs	r3, r3, #1
 771 03ea 062B     		cmp	r3, #6
 772 03ec 2CD8     		bhi	.L36
 773 03ee 01A2     		adr	r2, .L46
 774 03f0 52F823F0 		ldr	pc, [r2, r3, lsl #2]
 775              		.p2align 2
 776              	.L46:
 777 03f4 11040000 		.word	.L45+1
 778 03f8 19040000 		.word	.L47+1
 779 03fc 31040000 		.word	.L48+1
 780 0400 21040000 		.word	.L49+1
 781 0404 29040000 		.word	.L50+1
 782 0408 39040000 		.word	.L51+1
 783 040c 41040000 		.word	.L52+1
 784              		.p2align 1
 785              	.L45:
 188:.\main.c      **** 			case 1:
 189:.\main.c      **** 				imagen_grado1=1;	
 786              		.loc 1 189 0
 787 0410 5C4B     		ldr	r3, .L128+12
 788 0412 0122     		movs	r2, #1
 789 0414 1A80     		strh	r2, [r3]	@ movhi
 190:.\main.c      **** 			break;
 790              		.loc 1 190 0
 791 0416 17E0     		b	.L36
 792              	.L47:
 191:.\main.c      **** 			
 192:.\main.c      **** 			case 2:
 193:.\main.c      **** 				imagen_grado1=1;	
 793              		.loc 1 193 0
 794 0418 5A4B     		ldr	r3, .L128+12
ARM GAS  C:\Users\Usuario\AppData\Local\Temp\ccuOhWMm.s 			page 19


 795 041a 0122     		movs	r2, #1
 796 041c 1A80     		strh	r2, [r3]	@ movhi
 194:.\main.c      **** 			break;
 797              		.loc 1 194 0
 798 041e 13E0     		b	.L36
 799              	.L49:
 195:.\main.c      **** 			
 196:.\main.c      **** 			case 4:
 197:.\main.c      **** 				imagen_grado1=1;	
 800              		.loc 1 197 0
 801 0420 584B     		ldr	r3, .L128+12
 802 0422 0122     		movs	r2, #1
 803 0424 1A80     		strh	r2, [r3]	@ movhi
 198:.\main.c      **** 			break;	
 804              		.loc 1 198 0
 805 0426 0FE0     		b	.L36
 806              	.L50:
 199:.\main.c      **** 			
 200:.\main.c      ****     		case 5:
 201:.\main.c      ****     			imagen_grado1=124;			
 807              		.loc 1 201 0
 808 0428 564B     		ldr	r3, .L128+12
 809 042a 7C22     		movs	r2, #124
 810 042c 1A80     		strh	r2, [r3]	@ movhi
 202:.\main.c      ****     		break;		
 811              		.loc 1 202 0
 812 042e 0BE0     		b	.L36
 813              	.L48:
 203:.\main.c      ****     		
 204:.\main.c      ****     		case 3:
 205:.\main.c      ****     			imagen_grado1=125;	
 814              		.loc 1 205 0
 815 0430 544B     		ldr	r3, .L128+12
 816 0432 7D22     		movs	r2, #125
 817 0434 1A80     		strh	r2, [r3]	@ movhi
 206:.\main.c      ****     		break;
 818              		.loc 1 206 0
 819 0436 07E0     		b	.L36
 820              	.L51:
 207:.\main.c      ****     		
 208:.\main.c      ****     		case 6:
 209:.\main.c      ****     			imagen_grado1=127;	
 821              		.loc 1 209 0
 822 0438 524B     		ldr	r3, .L128+12
 823 043a 7F22     		movs	r2, #127
 824 043c 1A80     		strh	r2, [r3]	@ movhi
 210:.\main.c      ****     		break;	
 825              		.loc 1 210 0
 826 043e 03E0     		b	.L36
 827              	.L52:
 211:.\main.c      ****     		
 212:.\main.c      ****     		case 7:
 213:.\main.c      ****     			imagen_grado1=126;	
 828              		.loc 1 213 0
 829 0440 504B     		ldr	r3, .L128+12
 830 0442 7E22     		movs	r2, #126
 831 0444 1A80     		strh	r2, [r3]	@ movhi
ARM GAS  C:\Users\Usuario\AppData\Local\Temp\ccuOhWMm.s 			page 20


 214:.\main.c      ****     		break;		
 832              		.loc 1 214 0
 833 0446 00BF     		nop
 834              	.L36:
 215:.\main.c      ****     	}
 216:.\main.c      ****     }
 217:.\main.c      **** 	leer_eeprom(682,4);										//Numero de grado y codigo de cada uno 2
 835              		.loc 1 217 0
 836 0448 40F2AA20 		movw	r0, #682
 837 044c 0421     		movs	r1, #4
 838 044e FFF7FEFF 		bl	leer_eeprom
 218:.\main.c      ****     if((buffer_i2c[0]<=4)&&(buffer_i2c[0]>0)){
 839              		.loc 1 218 0
 840 0452 494B     		ldr	r3, .L128
 841 0454 1B78     		ldrb	r3, [r3]	@ zero_extendqisi2
 842 0456 042B     		cmp	r3, #4
 843 0458 00F29E80 		bhi	.L53
 844              		.loc 1 218 0 is_stmt 0 discriminator 1
 845 045c 464B     		ldr	r3, .L128
 846 045e 1B78     		ldrb	r3, [r3]	@ zero_extendqisi2
 847 0460 002B     		cmp	r3, #0
 848 0462 00F09980 		beq	.L53
 219:.\main.c      ****     	lado2.mangueras=buffer_i2c[0];
 849              		.loc 1 219 0 is_stmt 1
 850 0466 444B     		ldr	r3, .L128
 851 0468 1A78     		ldrb	r2, [r3]	@ zero_extendqisi2
 852 046a 474B     		ldr	r3, .L128+16
 853 046c 83F85C20 		strb	r2, [r3, #92]
 220:.\main.c      ****     	for(x=0;x<buffer_i2c[0];x++){
 854              		.loc 1 220 0
 855 0470 0023     		movs	r3, #0
 856 0472 FB71     		strb	r3, [r7, #7]
 857 0474 0CE0     		b	.L54
 858              	.L55:
 221:.\main.c      ****     		lado2.grado[x][0]=buffer_i2c[x+1];
 859              		.loc 1 221 0 discriminator 3
 860 0476 FB79     		ldrb	r3, [r7, #7]	@ zero_extendqisi2
 861 0478 FA79     		ldrb	r2, [r7, #7]	@ zero_extendqisi2
 862 047a 0132     		adds	r2, r2, #1
 863 047c 3E49     		ldr	r1, .L128
 864 047e 895C     		ldrb	r1, [r1, r2]	@ zero_extendqisi2
 865 0480 414A     		ldr	r2, .L128+16
 866 0482 1344     		add	r3, r3, r2
 867 0484 0A46     		mov	r2, r1
 868 0486 83F85920 		strb	r2, [r3, #89]
 220:.\main.c      ****     	for(x=0;x<buffer_i2c[0];x++){
 869              		.loc 1 220 0 discriminator 3
 870 048a FB79     		ldrb	r3, [r7, #7]	@ zero_extendqisi2
 871 048c 0133     		adds	r3, r3, #1
 872 048e FB71     		strb	r3, [r7, #7]
 873              	.L54:
 220:.\main.c      ****     	for(x=0;x<buffer_i2c[0];x++){
 874              		.loc 1 220 0 is_stmt 0 discriminator 1
 875 0490 394B     		ldr	r3, .L128
 876 0492 1B78     		ldrb	r3, [r3]	@ zero_extendqisi2
 877 0494 FA79     		ldrb	r2, [r7, #7]	@ zero_extendqisi2
 878 0496 9A42     		cmp	r2, r3
ARM GAS  C:\Users\Usuario\AppData\Local\Temp\ccuOhWMm.s 			page 21


 879 0498 EDD3     		bcc	.L55
 222:.\main.c      ****     	}
 223:.\main.c      ****     	i=0;
 880              		.loc 1 223 0 is_stmt 1
 881 049a 0023     		movs	r3, #0
 882 049c 7B71     		strb	r3, [r7, #5]
 224:.\main.c      ****     	if((lado1.grado[0][0]==1)||(lado1.grado[1][0]==1)||(lado1.grado[2][0]==1)){
 883              		.loc 1 224 0
 884 049e 384B     		ldr	r3, .L128+8
 885 04a0 93F85930 		ldrb	r3, [r3, #89]
 886 04a4 DBB2     		uxtb	r3, r3
 887 04a6 012B     		cmp	r3, #1
 888 04a8 0BD0     		beq	.L56
 889              		.loc 1 224 0 is_stmt 0 discriminator 1
 890 04aa 354B     		ldr	r3, .L128+8
 891 04ac 93F85A30 		ldrb	r3, [r3, #90]
 892 04b0 DBB2     		uxtb	r3, r3
 893 04b2 012B     		cmp	r3, #1
 894 04b4 05D0     		beq	.L56
 895              		.loc 1 224 0 discriminator 2
 896 04b6 324B     		ldr	r3, .L128+8
 897 04b8 93F85B30 		ldrb	r3, [r3, #91]
 898 04bc DBB2     		uxtb	r3, r3
 899 04be 012B     		cmp	r3, #1
 900 04c0 01D1     		bne	.L57
 901              	.L56:
 225:.\main.c      ****     		i=1;
 902              		.loc 1 225 0 is_stmt 1
 903 04c2 0123     		movs	r3, #1
 904 04c4 7B71     		strb	r3, [r7, #5]
 905              	.L57:
 226:.\main.c      ****     	}
 227:.\main.c      ****     	if((lado1.grado[0][0]==2)||(lado1.grado[1][0]==2)||(lado1.grado[2][0]==2)){
 906              		.loc 1 227 0
 907 04c6 2E4B     		ldr	r3, .L128+8
 908 04c8 93F85930 		ldrb	r3, [r3, #89]
 909 04cc DBB2     		uxtb	r3, r3
 910 04ce 022B     		cmp	r3, #2
 911 04d0 0BD0     		beq	.L58
 912              		.loc 1 227 0 is_stmt 0 discriminator 1
 913 04d2 2B4B     		ldr	r3, .L128+8
 914 04d4 93F85A30 		ldrb	r3, [r3, #90]
 915 04d8 DBB2     		uxtb	r3, r3
 916 04da 022B     		cmp	r3, #2
 917 04dc 05D0     		beq	.L58
 918              		.loc 1 227 0 discriminator 2
 919 04de 284B     		ldr	r3, .L128+8
 920 04e0 93F85B30 		ldrb	r3, [r3, #91]
 921 04e4 DBB2     		uxtb	r3, r3
 922 04e6 022B     		cmp	r3, #2
 923 04e8 03D1     		bne	.L59
 924              	.L58:
 228:.\main.c      ****     		i|=2;
 925              		.loc 1 228 0 is_stmt 1
 926 04ea 7B79     		ldrb	r3, [r7, #5]
 927 04ec 43F00203 		orr	r3, r3, #2
 928 04f0 7B71     		strb	r3, [r7, #5]
ARM GAS  C:\Users\Usuario\AppData\Local\Temp\ccuOhWMm.s 			page 22


 929              	.L59:
 229:.\main.c      ****     	}
 230:.\main.c      ****     	if((lado1.grado[0][0]==3)||(lado1.grado[1][0]==3)||(lado1.grado[2][0]==3)){
 930              		.loc 1 230 0
 931 04f2 234B     		ldr	r3, .L128+8
 932 04f4 93F85930 		ldrb	r3, [r3, #89]
 933 04f8 DBB2     		uxtb	r3, r3
 934 04fa 032B     		cmp	r3, #3
 935 04fc 0BD0     		beq	.L60
 936              		.loc 1 230 0 is_stmt 0 discriminator 1
 937 04fe 204B     		ldr	r3, .L128+8
 938 0500 93F85A30 		ldrb	r3, [r3, #90]
 939 0504 DBB2     		uxtb	r3, r3
 940 0506 032B     		cmp	r3, #3
 941 0508 05D0     		beq	.L60
 942              		.loc 1 230 0 discriminator 2
 943 050a 1D4B     		ldr	r3, .L128+8
 944 050c 93F85B30 		ldrb	r3, [r3, #91]
 945 0510 DBB2     		uxtb	r3, r3
 946 0512 032B     		cmp	r3, #3
 947 0514 03D1     		bne	.L61
 948              	.L60:
 231:.\main.c      ****     		i|=4;
 949              		.loc 1 231 0 is_stmt 1
 950 0516 7B79     		ldrb	r3, [r7, #5]
 951 0518 43F00403 		orr	r3, r3, #4
 952 051c 7B71     		strb	r3, [r7, #5]
 953              	.L61:
 232:.\main.c      ****     	}
 233:.\main.c      ****     	switch(i){
 954              		.loc 1 233 0
 955 051e 7B79     		ldrb	r3, [r7, #5]	@ zero_extendqisi2
 956 0520 013B     		subs	r3, r3, #1
 957 0522 062B     		cmp	r3, #6
 958 0524 38D8     		bhi	.L53
 959 0526 01A2     		adr	r2, .L63
 960 0528 52F823F0 		ldr	pc, [r2, r3, lsl #2]
 961              		.p2align 2
 962              	.L63:
 963 052c 49050000 		.word	.L62+1
 964 0530 51050000 		.word	.L64+1
 965 0534 69050000 		.word	.L65+1
 966 0538 59050000 		.word	.L66+1
 967 053c 61050000 		.word	.L67+1
 968 0540 71050000 		.word	.L68+1
 969 0544 91050000 		.word	.L69+1
 970              		.p2align 1
 971              	.L62:
 234:.\main.c      **** 			case 1:
 235:.\main.c      **** 				imagen_grado2=1;	
 972              		.loc 1 235 0
 973 0548 104B     		ldr	r3, .L128+20
 974 054a 0122     		movs	r2, #1
 975 054c 1A80     		strh	r2, [r3]	@ movhi
 236:.\main.c      **** 			break;
 976              		.loc 1 236 0
 977 054e 23E0     		b	.L53
ARM GAS  C:\Users\Usuario\AppData\Local\Temp\ccuOhWMm.s 			page 23


 978              	.L64:
 237:.\main.c      **** 			
 238:.\main.c      **** 			case 2:
 239:.\main.c      **** 				imagen_grado2=1;	
 979              		.loc 1 239 0
 980 0550 0E4B     		ldr	r3, .L128+20
 981 0552 0122     		movs	r2, #1
 982 0554 1A80     		strh	r2, [r3]	@ movhi
 240:.\main.c      **** 			break;
 983              		.loc 1 240 0
 984 0556 1FE0     		b	.L53
 985              	.L66:
 241:.\main.c      **** 			
 242:.\main.c      **** 			case 4:
 243:.\main.c      **** 				imagen_grado2=1;	
 986              		.loc 1 243 0
 987 0558 0C4B     		ldr	r3, .L128+20
 988 055a 0122     		movs	r2, #1
 989 055c 1A80     		strh	r2, [r3]	@ movhi
 244:.\main.c      **** 			break;	
 990              		.loc 1 244 0
 991 055e 1BE0     		b	.L53
 992              	.L67:
 245:.\main.c      **** 			
 246:.\main.c      ****     		case 5:
 247:.\main.c      ****     			imagen_grado2=124;			
 993              		.loc 1 247 0
 994 0560 0A4B     		ldr	r3, .L128+20
 995 0562 7C22     		movs	r2, #124
 996 0564 1A80     		strh	r2, [r3]	@ movhi
 248:.\main.c      ****     		break;		
 997              		.loc 1 248 0
 998 0566 17E0     		b	.L53
 999              	.L65:
 249:.\main.c      ****     		
 250:.\main.c      ****     		case 3:
 251:.\main.c      ****     			imagen_grado2=125;	
 1000              		.loc 1 251 0
 1001 0568 084B     		ldr	r3, .L128+20
 1002 056a 7D22     		movs	r2, #125
 1003 056c 1A80     		strh	r2, [r3]	@ movhi
 252:.\main.c      ****     		break;
 1004              		.loc 1 252 0
 1005 056e 13E0     		b	.L53
 1006              	.L68:
 253:.\main.c      ****     		
 254:.\main.c      ****     		case 6:
 255:.\main.c      ****     			imagen_grado2=127;	
 1007              		.loc 1 255 0
 1008 0570 064B     		ldr	r3, .L128+20
 1009 0572 7F22     		movs	r2, #127
 1010 0574 1A80     		strh	r2, [r3]	@ movhi
 256:.\main.c      ****     		break;	
 1011              		.loc 1 256 0
 1012 0576 0FE0     		b	.L53
 1013              	.L129:
 1014              		.align	2
ARM GAS  C:\Users\Usuario\AppData\Local\Temp\ccuOhWMm.s 			page 24


 1015              	.L128:
 1016 0578 00000000 		.word	buffer_i2c
 1017 057c 00000000 		.word	password_lcd
 1018 0580 00000000 		.word	lado1
 1019 0584 00000000 		.word	imagen_grado1
 1020 0588 00000000 		.word	lado2
 1021 058c 00000000 		.word	imagen_grado2
 1022              	.L69:
 257:.\main.c      ****     		
 258:.\main.c      ****     		case 7:
 259:.\main.c      ****     			imagen_grado2=126;	
 1023              		.loc 1 259 0
 1024 0590 AD4B     		ldr	r3, .L130
 1025 0592 7E22     		movs	r2, #126
 1026 0594 1A80     		strh	r2, [r3]	@ movhi
 260:.\main.c      ****     		break;		
 1027              		.loc 1 260 0
 1028 0596 00BF     		nop
 1029              	.L53:
 261:.\main.c      ****     	}		
 262:.\main.c      ****     }
 263:.\main.c      **** 	leer_eeprom(758,4);										//Numero de grado y codigo de cada uno 3
 1030              		.loc 1 263 0
 1031 0598 40F2F620 		movw	r0, #758
 1032 059c 0421     		movs	r1, #4
 1033 059e FFF7FEFF 		bl	leer_eeprom
 264:.\main.c      ****     if((buffer_i2c[0]<=4)&&(buffer_i2c[0]>0)){
 1034              		.loc 1 264 0
 1035 05a2 AA4B     		ldr	r3, .L130+4
 1036 05a4 1B78     		ldrb	r3, [r3]	@ zero_extendqisi2
 1037 05a6 042B     		cmp	r3, #4
 1038 05a8 00F29280 		bhi	.L70
 1039              		.loc 1 264 0 is_stmt 0 discriminator 1
 1040 05ac A74B     		ldr	r3, .L130+4
 1041 05ae 1B78     		ldrb	r3, [r3]	@ zero_extendqisi2
 1042 05b0 002B     		cmp	r3, #0
 1043 05b2 00F08D80 		beq	.L70
 265:.\main.c      ****     	lado3.mangueras=buffer_i2c[0];
 1044              		.loc 1 265 0 is_stmt 1
 1045 05b6 A54B     		ldr	r3, .L130+4
 1046 05b8 1A78     		ldrb	r2, [r3]	@ zero_extendqisi2
 1047 05ba A54B     		ldr	r3, .L130+8
 1048 05bc 83F85C20 		strb	r2, [r3, #92]
 266:.\main.c      ****     	for(x=0;x<buffer_i2c[0];x++){
 1049              		.loc 1 266 0
 1050 05c0 0023     		movs	r3, #0
 1051 05c2 FB71     		strb	r3, [r7, #7]
 1052 05c4 0CE0     		b	.L71
 1053              	.L72:
 267:.\main.c      ****     		lado3.grado[x][0]=buffer_i2c[x+1];
 1054              		.loc 1 267 0 discriminator 3
 1055 05c6 FB79     		ldrb	r3, [r7, #7]	@ zero_extendqisi2
 1056 05c8 FA79     		ldrb	r2, [r7, #7]	@ zero_extendqisi2
 1057 05ca 0132     		adds	r2, r2, #1
 1058 05cc 9F49     		ldr	r1, .L130+4
 1059 05ce 895C     		ldrb	r1, [r1, r2]	@ zero_extendqisi2
 1060 05d0 9F4A     		ldr	r2, .L130+8
ARM GAS  C:\Users\Usuario\AppData\Local\Temp\ccuOhWMm.s 			page 25


 1061 05d2 1344     		add	r3, r3, r2
 1062 05d4 0A46     		mov	r2, r1
 1063 05d6 83F85920 		strb	r2, [r3, #89]
 266:.\main.c      ****     	for(x=0;x<buffer_i2c[0];x++){
 1064              		.loc 1 266 0 discriminator 3
 1065 05da FB79     		ldrb	r3, [r7, #7]	@ zero_extendqisi2
 1066 05dc 0133     		adds	r3, r3, #1
 1067 05de FB71     		strb	r3, [r7, #7]
 1068              	.L71:
 266:.\main.c      ****     	for(x=0;x<buffer_i2c[0];x++){
 1069              		.loc 1 266 0 is_stmt 0 discriminator 1
 1070 05e0 9A4B     		ldr	r3, .L130+4
 1071 05e2 1B78     		ldrb	r3, [r3]	@ zero_extendqisi2
 1072 05e4 FA79     		ldrb	r2, [r7, #7]	@ zero_extendqisi2
 1073 05e6 9A42     		cmp	r2, r3
 1074 05e8 EDD3     		bcc	.L72
 268:.\main.c      ****     	}
 269:.\main.c      ****     	i=0;
 1075              		.loc 1 269 0 is_stmt 1
 1076 05ea 0023     		movs	r3, #0
 1077 05ec 7B71     		strb	r3, [r7, #5]
 270:.\main.c      ****     	if((lado1.grado[0][0]==1)||(lado1.grado[1][0]==1)||(lado1.grado[2][0]==1)){
 1078              		.loc 1 270 0
 1079 05ee 994B     		ldr	r3, .L130+12
 1080 05f0 93F85930 		ldrb	r3, [r3, #89]
 1081 05f4 DBB2     		uxtb	r3, r3
 1082 05f6 012B     		cmp	r3, #1
 1083 05f8 0BD0     		beq	.L73
 1084              		.loc 1 270 0 is_stmt 0 discriminator 1
 1085 05fa 964B     		ldr	r3, .L130+12
 1086 05fc 93F85A30 		ldrb	r3, [r3, #90]
 1087 0600 DBB2     		uxtb	r3, r3
 1088 0602 012B     		cmp	r3, #1
 1089 0604 05D0     		beq	.L73
 1090              		.loc 1 270 0 discriminator 2
 1091 0606 934B     		ldr	r3, .L130+12
 1092 0608 93F85B30 		ldrb	r3, [r3, #91]
 1093 060c DBB2     		uxtb	r3, r3
 1094 060e 012B     		cmp	r3, #1
 1095 0610 01D1     		bne	.L74
 1096              	.L73:
 271:.\main.c      ****     		i=1;
 1097              		.loc 1 271 0 is_stmt 1
 1098 0612 0123     		movs	r3, #1
 1099 0614 7B71     		strb	r3, [r7, #5]
 1100              	.L74:
 272:.\main.c      ****     	}
 273:.\main.c      ****     	if((lado1.grado[0][0]==2)||(lado1.grado[1][0]==2)||(lado1.grado[2][0]==2)){
 1101              		.loc 1 273 0
 1102 0616 8F4B     		ldr	r3, .L130+12
 1103 0618 93F85930 		ldrb	r3, [r3, #89]
 1104 061c DBB2     		uxtb	r3, r3
 1105 061e 022B     		cmp	r3, #2
 1106 0620 0BD0     		beq	.L75
 1107              		.loc 1 273 0 is_stmt 0 discriminator 1
 1108 0622 8C4B     		ldr	r3, .L130+12
 1109 0624 93F85A30 		ldrb	r3, [r3, #90]
ARM GAS  C:\Users\Usuario\AppData\Local\Temp\ccuOhWMm.s 			page 26


 1110 0628 DBB2     		uxtb	r3, r3
 1111 062a 022B     		cmp	r3, #2
 1112 062c 05D0     		beq	.L75
 1113              		.loc 1 273 0 discriminator 2
 1114 062e 894B     		ldr	r3, .L130+12
 1115 0630 93F85B30 		ldrb	r3, [r3, #91]
 1116 0634 DBB2     		uxtb	r3, r3
 1117 0636 022B     		cmp	r3, #2
 1118 0638 03D1     		bne	.L76
 1119              	.L75:
 274:.\main.c      ****     		i|=2;
 1120              		.loc 1 274 0 is_stmt 1
 1121 063a 7B79     		ldrb	r3, [r7, #5]
 1122 063c 43F00203 		orr	r3, r3, #2
 1123 0640 7B71     		strb	r3, [r7, #5]
 1124              	.L76:
 275:.\main.c      ****     	}
 276:.\main.c      ****     	if((lado1.grado[0][0]==3)||(lado1.grado[1][0]==3)||(lado1.grado[2][0]==3)){
 1125              		.loc 1 276 0
 1126 0642 844B     		ldr	r3, .L130+12
 1127 0644 93F85930 		ldrb	r3, [r3, #89]
 1128 0648 DBB2     		uxtb	r3, r3
 1129 064a 032B     		cmp	r3, #3
 1130 064c 0BD0     		beq	.L77
 1131              		.loc 1 276 0 is_stmt 0 discriminator 1
 1132 064e 814B     		ldr	r3, .L130+12
 1133 0650 93F85A30 		ldrb	r3, [r3, #90]
 1134 0654 DBB2     		uxtb	r3, r3
 1135 0656 032B     		cmp	r3, #3
 1136 0658 05D0     		beq	.L77
 1137              		.loc 1 276 0 discriminator 2
 1138 065a 7E4B     		ldr	r3, .L130+12
 1139 065c 93F85B30 		ldrb	r3, [r3, #91]
 1140 0660 DBB2     		uxtb	r3, r3
 1141 0662 032B     		cmp	r3, #3
 1142 0664 03D1     		bne	.L78
 1143              	.L77:
 277:.\main.c      ****     		i|=4;
 1144              		.loc 1 277 0 is_stmt 1
 1145 0666 7B79     		ldrb	r3, [r7, #5]
 1146 0668 43F00403 		orr	r3, r3, #4
 1147 066c 7B71     		strb	r3, [r7, #5]
 1148              	.L78:
 278:.\main.c      ****     	}
 279:.\main.c      ****     	switch(i){
 1149              		.loc 1 279 0
 1150 066e 7B79     		ldrb	r3, [r7, #5]	@ zero_extendqisi2
 1151 0670 013B     		subs	r3, r3, #1
 1152 0672 062B     		cmp	r3, #6
 1153 0674 2CD8     		bhi	.L70
 1154 0676 01A2     		adr	r2, .L80
 1155 0678 52F823F0 		ldr	pc, [r2, r3, lsl #2]
 1156              		.p2align 2
 1157              	.L80:
 1158 067c 99060000 		.word	.L79+1
 1159 0680 A1060000 		.word	.L81+1
 1160 0684 B9060000 		.word	.L82+1
ARM GAS  C:\Users\Usuario\AppData\Local\Temp\ccuOhWMm.s 			page 27


 1161 0688 A9060000 		.word	.L83+1
 1162 068c B1060000 		.word	.L84+1
 1163 0690 C1060000 		.word	.L85+1
 1164 0694 C9060000 		.word	.L86+1
 1165              		.p2align 1
 1166              	.L79:
 280:.\main.c      **** 			case 1:
 281:.\main.c      **** 				imagen_grado3=1;	
 1167              		.loc 1 281 0
 1168 0698 6F4B     		ldr	r3, .L130+16
 1169 069a 0122     		movs	r2, #1
 1170 069c 1A80     		strh	r2, [r3]	@ movhi
 282:.\main.c      **** 			break;
 1171              		.loc 1 282 0
 1172 069e 17E0     		b	.L70
 1173              	.L81:
 283:.\main.c      **** 			
 284:.\main.c      **** 			case 2:
 285:.\main.c      **** 				imagen_grado3=1;	
 1174              		.loc 1 285 0
 1175 06a0 6D4B     		ldr	r3, .L130+16
 1176 06a2 0122     		movs	r2, #1
 1177 06a4 1A80     		strh	r2, [r3]	@ movhi
 286:.\main.c      **** 			break;
 1178              		.loc 1 286 0
 1179 06a6 13E0     		b	.L70
 1180              	.L83:
 287:.\main.c      **** 			
 288:.\main.c      **** 			case 4:
 289:.\main.c      **** 				imagen_grado3=1;	
 1181              		.loc 1 289 0
 1182 06a8 6B4B     		ldr	r3, .L130+16
 1183 06aa 0122     		movs	r2, #1
 1184 06ac 1A80     		strh	r2, [r3]	@ movhi
 290:.\main.c      **** 			break;	
 1185              		.loc 1 290 0
 1186 06ae 0FE0     		b	.L70
 1187              	.L84:
 291:.\main.c      **** 			
 292:.\main.c      ****     		case 5:
 293:.\main.c      ****     			imagen_grado3=124;			
 1188              		.loc 1 293 0
 1189 06b0 694B     		ldr	r3, .L130+16
 1190 06b2 7C22     		movs	r2, #124
 1191 06b4 1A80     		strh	r2, [r3]	@ movhi
 294:.\main.c      ****     		break;		
 1192              		.loc 1 294 0
 1193 06b6 0BE0     		b	.L70
 1194              	.L82:
 295:.\main.c      ****     		
 296:.\main.c      ****     		case 3:
 297:.\main.c      ****     			imagen_grado3=125;	
 1195              		.loc 1 297 0
 1196 06b8 674B     		ldr	r3, .L130+16
 1197 06ba 7D22     		movs	r2, #125
 1198 06bc 1A80     		strh	r2, [r3]	@ movhi
 298:.\main.c      ****     		break;
ARM GAS  C:\Users\Usuario\AppData\Local\Temp\ccuOhWMm.s 			page 28


 1199              		.loc 1 298 0
 1200 06be 07E0     		b	.L70
 1201              	.L85:
 299:.\main.c      ****     		
 300:.\main.c      ****     		case 6:
 301:.\main.c      ****     			imagen_grado3=127;	
 1202              		.loc 1 301 0
 1203 06c0 654B     		ldr	r3, .L130+16
 1204 06c2 7F22     		movs	r2, #127
 1205 06c4 1A80     		strh	r2, [r3]	@ movhi
 302:.\main.c      ****     		break;	
 1206              		.loc 1 302 0
 1207 06c6 03E0     		b	.L70
 1208              	.L86:
 303:.\main.c      ****     		
 304:.\main.c      ****     		case 7:
 305:.\main.c      ****     			imagen_grado3=126;	
 1209              		.loc 1 305 0
 1210 06c8 634B     		ldr	r3, .L130+16
 1211 06ca 7E22     		movs	r2, #126
 1212 06cc 1A80     		strh	r2, [r3]	@ movhi
 306:.\main.c      ****     		break;		
 1213              		.loc 1 306 0
 1214 06ce 00BF     		nop
 1215              	.L70:
 307:.\main.c      ****     	}		
 308:.\main.c      ****     }
 309:.\main.c      **** 	leer_eeprom(762,4);										//Numero de grado y codigo de cada uno 4
 1216              		.loc 1 309 0
 1217 06d0 40F2FA20 		movw	r0, #762
 1218 06d4 0421     		movs	r1, #4
 1219 06d6 FFF7FEFF 		bl	leer_eeprom
 310:.\main.c      ****     if((buffer_i2c[0]<=4)&&(buffer_i2c[0]>0)){
 1220              		.loc 1 310 0
 1221 06da 5C4B     		ldr	r3, .L130+4
 1222 06dc 1B78     		ldrb	r3, [r3]	@ zero_extendqisi2
 1223 06de 042B     		cmp	r3, #4
 1224 06e0 00F29280 		bhi	.L87
 1225              		.loc 1 310 0 is_stmt 0 discriminator 1
 1226 06e4 594B     		ldr	r3, .L130+4
 1227 06e6 1B78     		ldrb	r3, [r3]	@ zero_extendqisi2
 1228 06e8 002B     		cmp	r3, #0
 1229 06ea 00F08D80 		beq	.L87
 311:.\main.c      ****     	lado4.mangueras=buffer_i2c[0];
 1230              		.loc 1 311 0 is_stmt 1
 1231 06ee 574B     		ldr	r3, .L130+4
 1232 06f0 1A78     		ldrb	r2, [r3]	@ zero_extendqisi2
 1233 06f2 5A4B     		ldr	r3, .L130+20
 1234 06f4 83F85C20 		strb	r2, [r3, #92]
 312:.\main.c      ****     	for(x=0;x<buffer_i2c[0];x++){
 1235              		.loc 1 312 0
 1236 06f8 0023     		movs	r3, #0
 1237 06fa FB71     		strb	r3, [r7, #7]
 1238 06fc 0CE0     		b	.L88
 1239              	.L89:
 313:.\main.c      ****     		lado4.grado[x][0]=buffer_i2c[x+1];
 1240              		.loc 1 313 0 discriminator 3
ARM GAS  C:\Users\Usuario\AppData\Local\Temp\ccuOhWMm.s 			page 29


 1241 06fe FB79     		ldrb	r3, [r7, #7]	@ zero_extendqisi2
 1242 0700 FA79     		ldrb	r2, [r7, #7]	@ zero_extendqisi2
 1243 0702 0132     		adds	r2, r2, #1
 1244 0704 5149     		ldr	r1, .L130+4
 1245 0706 895C     		ldrb	r1, [r1, r2]	@ zero_extendqisi2
 1246 0708 544A     		ldr	r2, .L130+20
 1247 070a 1344     		add	r3, r3, r2
 1248 070c 0A46     		mov	r2, r1
 1249 070e 83F85920 		strb	r2, [r3, #89]
 312:.\main.c      ****     	for(x=0;x<buffer_i2c[0];x++){
 1250              		.loc 1 312 0 discriminator 3
 1251 0712 FB79     		ldrb	r3, [r7, #7]	@ zero_extendqisi2
 1252 0714 0133     		adds	r3, r3, #1
 1253 0716 FB71     		strb	r3, [r7, #7]
 1254              	.L88:
 312:.\main.c      ****     	for(x=0;x<buffer_i2c[0];x++){
 1255              		.loc 1 312 0 is_stmt 0 discriminator 1
 1256 0718 4C4B     		ldr	r3, .L130+4
 1257 071a 1B78     		ldrb	r3, [r3]	@ zero_extendqisi2
 1258 071c FA79     		ldrb	r2, [r7, #7]	@ zero_extendqisi2
 1259 071e 9A42     		cmp	r2, r3
 1260 0720 EDD3     		bcc	.L89
 314:.\main.c      ****     	}
 315:.\main.c      ****     	i=0;
 1261              		.loc 1 315 0 is_stmt 1
 1262 0722 0023     		movs	r3, #0
 1263 0724 7B71     		strb	r3, [r7, #5]
 316:.\main.c      ****     	if((lado1.grado[0][0]==1)||(lado1.grado[1][0]==1)||(lado1.grado[2][0]==1)){
 1264              		.loc 1 316 0
 1265 0726 4B4B     		ldr	r3, .L130+12
 1266 0728 93F85930 		ldrb	r3, [r3, #89]
 1267 072c DBB2     		uxtb	r3, r3
 1268 072e 012B     		cmp	r3, #1
 1269 0730 0BD0     		beq	.L90
 1270              		.loc 1 316 0 is_stmt 0 discriminator 1
 1271 0732 484B     		ldr	r3, .L130+12
 1272 0734 93F85A30 		ldrb	r3, [r3, #90]
 1273 0738 DBB2     		uxtb	r3, r3
 1274 073a 012B     		cmp	r3, #1
 1275 073c 05D0     		beq	.L90
 1276              		.loc 1 316 0 discriminator 2
 1277 073e 454B     		ldr	r3, .L130+12
 1278 0740 93F85B30 		ldrb	r3, [r3, #91]
 1279 0744 DBB2     		uxtb	r3, r3
 1280 0746 012B     		cmp	r3, #1
 1281 0748 01D1     		bne	.L91
 1282              	.L90:
 317:.\main.c      ****     		i=1;
 1283              		.loc 1 317 0 is_stmt 1
 1284 074a 0123     		movs	r3, #1
 1285 074c 7B71     		strb	r3, [r7, #5]
 1286              	.L91:
 318:.\main.c      ****     	}
 319:.\main.c      ****     	if((lado1.grado[0][0]==2)||(lado1.grado[1][0]==2)||(lado1.grado[2][0]==2)){
 1287              		.loc 1 319 0
 1288 074e 414B     		ldr	r3, .L130+12
 1289 0750 93F85930 		ldrb	r3, [r3, #89]
ARM GAS  C:\Users\Usuario\AppData\Local\Temp\ccuOhWMm.s 			page 30


 1290 0754 DBB2     		uxtb	r3, r3
 1291 0756 022B     		cmp	r3, #2
 1292 0758 0BD0     		beq	.L92
 1293              		.loc 1 319 0 is_stmt 0 discriminator 1
 1294 075a 3E4B     		ldr	r3, .L130+12
 1295 075c 93F85A30 		ldrb	r3, [r3, #90]
 1296 0760 DBB2     		uxtb	r3, r3
 1297 0762 022B     		cmp	r3, #2
 1298 0764 05D0     		beq	.L92
 1299              		.loc 1 319 0 discriminator 2
 1300 0766 3B4B     		ldr	r3, .L130+12
 1301 0768 93F85B30 		ldrb	r3, [r3, #91]
 1302 076c DBB2     		uxtb	r3, r3
 1303 076e 022B     		cmp	r3, #2
 1304 0770 03D1     		bne	.L93
 1305              	.L92:
 320:.\main.c      ****     		i|=2;
 1306              		.loc 1 320 0 is_stmt 1
 1307 0772 7B79     		ldrb	r3, [r7, #5]
 1308 0774 43F00203 		orr	r3, r3, #2
 1309 0778 7B71     		strb	r3, [r7, #5]
 1310              	.L93:
 321:.\main.c      ****     	}
 322:.\main.c      ****     	if((lado1.grado[0][0]==3)||(lado1.grado[1][0]==3)||(lado1.grado[2][0]==3)){
 1311              		.loc 1 322 0
 1312 077a 364B     		ldr	r3, .L130+12
 1313 077c 93F85930 		ldrb	r3, [r3, #89]
 1314 0780 DBB2     		uxtb	r3, r3
 1315 0782 032B     		cmp	r3, #3
 1316 0784 0BD0     		beq	.L94
 1317              		.loc 1 322 0 is_stmt 0 discriminator 1
 1318 0786 334B     		ldr	r3, .L130+12
 1319 0788 93F85A30 		ldrb	r3, [r3, #90]
 1320 078c DBB2     		uxtb	r3, r3
 1321 078e 032B     		cmp	r3, #3
 1322 0790 05D0     		beq	.L94
 1323              		.loc 1 322 0 discriminator 2
 1324 0792 304B     		ldr	r3, .L130+12
 1325 0794 93F85B30 		ldrb	r3, [r3, #91]
 1326 0798 DBB2     		uxtb	r3, r3
 1327 079a 032B     		cmp	r3, #3
 1328 079c 03D1     		bne	.L95
 1329              	.L94:
 323:.\main.c      ****     		i|=4;
 1330              		.loc 1 323 0 is_stmt 1
 1331 079e 7B79     		ldrb	r3, [r7, #5]
 1332 07a0 43F00403 		orr	r3, r3, #4
 1333 07a4 7B71     		strb	r3, [r7, #5]
 1334              	.L95:
 324:.\main.c      ****     	}
 325:.\main.c      ****     	switch(i){
 1335              		.loc 1 325 0
 1336 07a6 7B79     		ldrb	r3, [r7, #5]	@ zero_extendqisi2
 1337 07a8 013B     		subs	r3, r3, #1
 1338 07aa 062B     		cmp	r3, #6
 1339 07ac 2CD8     		bhi	.L87
 1340 07ae 01A2     		adr	r2, .L97
ARM GAS  C:\Users\Usuario\AppData\Local\Temp\ccuOhWMm.s 			page 31


 1341 07b0 52F823F0 		ldr	pc, [r2, r3, lsl #2]
 1342              		.p2align 2
 1343              	.L97:
 1344 07b4 D1070000 		.word	.L96+1
 1345 07b8 D9070000 		.word	.L98+1
 1346 07bc F1070000 		.word	.L99+1
 1347 07c0 E1070000 		.word	.L100+1
 1348 07c4 E9070000 		.word	.L101+1
 1349 07c8 F9070000 		.word	.L102+1
 1350 07cc 01080000 		.word	.L103+1
 1351              		.p2align 1
 1352              	.L96:
 326:.\main.c      **** 			case 1:
 327:.\main.c      **** 				imagen_grado4=1;	
 1353              		.loc 1 327 0
 1354 07d0 234B     		ldr	r3, .L130+24
 1355 07d2 0122     		movs	r2, #1
 1356 07d4 1A80     		strh	r2, [r3]	@ movhi
 328:.\main.c      **** 			break;
 1357              		.loc 1 328 0
 1358 07d6 17E0     		b	.L87
 1359              	.L98:
 329:.\main.c      **** 			
 330:.\main.c      **** 			case 2:
 331:.\main.c      **** 				imagen_grado4=1;	
 1360              		.loc 1 331 0
 1361 07d8 214B     		ldr	r3, .L130+24
 1362 07da 0122     		movs	r2, #1
 1363 07dc 1A80     		strh	r2, [r3]	@ movhi
 332:.\main.c      **** 			break;
 1364              		.loc 1 332 0
 1365 07de 13E0     		b	.L87
 1366              	.L100:
 333:.\main.c      **** 			
 334:.\main.c      **** 			case 4:
 335:.\main.c      **** 				imagen_grado4=1;	
 1367              		.loc 1 335 0
 1368 07e0 1F4B     		ldr	r3, .L130+24
 1369 07e2 0122     		movs	r2, #1
 1370 07e4 1A80     		strh	r2, [r3]	@ movhi
 336:.\main.c      **** 			break;	
 1371              		.loc 1 336 0
 1372 07e6 0FE0     		b	.L87
 1373              	.L101:
 337:.\main.c      **** 			
 338:.\main.c      ****     		case 5:
 339:.\main.c      ****     			imagen_grado4=124;			
 1374              		.loc 1 339 0
 1375 07e8 1D4B     		ldr	r3, .L130+24
 1376 07ea 7C22     		movs	r2, #124
 1377 07ec 1A80     		strh	r2, [r3]	@ movhi
 340:.\main.c      ****     		break;		
 1378              		.loc 1 340 0
 1379 07ee 0BE0     		b	.L87
 1380              	.L99:
 341:.\main.c      ****     		
 342:.\main.c      ****     		case 3:
ARM GAS  C:\Users\Usuario\AppData\Local\Temp\ccuOhWMm.s 			page 32


 343:.\main.c      ****     			imagen_grado4=125;	
 1381              		.loc 1 343 0
 1382 07f0 1B4B     		ldr	r3, .L130+24
 1383 07f2 7D22     		movs	r2, #125
 1384 07f4 1A80     		strh	r2, [r3]	@ movhi
 344:.\main.c      ****     		break;
 1385              		.loc 1 344 0
 1386 07f6 07E0     		b	.L87
 1387              	.L102:
 345:.\main.c      ****     		
 346:.\main.c      ****     		case 6:
 347:.\main.c      ****     			imagen_grado4=127;	
 1388              		.loc 1 347 0
 1389 07f8 194B     		ldr	r3, .L130+24
 1390 07fa 7F22     		movs	r2, #127
 1391 07fc 1A80     		strh	r2, [r3]	@ movhi
 348:.\main.c      ****     		break;	
 1392              		.loc 1 348 0
 1393 07fe 03E0     		b	.L87
 1394              	.L103:
 349:.\main.c      ****     		
 350:.\main.c      ****     		case 7:
 351:.\main.c      ****     			imagen_grado4=126;	
 1395              		.loc 1 351 0
 1396 0800 174B     		ldr	r3, .L130+24
 1397 0802 7E22     		movs	r2, #126
 1398 0804 1A80     		strh	r2, [r3]	@ movhi
 352:.\main.c      ****     		break;		
 1399              		.loc 1 352 0
 1400 0806 00BF     		nop
 1401              	.L87:
 353:.\main.c      ****     	}		
 354:.\main.c      ****     }	
 355:.\main.c      **** 	leer_eeprom(444,2);										//PPU X10
 1402              		.loc 1 355 0
 1403 0808 4FF4DE70 		mov	r0, #444
 1404 080c 0221     		movs	r1, #2
 1405 080e FFF7FEFF 		bl	leer_eeprom
 356:.\main.c      **** 	if(buffer_i2c[0]==1){
 1406              		.loc 1 356 0
 1407 0812 0E4B     		ldr	r3, .L130+4
 1408 0814 1B78     		ldrb	r3, [r3]	@ zero_extendqisi2
 1409 0816 012B     		cmp	r3, #1
 1410 0818 06D1     		bne	.L104
 357:.\main.c      **** 		 ppux10=(buffer_i2c[1]&0x0f);
 1411              		.loc 1 357 0
 1412 081a 0C4B     		ldr	r3, .L130+4
 1413 081c 5B78     		ldrb	r3, [r3, #1]	@ zero_extendqisi2
 1414 081e 03F00F03 		and	r3, r3, #15
 1415 0822 DAB2     		uxtb	r2, r3
 1416 0824 0F4B     		ldr	r3, .L130+28
 1417 0826 1A70     		strb	r2, [r3]
 1418              	.L104:
 358:.\main.c      **** 	}
 359:.\main.c      **** 	leer_eeprom(686,17);									//Nombre Codigo de Producto 1
 1419              		.loc 1 359 0
 1420 0828 40F2AE20 		movw	r0, #686
ARM GAS  C:\Users\Usuario\AppData\Local\Temp\ccuOhWMm.s 			page 33


 1421 082c 1121     		movs	r1, #17
 1422 082e FFF7FEFF 		bl	leer_eeprom
 360:.\main.c      ****     if((buffer_i2c[0]<=17)&&(buffer_i2c[0]>0)){
 1423              		.loc 1 360 0
 1424 0832 064B     		ldr	r3, .L130+4
 1425 0834 1B78     		ldrb	r3, [r3]	@ zero_extendqisi2
 1426 0836 112B     		cmp	r3, #17
 1427 0838 24D8     		bhi	.L105
 1428              		.loc 1 360 0 is_stmt 0 discriminator 1
 1429 083a 044B     		ldr	r3, .L130+4
 1430 083c 1B78     		ldrb	r3, [r3]	@ zero_extendqisi2
 1431 083e 002B     		cmp	r3, #0
 1432 0840 20D0     		beq	.L105
 361:.\main.c      ****     	for(x=0;x<=buffer_i2c[0];x++){
 1433              		.loc 1 361 0 is_stmt 1
 1434 0842 0023     		movs	r3, #0
 1435 0844 FB71     		strb	r3, [r7, #7]
 1436 0846 18E0     		b	.L106
 1437              	.L131:
 1438              		.align	2
 1439              	.L130:
 1440 0848 00000000 		.word	imagen_grado2
 1441 084c 00000000 		.word	buffer_i2c
 1442 0850 00000000 		.word	lado3
 1443 0854 00000000 		.word	lado1
 1444 0858 00000000 		.word	imagen_grado3
 1445 085c 00000000 		.word	lado4
 1446 0860 00000000 		.word	imagen_grado4
 1447 0864 00000000 		.word	ppux10
 1448              	.L107:
 362:.\main.c      ****     		nombre_pro1[x]=buffer_i2c[x];
 1449              		.loc 1 362 0 discriminator 3
 1450 0868 FB79     		ldrb	r3, [r7, #7]	@ zero_extendqisi2
 1451 086a FA79     		ldrb	r2, [r7, #7]	@ zero_extendqisi2
 1452 086c 7349     		ldr	r1, .L132
 1453 086e 895C     		ldrb	r1, [r1, r2]	@ zero_extendqisi2
 1454 0870 734A     		ldr	r2, .L132+4
 1455 0872 D154     		strb	r1, [r2, r3]
 361:.\main.c      ****     	for(x=0;x<=buffer_i2c[0];x++){
 1456              		.loc 1 361 0 discriminator 3
 1457 0874 FB79     		ldrb	r3, [r7, #7]	@ zero_extendqisi2
 1458 0876 0133     		adds	r3, r3, #1
 1459 0878 FB71     		strb	r3, [r7, #7]
 1460              	.L106:
 361:.\main.c      ****     	for(x=0;x<=buffer_i2c[0];x++){
 1461              		.loc 1 361 0 is_stmt 0 discriminator 1
 1462 087a 704B     		ldr	r3, .L132
 1463 087c 1B78     		ldrb	r3, [r3]	@ zero_extendqisi2
 1464 087e FA79     		ldrb	r2, [r7, #7]	@ zero_extendqisi2
 1465 0880 9A42     		cmp	r2, r3
 1466 0882 F1D9     		bls	.L107
 1467              	.L105:
 363:.\main.c      ****     	}
 364:.\main.c      ****     }
 365:.\main.c      **** 	leer_eeprom(704,17);									//Nombre Codigo de Producto 2
 1468              		.loc 1 365 0 is_stmt 1
 1469 0884 4FF43070 		mov	r0, #704
ARM GAS  C:\Users\Usuario\AppData\Local\Temp\ccuOhWMm.s 			page 34


 1470 0888 1121     		movs	r1, #17
 1471 088a FFF7FEFF 		bl	leer_eeprom
 366:.\main.c      ****     if((buffer_i2c[0]<=17)&&(buffer_i2c[0]>0)){
 1472              		.loc 1 366 0
 1473 088e 6B4B     		ldr	r3, .L132
 1474 0890 1B78     		ldrb	r3, [r3]	@ zero_extendqisi2
 1475 0892 112B     		cmp	r3, #17
 1476 0894 14D8     		bhi	.L108
 1477              		.loc 1 366 0 is_stmt 0 discriminator 1
 1478 0896 694B     		ldr	r3, .L132
 1479 0898 1B78     		ldrb	r3, [r3]	@ zero_extendqisi2
 1480 089a 002B     		cmp	r3, #0
 1481 089c 10D0     		beq	.L108
 367:.\main.c      ****     	for(x=0;x<=buffer_i2c[0];x++){
 1482              		.loc 1 367 0 is_stmt 1
 1483 089e 0023     		movs	r3, #0
 1484 08a0 FB71     		strb	r3, [r7, #7]
 1485 08a2 08E0     		b	.L109
 1486              	.L110:
 368:.\main.c      ****     		nombre_pro2[x]=buffer_i2c[x];
 1487              		.loc 1 368 0 discriminator 3
 1488 08a4 FB79     		ldrb	r3, [r7, #7]	@ zero_extendqisi2
 1489 08a6 FA79     		ldrb	r2, [r7, #7]	@ zero_extendqisi2
 1490 08a8 6449     		ldr	r1, .L132
 1491 08aa 895C     		ldrb	r1, [r1, r2]	@ zero_extendqisi2
 1492 08ac 654A     		ldr	r2, .L132+8
 1493 08ae D154     		strb	r1, [r2, r3]
 367:.\main.c      ****     	for(x=0;x<=buffer_i2c[0];x++){
 1494              		.loc 1 367 0 discriminator 3
 1495 08b0 FB79     		ldrb	r3, [r7, #7]	@ zero_extendqisi2
 1496 08b2 0133     		adds	r3, r3, #1
 1497 08b4 FB71     		strb	r3, [r7, #7]
 1498              	.L109:
 367:.\main.c      ****     	for(x=0;x<=buffer_i2c[0];x++){
 1499              		.loc 1 367 0 is_stmt 0 discriminator 1
 1500 08b6 614B     		ldr	r3, .L132
 1501 08b8 1B78     		ldrb	r3, [r3]	@ zero_extendqisi2
 1502 08ba FA79     		ldrb	r2, [r7, #7]	@ zero_extendqisi2
 1503 08bc 9A42     		cmp	r2, r3
 1504 08be F1D9     		bls	.L110
 1505              	.L108:
 369:.\main.c      ****     	}
 370:.\main.c      ****     }
 371:.\main.c      **** 	leer_eeprom(721,17);									//Nombre Codigo de Producto 3
 1506              		.loc 1 371 0 is_stmt 1
 1507 08c0 40F2D120 		movw	r0, #721
 1508 08c4 1121     		movs	r1, #17
 1509 08c6 FFF7FEFF 		bl	leer_eeprom
 372:.\main.c      ****     if((buffer_i2c[0]<=17)&&(buffer_i2c[0]>0)){    
 1510              		.loc 1 372 0
 1511 08ca 5C4B     		ldr	r3, .L132
 1512 08cc 1B78     		ldrb	r3, [r3]	@ zero_extendqisi2
 1513 08ce 112B     		cmp	r3, #17
 1514 08d0 14D8     		bhi	.L111
 1515              		.loc 1 372 0 is_stmt 0 discriminator 1
 1516 08d2 5A4B     		ldr	r3, .L132
 1517 08d4 1B78     		ldrb	r3, [r3]	@ zero_extendqisi2
ARM GAS  C:\Users\Usuario\AppData\Local\Temp\ccuOhWMm.s 			page 35


 1518 08d6 002B     		cmp	r3, #0
 1519 08d8 10D0     		beq	.L111
 373:.\main.c      ****     	for(x=0;x<=buffer_i2c[0];x++){
 1520              		.loc 1 373 0 is_stmt 1
 1521 08da 0023     		movs	r3, #0
 1522 08dc FB71     		strb	r3, [r7, #7]
 1523 08de 08E0     		b	.L112
 1524              	.L113:
 374:.\main.c      ****     		nombre_pro3[x]=buffer_i2c[x];
 1525              		.loc 1 374 0 discriminator 3
 1526 08e0 FB79     		ldrb	r3, [r7, #7]	@ zero_extendqisi2
 1527 08e2 FA79     		ldrb	r2, [r7, #7]	@ zero_extendqisi2
 1528 08e4 5549     		ldr	r1, .L132
 1529 08e6 895C     		ldrb	r1, [r1, r2]	@ zero_extendqisi2
 1530 08e8 574A     		ldr	r2, .L132+12
 1531 08ea D154     		strb	r1, [r2, r3]
 373:.\main.c      ****     	for(x=0;x<=buffer_i2c[0];x++){
 1532              		.loc 1 373 0 discriminator 3
 1533 08ec FB79     		ldrb	r3, [r7, #7]	@ zero_extendqisi2
 1534 08ee 0133     		adds	r3, r3, #1
 1535 08f0 FB71     		strb	r3, [r7, #7]
 1536              	.L112:
 373:.\main.c      ****     	for(x=0;x<=buffer_i2c[0];x++){
 1537              		.loc 1 373 0 is_stmt 0 discriminator 1
 1538 08f2 524B     		ldr	r3, .L132
 1539 08f4 1B78     		ldrb	r3, [r3]	@ zero_extendqisi2
 1540 08f6 FA79     		ldrb	r2, [r7, #7]	@ zero_extendqisi2
 1541 08f8 9A42     		cmp	r2, r3
 1542 08fa F1D9     		bls	.L113
 1543              	.L111:
 375:.\main.c      ****     	}
 376:.\main.c      ****     }
 377:.\main.c      **** 	leer_eeprom(602,6);										//Version decimales dinero y decimales volumen
 1544              		.loc 1 377 0 is_stmt 1
 1545 08fc 40F25A20 		movw	r0, #602
 1546 0900 0621     		movs	r1, #6
 1547 0902 FFF7FEFF 		bl	leer_eeprom
 378:.\main.c      **** 	if((buffer_i2c[0]==3)||(buffer_i2c[0]==1)||(buffer_i2c[0]==5)){
 1548              		.loc 1 378 0
 1549 0906 4D4B     		ldr	r3, .L132
 1550 0908 1B78     		ldrb	r3, [r3]	@ zero_extendqisi2
 1551 090a 032B     		cmp	r3, #3
 1552 090c 07D0     		beq	.L114
 1553              		.loc 1 378 0 is_stmt 0 discriminator 1
 1554 090e 4B4B     		ldr	r3, .L132
 1555 0910 1B78     		ldrb	r3, [r3]	@ zero_extendqisi2
 1556 0912 012B     		cmp	r3, #1
 1557 0914 03D0     		beq	.L114
 1558              		.loc 1 378 0 discriminator 2
 1559 0916 494B     		ldr	r3, .L132
 1560 0918 1B78     		ldrb	r3, [r3]	@ zero_extendqisi2
 1561 091a 052B     		cmp	r3, #5
 1562 091c 14D1     		bne	.L115
 1563              	.L114:
 379:.\main.c      **** 		 version[1]=(buffer_i2c[1]&0x0f);
 1564              		.loc 1 379 0 is_stmt 1
 1565 091e 474B     		ldr	r3, .L132
ARM GAS  C:\Users\Usuario\AppData\Local\Temp\ccuOhWMm.s 			page 36


 1566 0920 5B78     		ldrb	r3, [r3, #1]	@ zero_extendqisi2
 1567 0922 03F00F03 		and	r3, r3, #15
 1568 0926 DAB2     		uxtb	r2, r3
 1569 0928 484B     		ldr	r3, .L132+16
 1570 092a 5A70     		strb	r2, [r3, #1]
 380:.\main.c      **** 		 version[2]=(buffer_i2c[2]&0x0f);
 1571              		.loc 1 380 0
 1572 092c 434B     		ldr	r3, .L132
 1573 092e 9B78     		ldrb	r3, [r3, #2]	@ zero_extendqisi2
 1574 0930 03F00F03 		and	r3, r3, #15
 1575 0934 DAB2     		uxtb	r2, r3
 1576 0936 454B     		ldr	r3, .L132+16
 1577 0938 9A70     		strb	r2, [r3, #2]
 381:.\main.c      **** 		 version[3]=(buffer_i2c[3]&0x0f);
 1578              		.loc 1 381 0
 1579 093a 404B     		ldr	r3, .L132
 1580 093c DB78     		ldrb	r3, [r3, #3]	@ zero_extendqisi2
 1581 093e 03F00F03 		and	r3, r3, #15
 1582 0942 DAB2     		uxtb	r2, r3
 1583 0944 414B     		ldr	r3, .L132+16
 1584 0946 DA70     		strb	r2, [r3, #3]
 1585              	.L115:
 382:.\main.c      **** 	}
 383:.\main.c      **** 	leer_eeprom(608,2);							//Lado A
 1586              		.loc 1 383 0
 1587 0948 4FF41870 		mov	r0, #608
 1588 094c 0221     		movs	r1, #2
 1589 094e FFF7FEFF 		bl	leer_eeprom
 384:.\main.c      **** 	if(buffer_i2c[0]==1){									
 1590              		.loc 1 384 0
 1591 0952 3A4B     		ldr	r3, .L132
 1592 0954 1B78     		ldrb	r3, [r3]	@ zero_extendqisi2
 1593 0956 012B     		cmp	r3, #1
 1594 0958 04D1     		bne	.L116
 385:.\main.c      **** 		lado1.dir=buffer_i2c[1];	
 1595              		.loc 1 385 0
 1596 095a 384B     		ldr	r3, .L132
 1597 095c 5A78     		ldrb	r2, [r3, #1]	@ zero_extendqisi2
 1598 095e 3C4B     		ldr	r3, .L132+20
 1599 0960 1A70     		strb	r2, [r3]
 1600 0962 02E0     		b	.L117
 1601              	.L116:
 386:.\main.c      **** 	}
 387:.\main.c      **** 	else{
 388:.\main.c      **** 		lado1.dir=0xFF;
 1602              		.loc 1 388 0
 1603 0964 3A4B     		ldr	r3, .L132+20
 1604 0966 FF22     		movs	r2, #255
 1605 0968 1A70     		strb	r2, [r3]
 1606              	.L117:
 389:.\main.c      **** 	}
 390:.\main.c      **** 	leer_eeprom(610,2);							//Lado B
 1607              		.loc 1 390 0
 1608 096a 40F26220 		movw	r0, #610
 1609 096e 0221     		movs	r1, #2
 1610 0970 FFF7FEFF 		bl	leer_eeprom
 391:.\main.c      **** 	if(buffer_i2c[0]==1){									
ARM GAS  C:\Users\Usuario\AppData\Local\Temp\ccuOhWMm.s 			page 37


 1611              		.loc 1 391 0
 1612 0974 314B     		ldr	r3, .L132
 1613 0976 1B78     		ldrb	r3, [r3]	@ zero_extendqisi2
 1614 0978 012B     		cmp	r3, #1
 1615 097a 04D1     		bne	.L118
 392:.\main.c      **** 		lado1.dir=buffer_i2c[1];	
 1616              		.loc 1 392 0
 1617 097c 2F4B     		ldr	r3, .L132
 1618 097e 5A78     		ldrb	r2, [r3, #1]	@ zero_extendqisi2
 1619 0980 334B     		ldr	r3, .L132+20
 1620 0982 1A70     		strb	r2, [r3]
 1621 0984 02E0     		b	.L119
 1622              	.L118:
 393:.\main.c      **** 	}
 394:.\main.c      **** 	else{
 395:.\main.c      **** 		lado1.dir=0xFF;
 1623              		.loc 1 395 0
 1624 0986 324B     		ldr	r3, .L132+20
 1625 0988 FF22     		movs	r2, #255
 1626 098a 1A70     		strb	r2, [r3]
 1627              	.L119:
 396:.\main.c      **** 	}
 397:.\main.c      **** 	leer_eeprom(804,2);							//Lado C
 1628              		.loc 1 397 0
 1629 098c 4FF44970 		mov	r0, #804
 1630 0990 0221     		movs	r1, #2
 1631 0992 FFF7FEFF 		bl	leer_eeprom
 398:.\main.c      **** 	if(buffer_i2c[0]==1){									
 1632              		.loc 1 398 0
 1633 0996 294B     		ldr	r3, .L132
 1634 0998 1B78     		ldrb	r3, [r3]	@ zero_extendqisi2
 1635 099a 012B     		cmp	r3, #1
 1636 099c 04D1     		bne	.L120
 399:.\main.c      **** 		lado3.dir=buffer_i2c[1];	
 1637              		.loc 1 399 0
 1638 099e 274B     		ldr	r3, .L132
 1639 09a0 5A78     		ldrb	r2, [r3, #1]	@ zero_extendqisi2
 1640 09a2 2C4B     		ldr	r3, .L132+24
 1641 09a4 1A70     		strb	r2, [r3]
 1642 09a6 02E0     		b	.L121
 1643              	.L120:
 400:.\main.c      **** 	}
 401:.\main.c      **** 	else{
 402:.\main.c      **** 		lado3.dir=0xFF;
 1644              		.loc 1 402 0
 1645 09a8 2A4B     		ldr	r3, .L132+24
 1646 09aa FF22     		movs	r2, #255
 1647 09ac 1A70     		strb	r2, [r3]
 1648              	.L121:
 403:.\main.c      **** 	}
 404:.\main.c      **** 	leer_eeprom(806,2);							//Lado D	
 1649              		.loc 1 404 0
 1650 09ae 40F22630 		movw	r0, #806
 1651 09b2 0221     		movs	r1, #2
 1652 09b4 FFF7FEFF 		bl	leer_eeprom
 405:.\main.c      **** 	if(buffer_i2c[0]==1){									
 1653              		.loc 1 405 0
ARM GAS  C:\Users\Usuario\AppData\Local\Temp\ccuOhWMm.s 			page 38


 1654 09b8 204B     		ldr	r3, .L132
 1655 09ba 1B78     		ldrb	r3, [r3]	@ zero_extendqisi2
 1656 09bc 012B     		cmp	r3, #1
 1657 09be 04D1     		bne	.L122
 406:.\main.c      **** 		lado4.dir=buffer_i2c[1];	
 1658              		.loc 1 406 0
 1659 09c0 1E4B     		ldr	r3, .L132
 1660 09c2 5A78     		ldrb	r2, [r3, #1]	@ zero_extendqisi2
 1661 09c4 244B     		ldr	r3, .L132+28
 1662 09c6 1A70     		strb	r2, [r3]
 1663 09c8 02E0     		b	.L123
 1664              	.L122:
 407:.\main.c      **** 	}
 408:.\main.c      **** 	else{
 409:.\main.c      **** 		lado4.dir=0xFF;
 1665              		.loc 1 409 0
 1666 09ca 234B     		ldr	r3, .L132+28
 1667 09cc FF22     		movs	r2, #255
 1668 09ce 1A70     		strb	r2, [r3]
 1669              	.L123:
 410:.\main.c      **** 	}
 411:.\main.c      **** 	leer_eeprom(666,2);							//Impresoras
 1670              		.loc 1 411 0
 1671 09d0 40F29A20 		movw	r0, #666
 1672 09d4 0221     		movs	r1, #2
 1673 09d6 FFF7FEFF 		bl	leer_eeprom
 412:.\main.c      **** 	if(buffer_i2c[0]==1){
 1674              		.loc 1 412 0
 1675 09da 184B     		ldr	r3, .L132
 1676 09dc 1B78     		ldrb	r3, [r3]	@ zero_extendqisi2
 1677 09de 012B     		cmp	r3, #1
 1678 09e0 06D1     		bne	.L124
 413:.\main.c      **** 		 print1[1]=(buffer_i2c[1]&0x0f);
 1679              		.loc 1 413 0
 1680 09e2 164B     		ldr	r3, .L132
 1681 09e4 5B78     		ldrb	r3, [r3, #1]	@ zero_extendqisi2
 1682 09e6 03F00F03 		and	r3, r3, #15
 1683 09ea DAB2     		uxtb	r2, r3
 1684 09ec 1B4B     		ldr	r3, .L132+32
 1685 09ee 5A70     		strb	r2, [r3, #1]
 1686              	.L124:
 414:.\main.c      **** 	}
 415:.\main.c      **** 	leer_eeprom(613,2);
 1687              		.loc 1 415 0
 1688 09f0 40F26520 		movw	r0, #613
 1689 09f4 0221     		movs	r1, #2
 1690 09f6 FFF7FEFF 		bl	leer_eeprom
 416:.\main.c      **** 	if(buffer_i2c[0]==1){
 1691              		.loc 1 416 0
 1692 09fa 104B     		ldr	r3, .L132
 1693 09fc 1B78     		ldrb	r3, [r3]	@ zero_extendqisi2
 1694 09fe 012B     		cmp	r3, #1
 1695 0a00 06D1     		bne	.L125
 417:.\main.c      **** 		 print2[1]=(buffer_i2c[1]&0x0f);
 1696              		.loc 1 417 0
 1697 0a02 0E4B     		ldr	r3, .L132
 1698 0a04 5B78     		ldrb	r3, [r3, #1]	@ zero_extendqisi2
ARM GAS  C:\Users\Usuario\AppData\Local\Temp\ccuOhWMm.s 			page 39


 1699 0a06 03F00F03 		and	r3, r3, #15
 1700 0a0a DAB2     		uxtb	r2, r3
 1701 0a0c 144B     		ldr	r3, .L132+36
 1702 0a0e 5A70     		strb	r2, [r3, #1]
 1703              	.L125:
 418:.\main.c      **** 	}
 419:.\main.c      **** 	rventa1.autorizado=100;
 1704              		.loc 1 419 0
 1705 0a10 144B     		ldr	r3, .L132+40
 1706 0a12 6422     		movs	r2, #100
 1707 0a14 83F86020 		strb	r2, [r3, #96]
 420:.\main.c      **** 	rventa2.autorizado=100;
 1708              		.loc 1 420 0
 1709 0a18 134B     		ldr	r3, .L132+44
 1710 0a1a 6422     		movs	r2, #100
 1711 0a1c 83F86020 		strb	r2, [r3, #96]
 421:.\main.c      **** 	rventa3.autorizado=100;
 1712              		.loc 1 421 0
 1713 0a20 124B     		ldr	r3, .L132+48
 1714 0a22 6422     		movs	r2, #100
 1715 0a24 83F86020 		strb	r2, [r3, #96]
 422:.\main.c      **** 	rventa4.autorizado=100;	
 1716              		.loc 1 422 0
 1717 0a28 114B     		ldr	r3, .L132+52
 1718 0a2a 6422     		movs	r2, #100
 1719 0a2c 83F86020 		strb	r2, [r3, #96]
 423:.\main.c      ****     CyDelay(5);
 1720              		.loc 1 423 0
 1721 0a30 0520     		movs	r0, #5
 1722 0a32 FFF7FEFF 		bl	CyDelay
 424:.\main.c      **** }
 1723              		.loc 1 424 0
 1724 0a36 0837     		adds	r7, r7, #8
 1725              		.cfi_def_cfa_offset 8
 1726 0a38 BD46     		mov	sp, r7
 1727              		.cfi_def_cfa_register 13
 1728              		@ sp needed
 1729 0a3a 80BD     		pop	{r7, pc}
 1730              	.L133:
 1731              		.align	2
 1732              	.L132:
 1733 0a3c 00000000 		.word	buffer_i2c
 1734 0a40 00000000 		.word	nombre_pro1
 1735 0a44 00000000 		.word	nombre_pro2
 1736 0a48 00000000 		.word	nombre_pro3
 1737 0a4c 00000000 		.word	version
 1738 0a50 00000000 		.word	lado1
 1739 0a54 00000000 		.word	lado3
 1740 0a58 00000000 		.word	lado4
 1741 0a5c 00000000 		.word	print1
 1742 0a60 00000000 		.word	print2
 1743 0a64 00000000 		.word	rventa1
 1744 0a68 00000000 		.word	rventa2
 1745 0a6c 00000000 		.word	rventa3
 1746 0a70 00000000 		.word	rventa4
 1747              		.cfi_endproc
 1748              	.LFE63:
ARM GAS  C:\Users\Usuario\AppData\Local\Temp\ccuOhWMm.s 			page 40


 1749              		.size	init, .-init
 1750              		.section	.rodata
 1751              		.align	2
 1752              	.LC0:
 1753 0000 00       		.byte	0
 1754 0001 5E       		.byte	94
 1755 0002 BC       		.byte	-68
 1756 0003 E2       		.byte	-30
 1757 0004 61       		.byte	97
 1758 0005 3F       		.byte	63
 1759 0006 DD       		.byte	-35
 1760 0007 83       		.byte	-125
 1761 0008 C2       		.byte	-62
 1762 0009 9C       		.byte	-100
 1763 000a 7E       		.byte	126
 1764 000b 20       		.byte	32
 1765 000c A3       		.byte	-93
 1766 000d FD       		.byte	-3
 1767 000e 1F       		.byte	31
 1768 000f 41       		.byte	65
 1769 0010 9D       		.byte	-99
 1770 0011 C3       		.byte	-61
 1771 0012 21       		.byte	33
 1772 0013 7F       		.byte	127
 1773 0014 FC       		.byte	-4
 1774 0015 A2       		.byte	-94
 1775 0016 40       		.byte	64
 1776 0017 1E       		.byte	30
 1777 0018 5F       		.byte	95
 1778 0019 01       		.byte	1
 1779 001a E3       		.byte	-29
 1780 001b BD       		.byte	-67
 1781 001c 3E       		.byte	62
 1782 001d 60       		.byte	96
 1783 001e 82       		.byte	-126
 1784 001f DC       		.byte	-36
 1785 0020 23       		.byte	35
 1786 0021 7D       		.byte	125
 1787 0022 9F       		.byte	-97
 1788 0023 C1       		.byte	-63
 1789 0024 42       		.byte	66
 1790 0025 1C       		.byte	28
 1791 0026 FE       		.byte	-2
 1792 0027 A0       		.byte	-96
 1793 0028 E1       		.byte	-31
 1794 0029 BF       		.byte	-65
 1795 002a 5D       		.byte	93
 1796 002b 03       		.byte	3
 1797 002c 80       		.byte	-128
 1798 002d DE       		.byte	-34
 1799 002e 3C       		.byte	60
 1800 002f 62       		.byte	98
 1801 0030 BE       		.byte	-66
 1802 0031 E0       		.byte	-32
 1803 0032 02       		.byte	2
 1804 0033 5C       		.byte	92
 1805 0034 DF       		.byte	-33
ARM GAS  C:\Users\Usuario\AppData\Local\Temp\ccuOhWMm.s 			page 41


 1806 0035 81       		.byte	-127
 1807 0036 63       		.byte	99
 1808 0037 3D       		.byte	61
 1809 0038 7C       		.byte	124
 1810 0039 22       		.byte	34
 1811 003a C0       		.byte	-64
 1812 003b 9E       		.byte	-98
 1813 003c 1D       		.byte	29
 1814 003d 43       		.byte	67
 1815 003e A1       		.byte	-95
 1816 003f FF       		.byte	-1
 1817 0040 46       		.byte	70
 1818 0041 18       		.byte	24
 1819 0042 FA       		.byte	-6
 1820 0043 A4       		.byte	-92
 1821 0044 27       		.byte	39
 1822 0045 79       		.byte	121
 1823 0046 9B       		.byte	-101
 1824 0047 C5       		.byte	-59
 1825 0048 84       		.byte	-124
 1826 0049 DA       		.byte	-38
 1827 004a 38       		.byte	56
 1828 004b 66       		.byte	102
 1829 004c E5       		.byte	-27
 1830 004d BB       		.byte	-69
 1831 004e 59       		.byte	89
 1832 004f 07       		.byte	7
 1833 0050 DB       		.byte	-37
 1834 0051 85       		.byte	-123
 1835 0052 67       		.byte	103
 1836 0053 39       		.byte	57
 1837 0054 BA       		.byte	-70
 1838 0055 E4       		.byte	-28
 1839 0056 06       		.byte	6
 1840 0057 58       		.byte	88
 1841 0058 19       		.byte	25
 1842 0059 47       		.byte	71
 1843 005a A5       		.byte	-91
 1844 005b FB       		.byte	-5
 1845 005c 78       		.byte	120
 1846 005d 26       		.byte	38
 1847 005e C4       		.byte	-60
 1848 005f 9A       		.byte	-102
 1849 0060 65       		.byte	101
 1850 0061 3B       		.byte	59
 1851 0062 D9       		.byte	-39
 1852 0063 87       		.byte	-121
 1853 0064 04       		.byte	4
 1854 0065 5A       		.byte	90
 1855 0066 B8       		.byte	-72
 1856 0067 E6       		.byte	-26
 1857 0068 A7       		.byte	-89
 1858 0069 F9       		.byte	-7
 1859 006a 1B       		.byte	27
 1860 006b 45       		.byte	69
 1861 006c C6       		.byte	-58
 1862 006d 98       		.byte	-104
ARM GAS  C:\Users\Usuario\AppData\Local\Temp\ccuOhWMm.s 			page 42


 1863 006e 7A       		.byte	122
 1864 006f 24       		.byte	36
 1865 0070 F8       		.byte	-8
 1866 0071 A6       		.byte	-90
 1867 0072 44       		.byte	68
 1868 0073 1A       		.byte	26
 1869 0074 99       		.byte	-103
 1870 0075 C7       		.byte	-57
 1871 0076 25       		.byte	37
 1872 0077 7B       		.byte	123
 1873 0078 3A       		.byte	58
 1874 0079 64       		.byte	100
 1875 007a 86       		.byte	-122
 1876 007b D8       		.byte	-40
 1877 007c 5B       		.byte	91
 1878 007d 05       		.byte	5
 1879 007e E7       		.byte	-25
 1880 007f B9       		.byte	-71
 1881 0080 8C       		.byte	-116
 1882 0081 D2       		.byte	-46
 1883 0082 30       		.byte	48
 1884 0083 6E       		.byte	110
 1885 0084 ED       		.byte	-19
 1886 0085 B3       		.byte	-77
 1887 0086 51       		.byte	81
 1888 0087 0F       		.byte	15
 1889 0088 4E       		.byte	78
 1890 0089 10       		.byte	16
 1891 008a F2       		.byte	-14
 1892 008b AC       		.byte	-84
 1893 008c 2F       		.byte	47
 1894 008d 71       		.byte	113
 1895 008e 93       		.byte	-109
 1896 008f CD       		.byte	-51
 1897 0090 11       		.byte	17
 1898 0091 4F       		.byte	79
 1899 0092 AD       		.byte	-83
 1900 0093 F3       		.byte	-13
 1901 0094 70       		.byte	112
 1902 0095 2E       		.byte	46
 1903 0096 CC       		.byte	-52
 1904 0097 92       		.byte	-110
 1905 0098 D3       		.byte	-45
 1906 0099 8D       		.byte	-115
 1907 009a 6F       		.byte	111
 1908 009b 31       		.byte	49
 1909 009c B2       		.byte	-78
 1910 009d EC       		.byte	-20
 1911 009e 0E       		.byte	14
 1912 009f 50       		.byte	80
 1913 00a0 AF       		.byte	-81
 1914 00a1 F1       		.byte	-15
 1915 00a2 13       		.byte	19
 1916 00a3 4D       		.byte	77
 1917 00a4 CE       		.byte	-50
 1918 00a5 90       		.byte	-112
 1919 00a6 72       		.byte	114
ARM GAS  C:\Users\Usuario\AppData\Local\Temp\ccuOhWMm.s 			page 43


 1920 00a7 2C       		.byte	44
 1921 00a8 6D       		.byte	109
 1922 00a9 33       		.byte	51
 1923 00aa D1       		.byte	-47
 1924 00ab 8F       		.byte	-113
 1925 00ac 0C       		.byte	12
 1926 00ad 52       		.byte	82
 1927 00ae B0       		.byte	-80
 1928 00af EE       		.byte	-18
 1929 00b0 32       		.byte	50
 1930 00b1 6C       		.byte	108
 1931 00b2 8E       		.byte	-114
 1932 00b3 D0       		.byte	-48
 1933 00b4 53       		.byte	83
 1934 00b5 0D       		.byte	13
 1935 00b6 EF       		.byte	-17
 1936 00b7 B1       		.byte	-79
 1937 00b8 F0       		.byte	-16
 1938 00b9 AE       		.byte	-82
 1939 00ba 4C       		.byte	76
 1940 00bb 12       		.byte	18
 1941 00bc 91       		.byte	-111
 1942 00bd CF       		.byte	-49
 1943 00be 2D       		.byte	45
 1944 00bf 73       		.byte	115
 1945 00c0 CA       		.byte	-54
 1946 00c1 94       		.byte	-108
 1947 00c2 76       		.byte	118
 1948 00c3 28       		.byte	40
 1949 00c4 AB       		.byte	-85
 1950 00c5 F5       		.byte	-11
 1951 00c6 17       		.byte	23
 1952 00c7 49       		.byte	73
 1953 00c8 08       		.byte	8
 1954 00c9 56       		.byte	86
 1955 00ca B4       		.byte	-76
 1956 00cb EA       		.byte	-22
 1957 00cc 69       		.byte	105
 1958 00cd 37       		.byte	55
 1959 00ce D5       		.byte	-43
 1960 00cf 8B       		.byte	-117
 1961 00d0 57       		.byte	87
 1962 00d1 09       		.byte	9
 1963 00d2 EB       		.byte	-21
 1964 00d3 B5       		.byte	-75
 1965 00d4 36       		.byte	54
 1966 00d5 68       		.byte	104
 1967 00d6 8A       		.byte	-118
 1968 00d7 D4       		.byte	-44
 1969 00d8 95       		.byte	-107
 1970 00d9 CB       		.byte	-53
 1971 00da 29       		.byte	41
 1972 00db 77       		.byte	119
 1973 00dc F4       		.byte	-12
 1974 00dd AA       		.byte	-86
 1975 00de 48       		.byte	72
 1976 00df 16       		.byte	22
ARM GAS  C:\Users\Usuario\AppData\Local\Temp\ccuOhWMm.s 			page 44


 1977 00e0 E9       		.byte	-23
 1978 00e1 B7       		.byte	-73
 1979 00e2 55       		.byte	85
 1980 00e3 0B       		.byte	11
 1981 00e4 88       		.byte	-120
 1982 00e5 D6       		.byte	-42
 1983 00e6 34       		.byte	52
 1984 00e7 6A       		.byte	106
 1985 00e8 2B       		.byte	43
 1986 00e9 75       		.byte	117
 1987 00ea 97       		.byte	-105
 1988 00eb C9       		.byte	-55
 1989 00ec 4A       		.byte	74
 1990 00ed 14       		.byte	20
 1991 00ee F6       		.byte	-10
 1992 00ef A8       		.byte	-88
 1993 00f0 74       		.byte	116
 1994 00f1 2A       		.byte	42
 1995 00f2 C8       		.byte	-56
 1996 00f3 96       		.byte	-106
 1997 00f4 15       		.byte	21
 1998 00f5 4B       		.byte	75
 1999 00f6 A9       		.byte	-87
 2000 00f7 F7       		.byte	-9
 2001 00f8 B6       		.byte	-74
 2002 00f9 E8       		.byte	-24
 2003 00fa 0A       		.byte	10
 2004 00fb 54       		.byte	84
 2005 00fc D7       		.byte	-41
 2006 00fd 89       		.byte	-119
 2007 00fe 6B       		.byte	107
 2008 00ff 35       		.byte	53
 2009              		.section	.text.verificar_check,"ax",%progbits
 2010              		.align	2
 2011              		.global	verificar_check
 2012              		.thumb
 2013              		.thumb_func
 2014              		.type	verificar_check, %function
 2015              	verificar_check:
 2016              	.LFB64:
 425:.\main.c      **** 
 426:.\main.c      **** 
 427:.\main.c      **** /*
 428:.\main.c      **** ***************************************************************************************************
 429:.\main.c      **** *                             uint8 verificar_check(uint8 *datos, uint16 size)
 430:.\main.c      **** *
 431:.\main.c      **** * Description : calcula el checksum
 432:.\main.c      **** *               
 433:.\main.c      **** 
 434:.\main.c      **** ***************************************************************************************************
 435:.\main.c      **** */
 436:.\main.c      **** uint8 verificar_check(uint8 *datos, uint16 size){
 2017              		.loc 1 436 0
 2018              		.cfi_startproc
 2019              		@ args = 0, pretend = 0, frame = 272
 2020              		@ frame_needed = 1, uses_anonymous_args = 0
 2021 0000 80B5     		push	{r7, lr}
ARM GAS  C:\Users\Usuario\AppData\Local\Temp\ccuOhWMm.s 			page 45


 2022              		.cfi_def_cfa_offset 8
 2023              		.cfi_offset 7, -8
 2024              		.cfi_offset 14, -4
 2025 0002 C4B0     		sub	sp, sp, #272
 2026              		.cfi_def_cfa_offset 280
 2027 0004 00AF     		add	r7, sp, #0
 2028              		.cfi_def_cfa_register 7
 2029 0006 3B1D     		adds	r3, r7, #4
 2030 0008 1860     		str	r0, [r3]
 2031 000a 0A46     		mov	r2, r1
 2032 000c BB1C     		adds	r3, r7, #2
 2033 000e 1A80     		strh	r2, [r3]	@ movhi
 437:.\main.c      **** 	uint8 checksum,index;
 438:.\main.c      **** 	uint16 i;
 439:.\main.c      ****     uint8 table[256] = { 
 2034              		.loc 1 439 0
 2035 0010 07F10803 		add	r3, r7, #8
 2036 0014 1A4A     		ldr	r2, .L138
 2037 0016 1946     		mov	r1, r3
 2038 0018 4FF48073 		mov	r3, #256
 2039 001c 0846     		mov	r0, r1
 2040 001e 1146     		mov	r1, r2
 2041 0020 1A46     		mov	r2, r3
 2042 0022 FFF7FEFF 		bl	memcpy
 440:.\main.c      ****     0, 94,188,226, 97, 63,221,131,194,156,126, 32,163,253, 31, 65,
 441:.\main.c      ****     157,195, 33,127,252,162, 64, 30, 95,  1,227,189, 62, 96,130,220,
 442:.\main.c      ****     35,125,159,193, 66, 28,254,160,225,191, 93,  3,128,222, 60, 98,
 443:.\main.c      ****     190,224,  2, 92,223,129, 99, 61,124, 34,192,158, 29, 67,161,255,
 444:.\main.c      ****     70, 24,250,164, 39,121,155,197,132,218, 56,102,229,187, 89,  7,
 445:.\main.c      ****     219,133,103, 57,186,228,  6, 88, 25, 71,165,251,120, 38,196,154,
 446:.\main.c      ****     101, 59,217,135,  4, 90,184,230,167,249, 27, 69,198,152,122, 36,
 447:.\main.c      ****     248,166, 68, 26,153,199, 37,123, 58,100,134,216, 91,  5,231,185,
 448:.\main.c      ****     140,210, 48,110,237,179, 81, 15, 78, 16,242,172, 47,113,147,205,
 449:.\main.c      ****     17, 79,173,243,112, 46,204,146,211,141,111, 49,178,236, 14, 80,
 450:.\main.c      ****     175,241, 19, 77,206,144,114, 44,109, 51,209,143, 12, 82,176,238,
 451:.\main.c      ****     50,108,142,208, 83, 13,239,177,240,174, 76, 18,145,207, 45,115,
 452:.\main.c      ****     202,148,118, 40,171,245, 23, 73,  8, 86,180,234,105, 55,213,139,
 453:.\main.c      ****     87,  9,235,181, 54,104,138,212,149,203, 41,119,244,170, 72, 22,
 454:.\main.c      ****     233,183, 85, 11,136,214, 52,106, 43,117,151,201, 74, 20,246,168,
 455:.\main.c      ****     116, 42,200,150, 21, 75,169,247,182,232, 10, 84,215,137,107, 53};	
 456:.\main.c      **** 	checksum=0;
 2043              		.loc 1 456 0
 2044 0026 0023     		movs	r3, #0
 2045 0028 87F80F31 		strb	r3, [r7, #271]
 457:.\main.c      **** 	for(i=0;i<(size-1);i++){
 2046              		.loc 1 457 0
 2047 002c 0023     		movs	r3, #0
 2048 002e A7F80C31 		strh	r3, [r7, #268]	@ movhi
 2049 0032 16E0     		b	.L135
 2050              	.L136:
 458:.\main.c      **** 		index = (uint8)(checksum ^ datos[i]);
 2051              		.loc 1 458 0 discriminator 3
 2052 0034 B7F80C31 		ldrh	r3, [r7, #268]
 2053 0038 3A1D     		adds	r2, r7, #4
 2054 003a 1268     		ldr	r2, [r2]
 2055 003c 1344     		add	r3, r3, r2
 2056 003e 1A78     		ldrb	r2, [r3]	@ zero_extendqisi2
ARM GAS  C:\Users\Usuario\AppData\Local\Temp\ccuOhWMm.s 			page 46


 2057 0040 97F80F31 		ldrb	r3, [r7, #271]
 2058 0044 5340     		eors	r3, r3, r2
 2059 0046 87F80B31 		strb	r3, [r7, #267]
 459:.\main.c      **** 		checksum = table[index];				
 2060              		.loc 1 459 0 discriminator 3
 2061 004a 97F80B31 		ldrb	r3, [r7, #267]	@ zero_extendqisi2
 2062 004e 07F10802 		add	r2, r7, #8
 2063 0052 D35C     		ldrb	r3, [r2, r3]
 2064 0054 87F80F31 		strb	r3, [r7, #271]
 457:.\main.c      **** 	for(i=0;i<(size-1);i++){
 2065              		.loc 1 457 0 discriminator 3
 2066 0058 B7F80C31 		ldrh	r3, [r7, #268]
 2067 005c 0133     		adds	r3, r3, #1
 2068 005e A7F80C31 		strh	r3, [r7, #268]	@ movhi
 2069              	.L135:
 457:.\main.c      **** 	for(i=0;i<(size-1);i++){
 2070              		.loc 1 457 0 is_stmt 0 discriminator 1
 2071 0062 B7F80C21 		ldrh	r2, [r7, #268]
 2072 0066 BB1C     		adds	r3, r7, #2
 2073 0068 1B88     		ldrh	r3, [r3]
 2074 006a 013B     		subs	r3, r3, #1
 2075 006c 9A42     		cmp	r2, r3
 2076 006e E1DB     		blt	.L136
 460:.\main.c      **** 	}
 461:.\main.c      **** 	return checksum;
 2077              		.loc 1 461 0 is_stmt 1
 2078 0070 97F80F31 		ldrb	r3, [r7, #271]	@ zero_extendqisi2
 462:.\main.c      **** }
 2079              		.loc 1 462 0
 2080 0074 1846     		mov	r0, r3
 2081 0076 07F58877 		add	r7, r7, #272
 2082              		.cfi_def_cfa_offset 8
 2083 007a BD46     		mov	sp, r7
 2084              		.cfi_def_cfa_register 13
 2085              		@ sp needed
 2086 007c 80BD     		pop	{r7, pc}
 2087              	.L139:
 2088 007e 00BF     		.align	2
 2089              	.L138:
 2090 0080 00000000 		.word	.LC0
 2091              		.cfi_endproc
 2092              	.LFE64:
 2093              		.size	verificar_check, .-verificar_check
 2094              		.section	.text.error_op,"ax",%progbits
 2095              		.align	2
 2096              		.global	error_op
 2097              		.thumb
 2098              		.thumb_func
 2099              		.type	error_op, %function
 2100              	error_op:
 2101              	.LFB65:
 463:.\main.c      **** 
 464:.\main.c      **** /*
 465:.\main.c      **** ***************************************************************************************************
 466:.\main.c      **** *                                         void error_op()
 467:.\main.c      **** *
 468:.\main.c      **** * Description : Muestra en la pantalla el mensaje de operacin incorrecta y regresa al inicio del 
ARM GAS  C:\Users\Usuario\AppData\Local\Temp\ccuOhWMm.s 			page 47


 469:.\main.c      **** *               
 470:.\main.c      **** *
 471:.\main.c      **** * Argument(s) : uint8 lcd, para elegir cual pantalla entra en esta funcin
 472:.\main.c      **** *
 473:.\main.c      **** * Return(s)   : none
 474:.\main.c      **** *
 475:.\main.c      **** * Caller(s)   : Desde cualquier momento de la operacion donde ocurra un error por parte del usuario
 476:.\main.c      **** *
 477:.\main.c      **** * Note(s)     : none.
 478:.\main.c      **** ***************************************************************************************************
 479:.\main.c      **** */
 480:.\main.c      **** void error_op(uint8 lcd, uint16 imagen){
 2102              		.loc 1 480 0
 2103              		.cfi_startproc
 2104              		@ args = 0, pretend = 0, frame = 8
 2105              		@ frame_needed = 1, uses_anonymous_args = 0
 2106 0000 80B5     		push	{r7, lr}
 2107              		.cfi_def_cfa_offset 8
 2108              		.cfi_offset 7, -8
 2109              		.cfi_offset 14, -4
 2110 0002 82B0     		sub	sp, sp, #8
 2111              		.cfi_def_cfa_offset 16
 2112 0004 00AF     		add	r7, sp, #0
 2113              		.cfi_def_cfa_register 7
 2114 0006 0346     		mov	r3, r0
 2115 0008 0A46     		mov	r2, r1
 2116 000a FB71     		strb	r3, [r7, #7]
 2117 000c 1346     		mov	r3, r2	@ movhi
 2118 000e BB80     		strh	r3, [r7, #4]	@ movhi
 481:.\main.c      **** 	if(lcd==1){
 2119              		.loc 1 481 0
 2120 0010 FB79     		ldrb	r3, [r7, #7]	@ zero_extendqisi2
 2121 0012 012B     		cmp	r3, #1
 2122 0014 13D1     		bne	.L141
 482:.\main.c      **** 	    set_imagen(1,imagen);
 2123              		.loc 1 482 0
 2124 0016 BB88     		ldrh	r3, [r7, #4]
 2125 0018 0120     		movs	r0, #1
 2126 001a 1946     		mov	r1, r3
 2127 001c FFF7FEFF 		bl	set_imagen
 483:.\main.c      **** 	    flujo_LCD1=100;
 2128              		.loc 1 483 0
 2129 0020 124B     		ldr	r3, .L143
 2130 0022 6422     		movs	r2, #100
 2131 0024 1A70     		strb	r2, [r3]
 484:.\main.c      **** 		flujo_LCD3=100;
 2132              		.loc 1 484 0
 2133 0026 124B     		ldr	r3, .L143+4
 2134 0028 6422     		movs	r2, #100
 2135 002a 1A70     		strb	r2, [r3]
 485:.\main.c      **** 		count_protector=1;
 2136              		.loc 1 485 0
 2137 002c 114B     		ldr	r3, .L143+8
 2138 002e 0122     		movs	r2, #1
 2139 0030 1A70     		strb	r2, [r3]
 486:.\main.c      **** 	    isr_3_StartEx(animacion);  
 2140              		.loc 1 486 0
ARM GAS  C:\Users\Usuario\AppData\Local\Temp\ccuOhWMm.s 			page 48


 2141 0032 1148     		ldr	r0, .L143+12
 2142 0034 FFF7FEFF 		bl	isr_3_StartEx
 487:.\main.c      **** 	    Timer_Animacion_Start();
 2143              		.loc 1 487 0
 2144 0038 FFF7FEFF 		bl	Timer_Animacion_Start
 2145 003c 12E0     		b	.L140
 2146              	.L141:
 488:.\main.c      **** 	}
 489:.\main.c      **** 	else{
 490:.\main.c      **** 	    set_imagen(2,imagen);
 2147              		.loc 1 490 0
 2148 003e BB88     		ldrh	r3, [r7, #4]
 2149 0040 0220     		movs	r0, #2
 2150 0042 1946     		mov	r1, r3
 2151 0044 FFF7FEFF 		bl	set_imagen
 491:.\main.c      **** 	    flujo_LCD2=100;
 2152              		.loc 1 491 0
 2153 0048 0C4B     		ldr	r3, .L143+16
 2154 004a 6422     		movs	r2, #100
 2155 004c 1A70     		strb	r2, [r3]
 492:.\main.c      **** 		flujo_LCD4=100;
 2156              		.loc 1 492 0
 2157 004e 0C4B     		ldr	r3, .L143+20
 2158 0050 6422     		movs	r2, #100
 2159 0052 1A70     		strb	r2, [r3]
 493:.\main.c      **** 		count_protector2=1;
 2160              		.loc 1 493 0
 2161 0054 0B4B     		ldr	r3, .L143+24
 2162 0056 0122     		movs	r2, #1
 2163 0058 1A70     		strb	r2, [r3]
 494:.\main.c      **** 	    isr_4_StartEx(animacion2);  
 2164              		.loc 1 494 0
 2165 005a 0B48     		ldr	r0, .L143+28
 2166 005c FFF7FEFF 		bl	isr_4_StartEx
 495:.\main.c      **** 	    Timer_Animacion2_Start();	
 2167              		.loc 1 495 0
 2168 0060 FFF7FEFF 		bl	Timer_Animacion2_Start
 2169              	.L140:
 496:.\main.c      **** 	}
 497:.\main.c      **** }
 2170              		.loc 1 497 0
 2171 0064 0837     		adds	r7, r7, #8
 2172              		.cfi_def_cfa_offset 8
 2173 0066 BD46     		mov	sp, r7
 2174              		.cfi_def_cfa_register 13
 2175              		@ sp needed
 2176 0068 80BD     		pop	{r7, pc}
 2177              	.L144:
 2178 006a 00BF     		.align	2
 2179              	.L143:
 2180 006c 00000000 		.word	flujo_LCD1
 2181 0070 00000000 		.word	flujo_LCD3
 2182 0074 00000000 		.word	count_protector
 2183 0078 00000000 		.word	animacion
 2184 007c 00000000 		.word	flujo_LCD2
 2185 0080 00000000 		.word	flujo_LCD4
 2186 0084 00000000 		.word	count_protector2
ARM GAS  C:\Users\Usuario\AppData\Local\Temp\ccuOhWMm.s 			page 49


 2187 0088 00000000 		.word	animacion2
 2188              		.cfi_endproc
 2189              	.LFE65:
 2190              		.size	error_op, .-error_op
 2191              		.section	.text.init_surt,"ax",%progbits
 2192              		.align	2
 2193              		.global	init_surt
 2194              		.thumb
 2195              		.thumb_func
 2196              		.type	init_surt, %function
 2197              	init_surt:
 2198              	.LFB66:
 498:.\main.c      **** 
 499:.\main.c      **** /*
 500:.\main.c      **** ***************************************************************************************************
 501:.\main.c      **** *                                         init_surt( void )
 502:.\main.c      **** *
 503:.\main.c      **** * Description : Busca las posiciones del surtidor y las graba en lado.a.dir y lado.b.dir
 504:.\main.c      **** *               
 505:.\main.c      **** *
 506:.\main.c      **** * Argument(s) : none
 507:.\main.c      **** *
 508:.\main.c      **** * Return(s)   : none
 509:.\main.c      **** *
 510:.\main.c      **** * Caller(s)   : main()
 511:.\main.c      **** *
 512:.\main.c      **** * Note(s)     : Falta generar codigo para los casos 1 y 2
 513:.\main.c      **** ***************************************************************************************************
 514:.\main.c      **** */
 515:.\main.c      **** void init_surt(void){
 2199              		.loc 1 515 0
 2200              		.cfi_startproc
 2201              		@ args = 0, pretend = 0, frame = 16
 2202              		@ frame_needed = 1, uses_anonymous_args = 0
 2203 0000 80B5     		push	{r7, lr}
 2204              		.cfi_def_cfa_offset 8
 2205              		.cfi_offset 7, -8
 2206              		.cfi_offset 14, -4
 2207 0002 84B0     		sub	sp, sp, #16
 2208              		.cfi_def_cfa_offset 24
 2209 0004 00AF     		add	r7, sp, #0
 2210              		.cfi_def_cfa_register 7
 516:.\main.c      **** 	uint8  ok=0, aux[15];
 2211              		.loc 1 516 0
 2212 0006 0023     		movs	r3, #0
 2213 0008 FB73     		strb	r3, [r7, #15]
 517:.\main.c      ****     /*lado1.dir=1;
 518:.\main.c      ****     lado2.dir=2;*/
 519:.\main.c      **** 	while(ok!=2){
 2214              		.loc 1 519 0
 2215 000a CAE0     		b	.L146
 2216              	.L156:
 520:.\main.c      **** 		ok=0;
 2217              		.loc 1 520 0
 2218 000c 0023     		movs	r3, #0
 2219 000e FB73     		strb	r3, [r7, #15]
 521:.\main.c      **** 		//if((lado1.dir==0xFF)||(lado2.dir==0xFF)||(lado3.dir==0xFF)||(lado4.dir==0xFF)){
ARM GAS  C:\Users\Usuario\AppData\Local\Temp\ccuOhWMm.s 			page 50


 522:.\main.c      **** 			while(ver_pos()==0);
 2220              		.loc 1 522 0
 2221 0010 00BF     		nop
 2222              	.L147:
 2223              		.loc 1 522 0 is_stmt 0 discriminator 1
 2224 0012 FFF7FEFF 		bl	ver_pos
 2225 0016 0346     		mov	r3, r0
 2226 0018 002B     		cmp	r3, #0
 2227 001a FAD0     		beq	.L147
 523:.\main.c      **** 			CyDelay(50);
 2228              		.loc 1 523 0 is_stmt 1
 2229 001c 3220     		movs	r0, #50
 2230 001e FFF7FEFF 		bl	CyDelay
 524:.\main.c      **** 			totales(lado1.dir, lado1.mangueras);
 2231              		.loc 1 524 0
 2232 0022 634B     		ldr	r3, .L157
 2233 0024 1B78     		ldrb	r3, [r3]
 2234 0026 DAB2     		uxtb	r2, r3
 2235 0028 614B     		ldr	r3, .L157
 2236 002a 93F85C30 		ldrb	r3, [r3, #92]
 2237 002e DBB2     		uxtb	r3, r3
 2238 0030 1046     		mov	r0, r2
 2239 0032 1946     		mov	r1, r3
 2240 0034 FFF7FEFF 		bl	totales
 525:.\main.c      **** 			CyDelay(50);	
 2241              		.loc 1 525 0
 2242 0038 3220     		movs	r0, #50
 2243 003a FFF7FEFF 		bl	CyDelay
 526:.\main.c      **** 			totales(lado2.dir, lado2.mangueras);
 2244              		.loc 1 526 0
 2245 003e 5D4B     		ldr	r3, .L157+4
 2246 0040 1B78     		ldrb	r3, [r3]
 2247 0042 DAB2     		uxtb	r2, r3
 2248 0044 5B4B     		ldr	r3, .L157+4
 2249 0046 93F85C30 		ldrb	r3, [r3, #92]
 2250 004a DBB2     		uxtb	r3, r3
 2251 004c 1046     		mov	r0, r2
 2252 004e 1946     		mov	r1, r3
 2253 0050 FFF7FEFF 		bl	totales
 527:.\main.c      **** 			CyDelay(50);
 2254              		.loc 1 527 0
 2255 0054 3220     		movs	r0, #50
 2256 0056 FFF7FEFF 		bl	CyDelay
 528:.\main.c      **** 			totales(lado3.dir, lado3.mangueras);
 2257              		.loc 1 528 0
 2258 005a 574B     		ldr	r3, .L157+8
 2259 005c 1B78     		ldrb	r3, [r3]
 2260 005e DAB2     		uxtb	r2, r3
 2261 0060 554B     		ldr	r3, .L157+8
 2262 0062 93F85C30 		ldrb	r3, [r3, #92]
 2263 0066 DBB2     		uxtb	r3, r3
 2264 0068 1046     		mov	r0, r2
 2265 006a 1946     		mov	r1, r3
 2266 006c FFF7FEFF 		bl	totales
 529:.\main.c      **** 			CyDelay(50);
 2267              		.loc 1 529 0
 2268 0070 3220     		movs	r0, #50
ARM GAS  C:\Users\Usuario\AppData\Local\Temp\ccuOhWMm.s 			page 51


 2269 0072 FFF7FEFF 		bl	CyDelay
 530:.\main.c      **** 			totales(lado4.dir, lado4.mangueras);
 2270              		.loc 1 530 0
 2271 0076 514B     		ldr	r3, .L157+12
 2272 0078 1B78     		ldrb	r3, [r3]
 2273 007a DAB2     		uxtb	r2, r3
 2274 007c 4F4B     		ldr	r3, .L157+12
 2275 007e 93F85C30 		ldrb	r3, [r3, #92]
 2276 0082 DBB2     		uxtb	r3, r3
 2277 0084 1046     		mov	r0, r2
 2278 0086 1946     		mov	r1, r3
 2279 0088 FFF7FEFF 		bl	totales
 531:.\main.c      **** 			CyDelay(50);			
 2280              		.loc 1 531 0
 2281 008c 3220     		movs	r0, #50
 2282 008e FFF7FEFF 		bl	CyDelay
 532:.\main.c      **** 			aux[0]=1;
 2283              		.loc 1 532 0
 2284 0092 0123     		movs	r3, #1
 2285 0094 3B70     		strb	r3, [r7]
 533:.\main.c      **** 			aux[1]=lado1.dir;
 2286              		.loc 1 533 0
 2287 0096 464B     		ldr	r3, .L157
 2288 0098 1B78     		ldrb	r3, [r3]
 2289 009a DBB2     		uxtb	r3, r3
 2290 009c 7B70     		strb	r3, [r7, #1]
 534:.\main.c      **** 			if(write_eeprom(608,aux)){
 2291              		.loc 1 534 0
 2292 009e 3B46     		mov	r3, r7
 2293 00a0 4FF41870 		mov	r0, #608
 2294 00a4 1946     		mov	r1, r3
 2295 00a6 FFF7FEFF 		bl	write_eeprom
 2296 00aa 0346     		mov	r3, r0
 2297 00ac 002B     		cmp	r3, #0
 2298 00ae 04D0     		beq	.L148
 535:.\main.c      **** 				set_imagen(1,60);								
 2299              		.loc 1 535 0
 2300 00b0 0120     		movs	r0, #1
 2301 00b2 3C21     		movs	r1, #60
 2302 00b4 FFF7FEFF 		bl	set_imagen
 2303 00b8 03E0     		b	.L149
 2304              	.L148:
 536:.\main.c      **** 			}
 537:.\main.c      **** 			else{
 538:.\main.c      **** 				set_imagen(1,85);
 2305              		.loc 1 538 0
 2306 00ba 0120     		movs	r0, #1
 2307 00bc 5521     		movs	r1, #85
 2308 00be FFF7FEFF 		bl	set_imagen
 2309              	.L149:
 539:.\main.c      **** 			}
 540:.\main.c      **** 			aux[0]=1;
 2310              		.loc 1 540 0
 2311 00c2 0123     		movs	r3, #1
 2312 00c4 3B70     		strb	r3, [r7]
 541:.\main.c      **** 			aux[1]=lado2.dir;
 2313              		.loc 1 541 0
ARM GAS  C:\Users\Usuario\AppData\Local\Temp\ccuOhWMm.s 			page 52


 2314 00c6 3B4B     		ldr	r3, .L157+4
 2315 00c8 1B78     		ldrb	r3, [r3]
 2316 00ca DBB2     		uxtb	r3, r3
 2317 00cc 7B70     		strb	r3, [r7, #1]
 542:.\main.c      **** 			if(write_eeprom(610,aux)){
 2318              		.loc 1 542 0
 2319 00ce 3B46     		mov	r3, r7
 2320 00d0 40F26220 		movw	r0, #610
 2321 00d4 1946     		mov	r1, r3
 2322 00d6 FFF7FEFF 		bl	write_eeprom
 2323 00da 0346     		mov	r3, r0
 2324 00dc 002B     		cmp	r3, #0
 2325 00de 04D0     		beq	.L150
 543:.\main.c      **** 				set_imagen(2,60);								
 2326              		.loc 1 543 0
 2327 00e0 0220     		movs	r0, #2
 2328 00e2 3C21     		movs	r1, #60
 2329 00e4 FFF7FEFF 		bl	set_imagen
 2330 00e8 03E0     		b	.L151
 2331              	.L150:
 544:.\main.c      **** 			}
 545:.\main.c      **** 			else{
 546:.\main.c      **** 				set_imagen(2,85);
 2332              		.loc 1 546 0
 2333 00ea 0220     		movs	r0, #2
 2334 00ec 5521     		movs	r1, #85
 2335 00ee FFF7FEFF 		bl	set_imagen
 2336              	.L151:
 547:.\main.c      **** 			}
 548:.\main.c      **** 			aux[0]=1;
 2337              		.loc 1 548 0
 2338 00f2 0123     		movs	r3, #1
 2339 00f4 3B70     		strb	r3, [r7]
 549:.\main.c      **** 			aux[1]=lado3.dir;
 2340              		.loc 1 549 0
 2341 00f6 304B     		ldr	r3, .L157+8
 2342 00f8 1B78     		ldrb	r3, [r3]
 2343 00fa DBB2     		uxtb	r3, r3
 2344 00fc 7B70     		strb	r3, [r7, #1]
 550:.\main.c      **** 			if(write_eeprom(804,aux)){
 2345              		.loc 1 550 0
 2346 00fe 3B46     		mov	r3, r7
 2347 0100 4FF44970 		mov	r0, #804
 2348 0104 1946     		mov	r1, r3
 2349 0106 FFF7FEFF 		bl	write_eeprom
 2350 010a 0346     		mov	r3, r0
 2351 010c 002B     		cmp	r3, #0
 2352 010e 04D0     		beq	.L152
 551:.\main.c      **** 				set_imagen(1,60);								
 2353              		.loc 1 551 0
 2354 0110 0120     		movs	r0, #1
 2355 0112 3C21     		movs	r1, #60
 2356 0114 FFF7FEFF 		bl	set_imagen
 2357 0118 03E0     		b	.L153
 2358              	.L152:
 552:.\main.c      **** 			}
 553:.\main.c      **** 			else{
ARM GAS  C:\Users\Usuario\AppData\Local\Temp\ccuOhWMm.s 			page 53


 554:.\main.c      **** 				set_imagen(1,85);
 2359              		.loc 1 554 0
 2360 011a 0120     		movs	r0, #1
 2361 011c 5521     		movs	r1, #85
 2362 011e FFF7FEFF 		bl	set_imagen
 2363              	.L153:
 555:.\main.c      **** 			}
 556:.\main.c      **** 			aux[0]=1;
 2364              		.loc 1 556 0
 2365 0122 0123     		movs	r3, #1
 2366 0124 3B70     		strb	r3, [r7]
 557:.\main.c      **** 			aux[1]=lado4.dir;
 2367              		.loc 1 557 0
 2368 0126 254B     		ldr	r3, .L157+12
 2369 0128 1B78     		ldrb	r3, [r3]
 2370 012a DBB2     		uxtb	r3, r3
 2371 012c 7B70     		strb	r3, [r7, #1]
 558:.\main.c      **** 			if(write_eeprom(806,aux)){
 2372              		.loc 1 558 0
 2373 012e 3B46     		mov	r3, r7
 2374 0130 40F22630 		movw	r0, #806
 2375 0134 1946     		mov	r1, r3
 2376 0136 FFF7FEFF 		bl	write_eeprom
 2377 013a 0346     		mov	r3, r0
 2378 013c 002B     		cmp	r3, #0
 2379 013e 04D0     		beq	.L154
 559:.\main.c      **** 				set_imagen(2,60);								
 2380              		.loc 1 559 0
 2381 0140 0220     		movs	r0, #2
 2382 0142 3C21     		movs	r1, #60
 2383 0144 FFF7FEFF 		bl	set_imagen
 2384 0148 03E0     		b	.L155
 2385              	.L154:
 560:.\main.c      **** 			}
 561:.\main.c      **** 			else{
 562:.\main.c      **** 				set_imagen(2,85);
 2386              		.loc 1 562 0
 2387 014a 0220     		movs	r0, #2
 2388 014c 5521     		movs	r1, #85
 2389 014e FFF7FEFF 		bl	set_imagen
 2390              	.L155:
 563:.\main.c      **** 			}			
 564:.\main.c      **** 			flujo_LCD1=0;
 2391              		.loc 1 564 0
 2392 0152 1B4B     		ldr	r3, .L157+16
 2393 0154 0022     		movs	r2, #0
 2394 0156 1A70     		strb	r2, [r3]
 565:.\main.c      **** 			flujo_LCD2=0;
 2395              		.loc 1 565 0
 2396 0158 1A4B     		ldr	r3, .L157+20
 2397 015a 0022     		movs	r2, #0
 2398 015c 1A70     		strb	r2, [r3]
 566:.\main.c      **** 			flujo_LCD3=0;
 2399              		.loc 1 566 0
 2400 015e 1A4B     		ldr	r3, .L157+24
 2401 0160 0022     		movs	r2, #0
 2402 0162 1A70     		strb	r2, [r3]
ARM GAS  C:\Users\Usuario\AppData\Local\Temp\ccuOhWMm.s 			page 54


 567:.\main.c      **** 			flujo_LCD4=0;
 2403              		.loc 1 567 0
 2404 0164 194B     		ldr	r3, .L157+28
 2405 0166 0022     		movs	r2, #0
 2406 0168 1A70     		strb	r2, [r3]
 568:.\main.c      **** 			set_imagen(2,46);				//Pos A y B
 2407              		.loc 1 568 0
 2408 016a 0220     		movs	r0, #2
 2409 016c 2E21     		movs	r1, #46
 2410 016e FFF7FEFF 		bl	set_imagen
 569:.\main.c      **** 			set_imagen(1,46);
 2411              		.loc 1 569 0
 2412 0172 0120     		movs	r0, #1
 2413 0174 2E21     		movs	r1, #46
 2414 0176 FFF7FEFF 		bl	set_imagen
 570:.\main.c      **** 			estado_lcd1=0;
 2415              		.loc 1 570 0
 2416 017a 154B     		ldr	r3, .L157+32
 2417 017c 0022     		movs	r2, #0
 2418 017e 1A70     		strb	r2, [r3]
 571:.\main.c      **** 			estado_lcd2=0;
 2419              		.loc 1 571 0
 2420 0180 144B     		ldr	r3, .L157+36
 2421 0182 0022     		movs	r2, #0
 2422 0184 1A70     		strb	r2, [r3]
 572:.\main.c      **** 			estado_pos[0]=0;
 2423              		.loc 1 572 0
 2424 0186 144B     		ldr	r3, .L157+40
 2425 0188 0022     		movs	r2, #0
 2426 018a 1A70     		strb	r2, [r3]
 573:.\main.c      **** 			estado_pos[1]=0;
 2427              		.loc 1 573 0
 2428 018c 124B     		ldr	r3, .L157+40
 2429 018e 0022     		movs	r2, #0
 2430 0190 5A70     		strb	r2, [r3, #1]
 574:.\main.c      **** 			estado_pos[2]=0;
 2431              		.loc 1 574 0
 2432 0192 114B     		ldr	r3, .L157+40
 2433 0194 0022     		movs	r2, #0
 2434 0196 9A70     		strb	r2, [r3, #2]
 575:.\main.c      **** 			estado_pos[3]=0;
 2435              		.loc 1 575 0
 2436 0198 0F4B     		ldr	r3, .L157+40
 2437 019a 0022     		movs	r2, #0
 2438 019c DA70     		strb	r2, [r3, #3]
 576:.\main.c      **** 			ok=2;			
 2439              		.loc 1 576 0
 2440 019e 0223     		movs	r3, #2
 2441 01a0 FB73     		strb	r3, [r7, #15]
 2442              	.L146:
 519:.\main.c      **** 		ok=0;
 2443              		.loc 1 519 0
 2444 01a2 FB7B     		ldrb	r3, [r7, #15]	@ zero_extendqisi2
 2445 01a4 022B     		cmp	r3, #2
 2446 01a6 7FF431AF 		bne	.L156
 577:.\main.c      **** 		//}
 578:.\main.c      **** 		/*else{
ARM GAS  C:\Users\Usuario\AppData\Local\Temp\ccuOhWMm.s 			page 55


 579:.\main.c      **** 			set_imagen(2,46);				//Pos A y B
 580:.\main.c      **** 			set_imagen(1,46);
 581:.\main.c      **** 			flujo_LCD2=0;
 582:.\main.c      **** 			flujo_LCD1=0;
 583:.\main.c      **** 			flujo_LCD3=0;
 584:.\main.c      **** 			flujo_LCD4=0;			
 585:.\main.c      **** 			ok=2;
 586:.\main.c      **** 		}*/
 587:.\main.c      **** 		/*else{
 588:.\main.c      **** 			estado=get_estado(lado1.dir);										
 589:.\main.c      **** 			switch(estado){
 590:.\main.c      **** 		         case 0:                     
 591:.\main.c      **** 					lado1.dir=0xFF;
 592:.\main.c      **** 				 break;	
 593:.\main.c      **** 			
 594:.\main.c      **** 				case 0x06:
 595:.\main.c      **** 					venta(lado1.dir);
 596:.\main.c      **** 					CyDelay(50);	
 597:.\main.c      **** 					totales(lado1.dir, lado1.mangueras);
 598:.\main.c      **** 					CyDelay(50);	
 599:.\main.c      **** 					flujo_LCD1=0;					
 600:.\main.c      **** 					ok++;
 601:.\main.c      **** 				break;
 602:.\main.c      **** 					
 603:.\main.c      **** 				case 0x07:	
 604:.\main.c      **** 					totales(lado1.dir, lado1.mangueras);
 605:.\main.c      **** 					CyDelay(50);	
 606:.\main.c      **** 					flujo_LCD1=0;					
 607:.\main.c      **** 					ok++;
 608:.\main.c      **** 				break;
 609:.\main.c      **** 				
 610:.\main.c      **** 				case 0x08:
 611:.\main.c      **** 			     	flujo_LCD1=11;
 612:.\main.c      **** 					ok++;
 613:.\main.c      **** 				break;
 614:.\main.c      **** 					
 615:.\main.c      **** 				case 0x09:
 616:.\main.c      **** 			     	flujo_LCD1=11;
 617:.\main.c      **** 					ok++;
 618:.\main.c      **** 				break;
 619:.\main.c      **** 				
 620:.\main.c      **** 		         case 0x0B:                     //Termino venta
 621:.\main.c      **** 					flujo_LCD1=12;
 622:.\main.c      **** 					ok++;
 623:.\main.c      **** 				 break;	
 624:.\main.c      **** 					
 625:.\main.c      **** 		         case 0x0A:						//Termino venta
 626:.\main.c      **** 					flujo_LCD1=12;
 627:.\main.c      **** 					ok++;
 628:.\main.c      **** 				 break;
 629:.\main.c      **** 					
 630:.\main.c      **** 		         case 0x0C:						//Bloqueado por surtiendo al iniciar
 631:.\main.c      **** 			     	flujo_LCD1=11;
 632:.\main.c      **** 				 	set_imagen(1,8);
 633:.\main.c      **** 					ok++;
 634:.\main.c      **** 				 break;					
 635:.\main.c      **** 					
ARM GAS  C:\Users\Usuario\AppData\Local\Temp\ccuOhWMm.s 			page 56


 636:.\main.c      **** 			}
 637:.\main.c      **** 			estado=get_estado(lado2.dir);										
 638:.\main.c      **** 			switch(estado){
 639:.\main.c      **** 		         case 0:                     
 640:.\main.c      **** 					lado2.dir=0xFF;
 641:.\main.c      **** 				 break;	
 642:.\main.c      **** 			
 643:.\main.c      **** 				case 0x06:
 644:.\main.c      **** 					venta(lado2.dir);
 645:.\main.c      **** 					CyDelay(50);		
 646:.\main.c      **** 					totales(lado2.dir, lado2.mangueras);
 647:.\main.c      **** 					CyDelay(50);	
 648:.\main.c      **** 					flujo_LCD2=0;				
 649:.\main.c      **** 					ok++;
 650:.\main.c      **** 				break;
 651:.\main.c      **** 					
 652:.\main.c      **** 				case 0x07:	
 653:.\main.c      **** 					totales(lado2.dir, lado2.mangueras);
 654:.\main.c      **** 					CyDelay(50);	
 655:.\main.c      **** 					flujo_LCD2=0;					
 656:.\main.c      **** 					ok++;
 657:.\main.c      **** 				break;
 658:.\main.c      **** 				
 659:.\main.c      **** 				case 0x08:
 660:.\main.c      **** 			     	flujo_LCD2=11;
 661:.\main.c      **** 				 	set_imagen(2,8);
 662:.\main.c      **** 					ok++;
 663:.\main.c      **** 				break;
 664:.\main.c      **** 					
 665:.\main.c      **** 				case 0x09:
 666:.\main.c      **** 			     	flujo_LCD2=11;
 667:.\main.c      **** 				 	set_imagen(2,8);
 668:.\main.c      **** 					ok++;
 669:.\main.c      **** 				break;
 670:.\main.c      **** 				
 671:.\main.c      **** 		         case 0x0B:                     //Termino venta
 672:.\main.c      **** 					flujo_LCD2=12;
 673:.\main.c      **** 					ok++;
 674:.\main.c      **** 				 break;	
 675:.\main.c      **** 					
 676:.\main.c      **** 		         case 0x0A:						//Termino venta
 677:.\main.c      **** 					flujo_LCD2=12;
 678:.\main.c      **** 					ok++;
 679:.\main.c      **** 				 break;
 680:.\main.c      **** 					
 681:.\main.c      **** 		         case 0x0C:						//Bloqueado por surtiendo al iniciar
 682:.\main.c      **** 			     	flujo_LCD2=11;
 683:.\main.c      **** 				 	set_imagen(2,8);
 684:.\main.c      **** 					ok++;
 685:.\main.c      **** 				 break;										
 686:.\main.c      **** 			}			
 687:.\main.c      **** 		}*/
 688:.\main.c      **** 	}
 689:.\main.c      **** }
 2447              		.loc 1 689 0
 2448 01aa 1037     		adds	r7, r7, #16
 2449              		.cfi_def_cfa_offset 8
ARM GAS  C:\Users\Usuario\AppData\Local\Temp\ccuOhWMm.s 			page 57


 2450 01ac BD46     		mov	sp, r7
 2451              		.cfi_def_cfa_register 13
 2452              		@ sp needed
 2453 01ae 80BD     		pop	{r7, pc}
 2454              	.L158:
 2455              		.align	2
 2456              	.L157:
 2457 01b0 00000000 		.word	lado1
 2458 01b4 00000000 		.word	lado2
 2459 01b8 00000000 		.word	lado3
 2460 01bc 00000000 		.word	lado4
 2461 01c0 00000000 		.word	flujo_LCD1
 2462 01c4 00000000 		.word	flujo_LCD2
 2463 01c8 00000000 		.word	flujo_LCD3
 2464 01cc 00000000 		.word	flujo_LCD4
 2465 01d0 00000000 		.word	estado_lcd1
 2466 01d4 00000000 		.word	estado_lcd2
 2467 01d8 00000000 		.word	estado_pos
 2468              		.cfi_endproc
 2469              	.LFE66:
 2470              		.size	init_surt, .-init_surt
 2471              		.section	.text.polling_rf,"ax",%progbits
 2472              		.align	2
 2473              		.global	polling_rf
 2474              		.thumb
 2475              		.thumb_func
 2476              		.type	polling_rf, %function
 2477              	polling_rf:
 2478              	.LFB67:
 690:.\main.c      **** 
 691:.\main.c      **** /*
 692:.\main.c      **** ***************************************************************************************************
 693:.\main.c      **** *                                         uint8 polling_rf(void)
 694:.\main.c      **** *
 695:.\main.c      **** * Description : 
 696:.\main.c      **** *               
 697:.\main.c      **** *
 698:.\main.c      **** * Argument(s) : none
 699:.\main.c      **** *
 700:.\main.c      **** * Return(s)   : none
 701:.\main.c      **** *
 702:.\main.c      **** * Caller(s)   : 
 703:.\main.c      **** *
 704:.\main.c      **** * Note(s)     : none.
 705:.\main.c      **** ***************************************************************************************************
 706:.\main.c      **** */
 707:.\main.c      **** 
 708:.\main.c      **** void polling_rf(void){
 2479              		.loc 1 708 0
 2480              		.cfi_startproc
 2481              		@ args = 0, pretend = 0, frame = 1528
 2482              		@ frame_needed = 1, uses_anonymous_args = 0
 2483 0000 90B5     		push	{r4, r7, lr}
 2484              		.cfi_def_cfa_offset 12
 2485              		.cfi_offset 4, -12
 2486              		.cfi_offset 7, -8
 2487              		.cfi_offset 14, -4
ARM GAS  C:\Users\Usuario\AppData\Local\Temp\ccuOhWMm.s 			page 58


 2488 0002 ADF2FC5D 		subw	sp, sp, #1532
 2489              		.cfi_def_cfa_offset 1544
 2490 0006 00AF     		add	r7, sp, #0
 2491              		.cfi_def_cfa_register 7
 709:.\main.c      **** 	uint16 status1, status2,size,i,x;
 710:.\main.c      **** 	uint8  buffer_rf[1500],aux[15],programar_ok;
 711:.\main.c      **** 	if(PC_GetRxBufferSize()>=6){
 2492              		.loc 1 711 0
 2493 0008 FFF7FEFF 		bl	PC_GetRxBufferSize
 2494 000c 0346     		mov	r3, r0
 2495 000e 052B     		cmp	r3, #5
 2496 0010 46F28E81 		bls	.L159
 712:.\main.c      **** 		status1=PC_GetRxBufferSize();
 2497              		.loc 1 712 0
 2498 0014 FFF7FEFF 		bl	PC_GetRxBufferSize
 2499 0018 0346     		mov	r3, r0
 2500 001a A7F8EE35 		strh	r3, [r7, #1518]	@ movhi
 713:.\main.c      **** 		CyDelayUs(3000);
 2501              		.loc 1 713 0
 2502 001e 40F6B830 		movw	r0, #3000
 2503 0022 FFF7FEFF 		bl	CyDelayUs
 714:.\main.c      **** 		status2=PC_GetRxBufferSize();
 2504              		.loc 1 714 0
 2505 0026 FFF7FEFF 		bl	PC_GetRxBufferSize
 2506 002a 0346     		mov	r3, r0
 2507 002c A7F8EC35 		strh	r3, [r7, #1516]	@ movhi
 715:.\main.c      **** 		if(status1==status2){
 2508              		.loc 1 715 0
 2509 0030 B7F8EE25 		ldrh	r2, [r7, #1518]
 2510 0034 B7F8EC35 		ldrh	r3, [r7, #1516]
 2511 0038 9A42     		cmp	r2, r3
 2512 003a 46F07981 		bne	.L159
 716:.\main.c      **** 			size=PC_GetRxBufferSize();
 2513              		.loc 1 716 0
 2514 003e FFF7FEFF 		bl	PC_GetRxBufferSize
 2515 0042 0346     		mov	r3, r0
 2516 0044 A7F8F635 		strh	r3, [r7, #1526]	@ movhi
 717:.\main.c      **** 			i=0;
 2517              		.loc 1 717 0
 2518 0048 0023     		movs	r3, #0
 2519 004a A7F8F435 		strh	r3, [r7, #1524]	@ movhi
 718:.\main.c      **** 		    while(PC_GetRxBufferSize()>0){
 2520              		.loc 1 718 0
 2521 004e 0DE0     		b	.L161
 2522              	.L162:
 719:.\main.c      **** 		       buffer_rf[i]=PC_ReadRxData(); 	
 2523              		.loc 1 719 0
 2524 0050 B7F8F445 		ldrh	r4, [r7, #1524]
 2525 0054 FFF7FEFF 		bl	PC_ReadRxData
 2526 0058 0346     		mov	r3, r0
 2527 005a 1A46     		mov	r2, r3
 2528 005c 07F11003 		add	r3, r7, #16
 2529 0060 1A55     		strb	r2, [r3, r4]
 720:.\main.c      **** 			   i++;	
 2530              		.loc 1 720 0
 2531 0062 B7F8F435 		ldrh	r3, [r7, #1524]
 2532 0066 0133     		adds	r3, r3, #1
ARM GAS  C:\Users\Usuario\AppData\Local\Temp\ccuOhWMm.s 			page 59


 2533 0068 A7F8F435 		strh	r3, [r7, #1524]	@ movhi
 2534              	.L161:
 718:.\main.c      **** 		    while(PC_GetRxBufferSize()>0){
 2535              		.loc 1 718 0
 2536 006c FFF7FEFF 		bl	PC_GetRxBufferSize
 2537 0070 0346     		mov	r3, r0
 2538 0072 002B     		cmp	r3, #0
 2539 0074 ECD1     		bne	.L162
 721:.\main.c      **** 		    }			
 722:.\main.c      **** 			if((buffer_rf[0]==0xBC)&&(buffer_rf[1]==0xBB)&&(buffer_rf[2]==0xB8)){
 2540              		.loc 1 722 0
 2541 0076 07F11003 		add	r3, r7, #16
 2542 007a 1B78     		ldrb	r3, [r3]	@ zero_extendqisi2
 2543 007c BC2B     		cmp	r3, #188
 2544 007e 46F04F81 		bne	.L163
 2545              		.loc 1 722 0 is_stmt 0 discriminator 1
 2546 0082 07F11003 		add	r3, r7, #16
 2547 0086 5B78     		ldrb	r3, [r3, #1]	@ zero_extendqisi2
 2548 0088 BB2B     		cmp	r3, #187
 2549 008a 46F04981 		bne	.L163
 2550              		.loc 1 722 0 discriminator 2
 2551 008e 07F11003 		add	r3, r7, #16
 2552 0092 9B78     		ldrb	r3, [r3, #2]	@ zero_extendqisi2
 2553 0094 B82B     		cmp	r3, #184
 2554 0096 46F04381 		bne	.L163
 723:.\main.c      **** 				if((buffer_rf[3]==lado1.dir)||(buffer_rf[3]==lado2.dir)||(buffer_rf[3]==lado3.dir)||(buffer_rf[
 2555              		.loc 1 723 0 is_stmt 1
 2556 009a 07F11003 		add	r3, r7, #16
 2557 009e DA78     		ldrb	r2, [r3, #3]	@ zero_extendqisi2
 2558 00a0 BE4B     		ldr	r3, .L814
 2559 00a2 1B78     		ldrb	r3, [r3]
 2560 00a4 DBB2     		uxtb	r3, r3
 2561 00a6 9A42     		cmp	r2, r3
 2562 00a8 18D0     		beq	.L164
 2563              		.loc 1 723 0 is_stmt 0 discriminator 1
 2564 00aa 07F11003 		add	r3, r7, #16
 2565 00ae DA78     		ldrb	r2, [r3, #3]	@ zero_extendqisi2
 2566 00b0 BB4B     		ldr	r3, .L814+4
 2567 00b2 1B78     		ldrb	r3, [r3]
 2568 00b4 DBB2     		uxtb	r3, r3
 2569 00b6 9A42     		cmp	r2, r3
 2570 00b8 10D0     		beq	.L164
 2571              		.loc 1 723 0 discriminator 2
 2572 00ba 07F11003 		add	r3, r7, #16
 2573 00be DA78     		ldrb	r2, [r3, #3]	@ zero_extendqisi2
 2574 00c0 B84B     		ldr	r3, .L814+8
 2575 00c2 1B78     		ldrb	r3, [r3]
 2576 00c4 DBB2     		uxtb	r3, r3
 2577 00c6 9A42     		cmp	r2, r3
 2578 00c8 08D0     		beq	.L164
 2579              		.loc 1 723 0 discriminator 3
 2580 00ca 07F11003 		add	r3, r7, #16
 2581 00ce DA78     		ldrb	r2, [r3, #3]	@ zero_extendqisi2
 2582 00d0 B54B     		ldr	r3, .L814+12
 2583 00d2 1B78     		ldrb	r3, [r3]
 2584 00d4 DBB2     		uxtb	r3, r3
 2585 00d6 9A42     		cmp	r2, r3
ARM GAS  C:\Users\Usuario\AppData\Local\Temp\ccuOhWMm.s 			page 60


 2586 00d8 46F02281 		bne	.L163
 2587              	.L164:
 724:.\main.c      **** 					if(verificar_check(buffer_rf,size)==buffer_rf[size-1]){
 2588              		.loc 1 724 0 is_stmt 1
 2589 00dc 07F11002 		add	r2, r7, #16
 2590 00e0 B7F8F635 		ldrh	r3, [r7, #1526]
 2591 00e4 1046     		mov	r0, r2
 2592 00e6 1946     		mov	r1, r3
 2593 00e8 FFF7FEFF 		bl	verificar_check
 2594 00ec 0346     		mov	r3, r0
 2595 00ee 1946     		mov	r1, r3
 2596 00f0 B7F8F635 		ldrh	r3, [r7, #1526]
 2597 00f4 013B     		subs	r3, r3, #1
 2598 00f6 07F11002 		add	r2, r7, #16
 2599 00fa D35C     		ldrb	r3, [r2, r3]	@ zero_extendqisi2
 2600 00fc 9942     		cmp	r1, r3
 2601 00fe 46F00F81 		bne	.L163
 725:.\main.c      **** 						state_rf=0;
 2602              		.loc 1 725 0
 2603 0102 AA4B     		ldr	r3, .L814+16
 2604 0104 0022     		movs	r2, #0
 2605 0106 1A70     		strb	r2, [r3]
 726:.\main.c      **** 						rf_mod[0]=0xB8;
 2606              		.loc 1 726 0
 2607 0108 A94B     		ldr	r3, .L814+20
 2608 010a B822     		movs	r2, #184
 2609 010c 1A70     		strb	r2, [r3]
 727:.\main.c      **** 						rf_mod[1]=0xAD;
 2610              		.loc 1 727 0
 2611 010e A84B     		ldr	r3, .L814+20
 2612 0110 AD22     		movs	r2, #173
 2613 0112 5A70     		strb	r2, [r3, #1]
 728:.\main.c      **** 						rf_mod[2]=0xAF;
 2614              		.loc 1 728 0
 2615 0114 A64B     		ldr	r3, .L814+20
 2616 0116 AF22     		movs	r2, #175
 2617 0118 9A70     		strb	r2, [r3, #2]
 729:.\main.c      **** 						rf_mod[3]=buffer_rf[3];
 2618              		.loc 1 729 0
 2619 011a 07F11003 		add	r3, r7, #16
 2620 011e DA78     		ldrb	r2, [r3, #3]	@ zero_extendqisi2
 2621 0120 A34B     		ldr	r3, .L814+20
 2622 0122 DA70     		strb	r2, [r3, #3]
 730:.\main.c      **** 						ok_datosRF=0;
 2623              		.loc 1 730 0
 2624 0124 A34B     		ldr	r3, .L814+24
 2625 0126 0022     		movs	r2, #0
 2626 0128 1A70     		strb	r2, [r3]
 731:.\main.c      **** 						switch(buffer_rf[4]){
 2627              		.loc 1 731 0
 2628 012a 07F11003 		add	r3, r7, #16
 2629 012e 1B79     		ldrb	r3, [r3, #4]	@ zero_extendqisi2
 2630 0130 A03B     		subs	r3, r3, #160
 2631 0132 162B     		cmp	r3, #22
 2632 0134 06F2B380 		bhi	.L165
 2633 0138 01A2     		adr	r2, .L167
 2634 013a 52F823F0 		ldr	pc, [r2, r3, lsl #2]
ARM GAS  C:\Users\Usuario\AppData\Local\Temp\ccuOhWMm.s 			page 61


 2635 013e 00BF     		.p2align 2
 2636              	.L167:
 2637 0140 B5390000 		.word	.L166+1
 2638 0144 9D010000 		.word	.L168+1
 2639 0148 6F1D0000 		.word	.L169+1
 2640 014c E71D0000 		.word	.L170+1
 2641 0150 8D210000 		.word	.L171+1
 2642 0154 9F620000 		.word	.L165+1
 2643 0158 9F620000 		.word	.L165+1
 2644 015c 1B5F0000 		.word	.L173+1
 2645 0160 9B020000 		.word	.L174+1
 2646 0164 73090000 		.word	.L175+1
 2647 0168 35120000 		.word	.L176+1
 2648 016c 5F420000 		.word	.L177+1
 2649 0170 F5270000 		.word	.L178+1
 2650 0174 192E0000 		.word	.L179+1
 2651 0178 17360000 		.word	.L180+1
 2652 017c E9320000 		.word	.L181+1
 2653 0180 053E0000 		.word	.L182+1
 2654 0184 8B3F0000 		.word	.L183+1
 2655 0188 EF440000 		.word	.L184+1
 2656 018c D3480000 		.word	.L185+1
 2657 0190 934A0000 		.word	.L186+1
 2658 0194 214F0000 		.word	.L187+1
 2659 0198 D74B0000 		.word	.L188+1
 2660              		.p2align 1
 2661              	.L168:
 732:.\main.c      **** 							case cestado:
 733:.\main.c      **** 								if(buffer_rf[3]==lado1.dir){
 2662              		.loc 1 733 0
 2663 019c 07F11003 		add	r3, r7, #16
 2664 01a0 DA78     		ldrb	r2, [r3, #3]	@ zero_extendqisi2
 2665 01a2 7E4B     		ldr	r3, .L814
 2666 01a4 1B78     		ldrb	r3, [r3]
 2667 01a6 DBB2     		uxtb	r3, r3
 2668 01a8 9A42     		cmp	r2, r3
 2669 01aa 16D1     		bne	.L189
 734:.\main.c      **** 									rf_mod[4]=0xD1;
 2670              		.loc 1 734 0
 2671 01ac 804B     		ldr	r3, .L814+20
 2672 01ae D122     		movs	r2, #209
 2673 01b0 1A71     		strb	r2, [r3, #4]
 735:.\main.c      **** 									rf_mod[5]=lado1.estado;	
 2674              		.loc 1 735 0
 2675 01b2 7A4B     		ldr	r3, .L814
 2676 01b4 5B78     		ldrb	r3, [r3, #1]
 2677 01b6 DAB2     		uxtb	r2, r3
 2678 01b8 7D4B     		ldr	r3, .L814+20
 2679 01ba 5A71     		strb	r2, [r3, #5]
 736:.\main.c      **** 									rf_mod[6]=verificar_check(rf_mod,7);
 2680              		.loc 1 736 0
 2681 01bc 7C48     		ldr	r0, .L814+20
 2682 01be 0721     		movs	r1, #7
 2683 01c0 FFF7FEFF 		bl	verificar_check
 2684 01c4 0346     		mov	r3, r0
 2685 01c6 1A46     		mov	r2, r3
 2686 01c8 794B     		ldr	r3, .L814+20
ARM GAS  C:\Users\Usuario\AppData\Local\Temp\ccuOhWMm.s 			page 62


 2687 01ca 9A71     		strb	r2, [r3, #6]
 737:.\main.c      **** 									ok_datosRF=1;
 2688              		.loc 1 737 0
 2689 01cc 794B     		ldr	r3, .L814+24
 2690 01ce 0122     		movs	r2, #1
 2691 01d0 1A70     		strb	r2, [r3]
 738:.\main.c      **** 									size=7;
 2692              		.loc 1 738 0
 2693 01d2 0723     		movs	r3, #7
 2694 01d4 A7F8F635 		strh	r3, [r7, #1526]	@ movhi
 2695 01d8 5DE0     		b	.L190
 2696              	.L189:
 739:.\main.c      **** 								}
 740:.\main.c      **** 								else if(buffer_rf[3]==lado2.dir){
 2697              		.loc 1 740 0
 2698 01da 07F11003 		add	r3, r7, #16
 2699 01de DA78     		ldrb	r2, [r3, #3]	@ zero_extendqisi2
 2700 01e0 6F4B     		ldr	r3, .L814+4
 2701 01e2 1B78     		ldrb	r3, [r3]
 2702 01e4 DBB2     		uxtb	r3, r3
 2703 01e6 9A42     		cmp	r2, r3
 2704 01e8 16D1     		bne	.L191
 741:.\main.c      **** 									rf_mod[4]=0xD1;
 2705              		.loc 1 741 0
 2706 01ea 714B     		ldr	r3, .L814+20
 2707 01ec D122     		movs	r2, #209
 2708 01ee 1A71     		strb	r2, [r3, #4]
 742:.\main.c      **** 									rf_mod[5]=lado2.estado;	
 2709              		.loc 1 742 0
 2710 01f0 6B4B     		ldr	r3, .L814+4
 2711 01f2 5B78     		ldrb	r3, [r3, #1]
 2712 01f4 DAB2     		uxtb	r2, r3
 2713 01f6 6E4B     		ldr	r3, .L814+20
 2714 01f8 5A71     		strb	r2, [r3, #5]
 743:.\main.c      **** 									rf_mod[6]=verificar_check(rf_mod,7);
 2715              		.loc 1 743 0
 2716 01fa 6D48     		ldr	r0, .L814+20
 2717 01fc 0721     		movs	r1, #7
 2718 01fe FFF7FEFF 		bl	verificar_check
 2719 0202 0346     		mov	r3, r0
 2720 0204 1A46     		mov	r2, r3
 2721 0206 6A4B     		ldr	r3, .L814+20
 2722 0208 9A71     		strb	r2, [r3, #6]
 744:.\main.c      **** 									ok_datosRF=1;
 2723              		.loc 1 744 0
 2724 020a 6A4B     		ldr	r3, .L814+24
 2725 020c 0122     		movs	r2, #1
 2726 020e 1A70     		strb	r2, [r3]
 745:.\main.c      **** 									size=7;									
 2727              		.loc 1 745 0
 2728 0210 0723     		movs	r3, #7
 2729 0212 A7F8F635 		strh	r3, [r7, #1526]	@ movhi
 2730 0216 3EE0     		b	.L190
 2731              	.L191:
 746:.\main.c      **** 								}
 747:.\main.c      **** 								else if(buffer_rf[3]==lado3.dir){
 2732              		.loc 1 747 0
ARM GAS  C:\Users\Usuario\AppData\Local\Temp\ccuOhWMm.s 			page 63


 2733 0218 07F11003 		add	r3, r7, #16
 2734 021c DA78     		ldrb	r2, [r3, #3]	@ zero_extendqisi2
 2735 021e 614B     		ldr	r3, .L814+8
 2736 0220 1B78     		ldrb	r3, [r3]
 2737 0222 DBB2     		uxtb	r3, r3
 2738 0224 9A42     		cmp	r2, r3
 2739 0226 16D1     		bne	.L192
 748:.\main.c      **** 									rf_mod[4]=0xD1;
 2740              		.loc 1 748 0
 2741 0228 614B     		ldr	r3, .L814+20
 2742 022a D122     		movs	r2, #209
 2743 022c 1A71     		strb	r2, [r3, #4]
 749:.\main.c      **** 									rf_mod[5]=lado3.estado;	
 2744              		.loc 1 749 0
 2745 022e 5D4B     		ldr	r3, .L814+8
 2746 0230 5B78     		ldrb	r3, [r3, #1]
 2747 0232 DAB2     		uxtb	r2, r3
 2748 0234 5E4B     		ldr	r3, .L814+20
 2749 0236 5A71     		strb	r2, [r3, #5]
 750:.\main.c      **** 									rf_mod[6]=verificar_check(rf_mod,7);
 2750              		.loc 1 750 0
 2751 0238 5D48     		ldr	r0, .L814+20
 2752 023a 0721     		movs	r1, #7
 2753 023c FFF7FEFF 		bl	verificar_check
 2754 0240 0346     		mov	r3, r0
 2755 0242 1A46     		mov	r2, r3
 2756 0244 5A4B     		ldr	r3, .L814+20
 2757 0246 9A71     		strb	r2, [r3, #6]
 751:.\main.c      **** 									ok_datosRF=1;
 2758              		.loc 1 751 0
 2759 0248 5A4B     		ldr	r3, .L814+24
 2760 024a 0122     		movs	r2, #1
 2761 024c 1A70     		strb	r2, [r3]
 752:.\main.c      **** 									size=7;									
 2762              		.loc 1 752 0
 2763 024e 0723     		movs	r3, #7
 2764 0250 A7F8F635 		strh	r3, [r7, #1526]	@ movhi
 2765 0254 1FE0     		b	.L190
 2766              	.L192:
 753:.\main.c      **** 								}
 754:.\main.c      **** 								else if(buffer_rf[3]==lado4.dir){
 2767              		.loc 1 754 0
 2768 0256 07F11003 		add	r3, r7, #16
 2769 025a DA78     		ldrb	r2, [r3, #3]	@ zero_extendqisi2
 2770 025c 524B     		ldr	r3, .L814+12
 2771 025e 1B78     		ldrb	r3, [r3]
 2772 0260 DBB2     		uxtb	r3, r3
 2773 0262 9A42     		cmp	r2, r3
 2774 0264 17D1     		bne	.L190
 755:.\main.c      **** 									rf_mod[4]=0xD1;
 2775              		.loc 1 755 0
 2776 0266 524B     		ldr	r3, .L814+20
 2777 0268 D122     		movs	r2, #209
 2778 026a 1A71     		strb	r2, [r3, #4]
 756:.\main.c      **** 									rf_mod[5]=lado4.estado;	
 2779              		.loc 1 756 0
 2780 026c 4E4B     		ldr	r3, .L814+12
ARM GAS  C:\Users\Usuario\AppData\Local\Temp\ccuOhWMm.s 			page 64


 2781 026e 5B78     		ldrb	r3, [r3, #1]
 2782 0270 DAB2     		uxtb	r2, r3
 2783 0272 4F4B     		ldr	r3, .L814+20
 2784 0274 5A71     		strb	r2, [r3, #5]
 757:.\main.c      **** 									rf_mod[6]=verificar_check(rf_mod,7);
 2785              		.loc 1 757 0
 2786 0276 4E48     		ldr	r0, .L814+20
 2787 0278 0721     		movs	r1, #7
 2788 027a FFF7FEFF 		bl	verificar_check
 2789 027e 0346     		mov	r3, r0
 2790 0280 1A46     		mov	r2, r3
 2791 0282 4B4B     		ldr	r3, .L814+20
 2792 0284 9A71     		strb	r2, [r3, #6]
 758:.\main.c      **** 									ok_datosRF=1;
 2793              		.loc 1 758 0
 2794 0286 4B4B     		ldr	r3, .L814+24
 2795 0288 0122     		movs	r2, #1
 2796 028a 1A70     		strb	r2, [r3]
 759:.\main.c      **** 									size=7;									
 2797              		.loc 1 759 0
 2798 028c 0723     		movs	r3, #7
 2799 028e A7F8F635 		strh	r3, [r7, #1526]	@ movhi
 760:.\main.c      **** 								}									
 761:.\main.c      **** 							break;	
 2800              		.loc 1 761 0
 2801 0292 06F004B8 		b	.L165
 2802              	.L190:
 2803 0296 06F002B8 		b	.L165
 2804              	.L174:
 762:.\main.c      **** 							
 763:.\main.c      **** 							case cdatospr:
 764:.\main.c      **** 								if(buffer_rf[3]==lado1.dir){
 2805              		.loc 1 764 0
 2806 029a 07F11003 		add	r3, r7, #16
 2807 029e DA78     		ldrb	r2, [r3, #3]	@ zero_extendqisi2
 2808 02a0 3E4B     		ldr	r3, .L814
 2809 02a2 1B78     		ldrb	r3, [r3]
 2810 02a4 DBB2     		uxtb	r3, r3
 2811 02a6 9A42     		cmp	r2, r3
 2812 02a8 40F0D980 		bne	.L193
 765:.\main.c      **** 									rf_mod[4]=0xD8;
 2813              		.loc 1 765 0
 2814 02ac 404B     		ldr	r3, .L814+20
 2815 02ae D822     		movs	r2, #216
 2816 02b0 1A71     		strb	r2, [r3, #4]
 766:.\main.c      **** 									rf_mod[5]=rventa1.manguera;	
 2817              		.loc 1 766 0
 2818 02b2 414B     		ldr	r3, .L814+28
 2819 02b4 9A7E     		ldrb	r2, [r3, #26]	@ zero_extendqisi2
 2820 02b6 3E4B     		ldr	r3, .L814+20
 2821 02b8 5A71     		strb	r2, [r3, #5]
 767:.\main.c      **** 									rf_mod[6]=rventa1.preset[0];
 2822              		.loc 1 767 0
 2823 02ba 3F4B     		ldr	r3, .L814+28
 2824 02bc DA7E     		ldrb	r2, [r3, #27]	@ zero_extendqisi2
 2825 02be 3C4B     		ldr	r3, .L814+20
 2826 02c0 9A71     		strb	r2, [r3, #6]
ARM GAS  C:\Users\Usuario\AppData\Local\Temp\ccuOhWMm.s 			page 65


 768:.\main.c      **** 									for(x=1;x<=7;x++){
 2827              		.loc 1 768 0
 2828 02c2 0123     		movs	r3, #1
 2829 02c4 A7F8F235 		strh	r3, [r7, #1522]	@ movhi
 2830 02c8 0EE0     		b	.L194
 2831              	.L195:
 769:.\main.c      **** 										rf_mod[6+x]=rventa1.preset[x];
 2832              		.loc 1 769 0 discriminator 3
 2833 02ca B7F8F235 		ldrh	r3, [r7, #1522]
 2834 02ce 0633     		adds	r3, r3, #6
 2835 02d0 B7F8F225 		ldrh	r2, [r7, #1522]
 2836 02d4 3849     		ldr	r1, .L814+28
 2837 02d6 0A44     		add	r2, r2, r1
 2838 02d8 D17E     		ldrb	r1, [r2, #27]	@ zero_extendqisi2
 2839 02da 354A     		ldr	r2, .L814+20
 2840 02dc D154     		strb	r1, [r2, r3]
 768:.\main.c      **** 									for(x=1;x<=7;x++){
 2841              		.loc 1 768 0 discriminator 3
 2842 02de B7F8F235 		ldrh	r3, [r7, #1522]
 2843 02e2 0133     		adds	r3, r3, #1
 2844 02e4 A7F8F235 		strh	r3, [r7, #1522]	@ movhi
 2845              	.L194:
 768:.\main.c      **** 									for(x=1;x<=7;x++){
 2846              		.loc 1 768 0 is_stmt 0 discriminator 1
 2847 02e8 B7F8F235 		ldrh	r3, [r7, #1522]
 2848 02ec 072B     		cmp	r3, #7
 2849 02ee ECD9     		bls	.L195
 770:.\main.c      **** 									}
 771:.\main.c      **** 									rf_mod[14]=0x54;
 2850              		.loc 1 771 0 is_stmt 1
 2851 02f0 2F4B     		ldr	r3, .L814+20
 2852 02f2 5422     		movs	r2, #84
 2853 02f4 9A73     		strb	r2, [r3, #14]
 772:.\main.c      **** 									for(x=0;x<=11;x++){
 2854              		.loc 1 772 0
 2855 02f6 0023     		movs	r3, #0
 2856 02f8 A7F8F235 		strh	r3, [r7, #1522]	@ movhi
 2857 02fc 1DE0     		b	.L196
 2858              	.L197:
 773:.\main.c      **** 										rf_mod[15+x]=((lado1.totales[rventa1.manguera-1][12+x])&0x0f);
 2859              		.loc 1 773 0 discriminator 3
 2860 02fe B7F8F235 		ldrh	r3, [r7, #1522]
 2861 0302 03F10F01 		add	r1, r3, #15
 2862 0306 2C4B     		ldr	r3, .L814+28
 2863 0308 9B7E     		ldrb	r3, [r3, #26]	@ zero_extendqisi2
 2864 030a 5A1E     		subs	r2, r3, #1
 2865 030c B7F8F235 		ldrh	r3, [r7, #1522]
 2866 0310 03F10C00 		add	r0, r3, #12
 2867 0314 214C     		ldr	r4, .L814
 2868 0316 1346     		mov	r3, r2
 2869 0318 5B00     		lsls	r3, r3, #1
 2870 031a 1344     		add	r3, r3, r2
 2871 031c DB00     		lsls	r3, r3, #3
 2872 031e 0344     		add	r3, r3, r0
 2873 0320 2344     		add	r3, r3, r4
 2874 0322 9B78     		ldrb	r3, [r3, #2]
 2875 0324 DBB2     		uxtb	r3, r3
ARM GAS  C:\Users\Usuario\AppData\Local\Temp\ccuOhWMm.s 			page 66


 2876 0326 03F00F03 		and	r3, r3, #15
 2877 032a DAB2     		uxtb	r2, r3
 2878 032c 204B     		ldr	r3, .L814+20
 2879 032e 5A54     		strb	r2, [r3, r1]
 772:.\main.c      **** 									for(x=0;x<=11;x++){
 2880              		.loc 1 772 0 discriminator 3
 2881 0330 B7F8F235 		ldrh	r3, [r7, #1522]
 2882 0334 0133     		adds	r3, r3, #1
 2883 0336 A7F8F235 		strh	r3, [r7, #1522]	@ movhi
 2884              	.L196:
 772:.\main.c      **** 									for(x=0;x<=11;x++){
 2885              		.loc 1 772 0 is_stmt 0 discriminator 1
 2886 033a B7F8F235 		ldrh	r3, [r7, #1522]
 2887 033e 0B2B     		cmp	r3, #11
 2888 0340 DDD9     		bls	.L197
 774:.\main.c      **** 									}
 775:.\main.c      **** 									for(x=0;x<=11;x++){
 2889              		.loc 1 775 0 is_stmt 1
 2890 0342 0023     		movs	r3, #0
 2891 0344 A7F8F235 		strh	r3, [r7, #1522]	@ movhi
 2892 0348 1BE0     		b	.L198
 2893              	.L199:
 776:.\main.c      **** 										rf_mod[27+x]=((lado1.totales[rventa1.manguera-1][x])&0x0f);
 2894              		.loc 1 776 0 discriminator 3
 2895 034a B7F8F235 		ldrh	r3, [r7, #1522]
 2896 034e 03F11B01 		add	r1, r3, #27
 2897 0352 194B     		ldr	r3, .L814+28
 2898 0354 9B7E     		ldrb	r3, [r3, #26]	@ zero_extendqisi2
 2899 0356 5A1E     		subs	r2, r3, #1
 2900 0358 B7F8F205 		ldrh	r0, [r7, #1522]
 2901 035c 0F4C     		ldr	r4, .L814
 2902 035e 1346     		mov	r3, r2
 2903 0360 5B00     		lsls	r3, r3, #1
 2904 0362 1344     		add	r3, r3, r2
 2905 0364 DB00     		lsls	r3, r3, #3
 2906 0366 0344     		add	r3, r3, r0
 2907 0368 2344     		add	r3, r3, r4
 2908 036a 9B78     		ldrb	r3, [r3, #2]
 2909 036c DBB2     		uxtb	r3, r3
 2910 036e 03F00F03 		and	r3, r3, #15
 2911 0372 DAB2     		uxtb	r2, r3
 2912 0374 0E4B     		ldr	r3, .L814+20
 2913 0376 5A54     		strb	r2, [r3, r1]
 775:.\main.c      **** 										rf_mod[27+x]=((lado1.totales[rventa1.manguera-1][x])&0x0f);
 2914              		.loc 1 775 0 discriminator 3
 2915 0378 B7F8F235 		ldrh	r3, [r7, #1522]
 2916 037c 0133     		adds	r3, r3, #1
 2917 037e A7F8F235 		strh	r3, [r7, #1522]	@ movhi
 2918              	.L198:
 775:.\main.c      **** 										rf_mod[27+x]=((lado1.totales[rventa1.manguera-1][x])&0x0f);
 2919              		.loc 1 775 0 is_stmt 0 discriminator 1
 2920 0382 B7F8F235 		ldrh	r3, [r7, #1522]
 2921 0386 0B2B     		cmp	r3, #11
 2922 0388 DFD9     		bls	.L199
 777:.\main.c      **** 									}									
 778:.\main.c      **** 									rf_mod[39]=0x50;
 2923              		.loc 1 778 0 is_stmt 1
ARM GAS  C:\Users\Usuario\AppData\Local\Temp\ccuOhWMm.s 			page 67


 2924 038a 094B     		ldr	r3, .L814+20
 2925 038c 5022     		movs	r2, #80
 2926 038e 83F82720 		strb	r2, [r3, #39]
 779:.\main.c      **** 									for(x=0;x<=4;x++){
 2927              		.loc 1 779 0
 2928 0392 0023     		movs	r3, #0
 2929 0394 A7F8F235 		strh	r3, [r7, #1522]	@ movhi
 2930 0398 2CE0     		b	.L200
 2931              	.L815:
 2932 039a 00BF     		.align	2
 2933              	.L814:
 2934 039c 00000000 		.word	lado1
 2935 03a0 00000000 		.word	lado2
 2936 03a4 00000000 		.word	lado3
 2937 03a8 00000000 		.word	lado4
 2938 03ac 00000000 		.word	state_rf
 2939 03b0 00000000 		.word	rf_mod
 2940 03b4 00000000 		.word	ok_datosRF
 2941 03b8 00000000 		.word	rventa1
 2942              	.L201:
 780:.\main.c      **** 										rf_mod[40+x]=((lado1.ppu[rventa1.manguera-1][x])&0x0f);
 2943              		.loc 1 780 0 discriminator 3
 2944 03bc B7F8F235 		ldrh	r3, [r7, #1522]
 2945 03c0 03F12801 		add	r1, r3, #40
 2946 03c4 BA4B     		ldr	r3, .L816
 2947 03c6 9B7E     		ldrb	r3, [r3, #26]	@ zero_extendqisi2
 2948 03c8 5A1E     		subs	r2, r3, #1
 2949 03ca B7F8F205 		ldrh	r0, [r7, #1522]
 2950 03ce B94C     		ldr	r4, .L816+4
 2951 03d0 1346     		mov	r3, r2
 2952 03d2 9B00     		lsls	r3, r3, #2
 2953 03d4 1344     		add	r3, r3, r2
 2954 03d6 2344     		add	r3, r3, r4
 2955 03d8 0344     		add	r3, r3, r0
 2956 03da 4833     		adds	r3, r3, #72
 2957 03dc 9B78     		ldrb	r3, [r3, #2]
 2958 03de DBB2     		uxtb	r3, r3
 2959 03e0 03F00F03 		and	r3, r3, #15
 2960 03e4 DAB2     		uxtb	r2, r3
 2961 03e6 B44B     		ldr	r3, .L816+8
 2962 03e8 5A54     		strb	r2, [r3, r1]
 779:.\main.c      **** 									for(x=0;x<=4;x++){
 2963              		.loc 1 779 0 discriminator 3
 2964 03ea B7F8F235 		ldrh	r3, [r7, #1522]
 2965 03ee 0133     		adds	r3, r3, #1
 2966 03f0 A7F8F235 		strh	r3, [r7, #1522]	@ movhi
 2967              	.L200:
 779:.\main.c      **** 									for(x=0;x<=4;x++){
 2968              		.loc 1 779 0 is_stmt 0 discriminator 1
 2969 03f4 B7F8F235 		ldrh	r3, [r7, #1522]
 2970 03f8 042B     		cmp	r3, #4
 2971 03fa DFD9     		bls	.L201
 781:.\main.c      **** 									}
 782:.\main.c      **** 									rf_mod[45]=0x48;
 2972              		.loc 1 782 0 is_stmt 1
 2973 03fc AE4B     		ldr	r3, .L816+8
 2974 03fe 4822     		movs	r2, #72
ARM GAS  C:\Users\Usuario\AppData\Local\Temp\ccuOhWMm.s 			page 68


 2975 0400 83F82D20 		strb	r2, [r3, #45]
 783:.\main.c      **** 									rf_mod[46]=hora[0];
 2976              		.loc 1 783 0
 2977 0404 AD4B     		ldr	r3, .L816+12
 2978 0406 1A78     		ldrb	r2, [r3]	@ zero_extendqisi2
 2979 0408 AB4B     		ldr	r3, .L816+8
 2980 040a 83F82E20 		strb	r2, [r3, #46]
 784:.\main.c      **** 									rf_mod[47]=hora[1];
 2981              		.loc 1 784 0
 2982 040e AB4B     		ldr	r3, .L816+12
 2983 0410 5A78     		ldrb	r2, [r3, #1]	@ zero_extendqisi2
 2984 0412 A94B     		ldr	r3, .L816+8
 2985 0414 83F82F20 		strb	r2, [r3, #47]
 785:.\main.c      **** 									rf_mod[48]=0x46;
 2986              		.loc 1 785 0
 2987 0418 A74B     		ldr	r3, .L816+8
 2988 041a 4622     		movs	r2, #70
 2989 041c 83F83020 		strb	r2, [r3, #48]
 786:.\main.c      **** 									rf_mod[49]=fecha[0];
 2990              		.loc 1 786 0
 2991 0420 A74B     		ldr	r3, .L816+16
 2992 0422 1A78     		ldrb	r2, [r3]	@ zero_extendqisi2
 2993 0424 A44B     		ldr	r3, .L816+8
 2994 0426 83F83120 		strb	r2, [r3, #49]
 787:.\main.c      **** 									rf_mod[50]=fecha[1];
 2995              		.loc 1 787 0
 2996 042a A54B     		ldr	r3, .L816+16
 2997 042c 5A78     		ldrb	r2, [r3, #1]	@ zero_extendqisi2
 2998 042e A24B     		ldr	r3, .L816+8
 2999 0430 83F83220 		strb	r2, [r3, #50]
 788:.\main.c      **** 									rf_mod[51]=fecha[2];
 3000              		.loc 1 788 0
 3001 0434 A24B     		ldr	r3, .L816+16
 3002 0436 9A78     		ldrb	r2, [r3, #2]	@ zero_extendqisi2
 3003 0438 9F4B     		ldr	r3, .L816+8
 3004 043a 83F83320 		strb	r2, [r3, #51]
 789:.\main.c      **** 									rf_mod[52]=verificar_check(rf_mod,53);
 3005              		.loc 1 789 0
 3006 043e 9E48     		ldr	r0, .L816+8
 3007 0440 3521     		movs	r1, #53
 3008 0442 FFF7FEFF 		bl	verificar_check
 3009 0446 0346     		mov	r3, r0
 3010 0448 1A46     		mov	r2, r3
 3011 044a 9B4B     		ldr	r3, .L816+8
 3012 044c 83F83420 		strb	r2, [r3, #52]
 790:.\main.c      **** 									ok_datosRF=1;
 3013              		.loc 1 790 0
 3014 0450 9C4B     		ldr	r3, .L816+20
 3015 0452 0122     		movs	r2, #1
 3016 0454 1A70     		strb	r2, [r3]
 791:.\main.c      **** 									size=53;
 3017              		.loc 1 791 0
 3018 0456 3523     		movs	r3, #53
 3019 0458 A7F8F635 		strh	r3, [r7, #1526]	@ movhi
 3020 045c 87E2     		b	.L202
 3021              	.L193:
 792:.\main.c      **** 								}
ARM GAS  C:\Users\Usuario\AppData\Local\Temp\ccuOhWMm.s 			page 69


 793:.\main.c      **** 								else if(buffer_rf[3]==lado2.dir){
 3022              		.loc 1 793 0
 3023 045e 07F11003 		add	r3, r7, #16
 3024 0462 DA78     		ldrb	r2, [r3, #3]	@ zero_extendqisi2
 3025 0464 984B     		ldr	r3, .L816+24
 3026 0466 1B78     		ldrb	r3, [r3]
 3027 0468 DBB2     		uxtb	r3, r3
 3028 046a 9A42     		cmp	r2, r3
 3029 046c 40F0C880 		bne	.L203
 794:.\main.c      **** 									rf_mod[4]=0xD8;
 3030              		.loc 1 794 0
 3031 0470 914B     		ldr	r3, .L816+8
 3032 0472 D822     		movs	r2, #216
 3033 0474 1A71     		strb	r2, [r3, #4]
 795:.\main.c      **** 									rf_mod[5]=rventa2.manguera;	
 3034              		.loc 1 795 0
 3035 0476 954B     		ldr	r3, .L816+28
 3036 0478 9A7E     		ldrb	r2, [r3, #26]	@ zero_extendqisi2
 3037 047a 8F4B     		ldr	r3, .L816+8
 3038 047c 5A71     		strb	r2, [r3, #5]
 796:.\main.c      **** 									rf_mod[6]=rventa2.preset[0];
 3039              		.loc 1 796 0
 3040 047e 934B     		ldr	r3, .L816+28
 3041 0480 DA7E     		ldrb	r2, [r3, #27]	@ zero_extendqisi2
 3042 0482 8D4B     		ldr	r3, .L816+8
 3043 0484 9A71     		strb	r2, [r3, #6]
 797:.\main.c      **** 									for(x=1;x<=7;x++){
 3044              		.loc 1 797 0
 3045 0486 0123     		movs	r3, #1
 3046 0488 A7F8F235 		strh	r3, [r7, #1522]	@ movhi
 3047 048c 0EE0     		b	.L204
 3048              	.L205:
 798:.\main.c      **** 										rf_mod[6+x]=rventa2.preset[x];
 3049              		.loc 1 798 0 discriminator 3
 3050 048e B7F8F235 		ldrh	r3, [r7, #1522]
 3051 0492 0633     		adds	r3, r3, #6
 3052 0494 B7F8F225 		ldrh	r2, [r7, #1522]
 3053 0498 8C49     		ldr	r1, .L816+28
 3054 049a 0A44     		add	r2, r2, r1
 3055 049c D17E     		ldrb	r1, [r2, #27]	@ zero_extendqisi2
 3056 049e 864A     		ldr	r2, .L816+8
 3057 04a0 D154     		strb	r1, [r2, r3]
 797:.\main.c      **** 									for(x=1;x<=7;x++){
 3058              		.loc 1 797 0 discriminator 3
 3059 04a2 B7F8F235 		ldrh	r3, [r7, #1522]
 3060 04a6 0133     		adds	r3, r3, #1
 3061 04a8 A7F8F235 		strh	r3, [r7, #1522]	@ movhi
 3062              	.L204:
 797:.\main.c      **** 									for(x=1;x<=7;x++){
 3063              		.loc 1 797 0 is_stmt 0 discriminator 1
 3064 04ac B7F8F235 		ldrh	r3, [r7, #1522]
 3065 04b0 072B     		cmp	r3, #7
 3066 04b2 ECD9     		bls	.L205
 799:.\main.c      **** 									}
 800:.\main.c      **** 									rf_mod[14]=0x54;
 3067              		.loc 1 800 0 is_stmt 1
 3068 04b4 804B     		ldr	r3, .L816+8
ARM GAS  C:\Users\Usuario\AppData\Local\Temp\ccuOhWMm.s 			page 70


 3069 04b6 5422     		movs	r2, #84
 3070 04b8 9A73     		strb	r2, [r3, #14]
 801:.\main.c      **** 									for(x=0;x<=11;x++){
 3071              		.loc 1 801 0
 3072 04ba 0023     		movs	r3, #0
 3073 04bc A7F8F235 		strh	r3, [r7, #1522]	@ movhi
 3074 04c0 1DE0     		b	.L206
 3075              	.L207:
 802:.\main.c      **** 										rf_mod[15+x]=((lado2.totales[rventa2.manguera-1][12+x])&0x0f);
 3076              		.loc 1 802 0 discriminator 3
 3077 04c2 B7F8F235 		ldrh	r3, [r7, #1522]
 3078 04c6 03F10F01 		add	r1, r3, #15
 3079 04ca 804B     		ldr	r3, .L816+28
 3080 04cc 9B7E     		ldrb	r3, [r3, #26]	@ zero_extendqisi2
 3081 04ce 5A1E     		subs	r2, r3, #1
 3082 04d0 B7F8F235 		ldrh	r3, [r7, #1522]
 3083 04d4 03F10C00 		add	r0, r3, #12
 3084 04d8 7B4C     		ldr	r4, .L816+24
 3085 04da 1346     		mov	r3, r2
 3086 04dc 5B00     		lsls	r3, r3, #1
 3087 04de 1344     		add	r3, r3, r2
 3088 04e0 DB00     		lsls	r3, r3, #3
 3089 04e2 0344     		add	r3, r3, r0
 3090 04e4 2344     		add	r3, r3, r4
 3091 04e6 9B78     		ldrb	r3, [r3, #2]
 3092 04e8 DBB2     		uxtb	r3, r3
 3093 04ea 03F00F03 		and	r3, r3, #15
 3094 04ee DAB2     		uxtb	r2, r3
 3095 04f0 714B     		ldr	r3, .L816+8
 3096 04f2 5A54     		strb	r2, [r3, r1]
 801:.\main.c      **** 									for(x=0;x<=11;x++){
 3097              		.loc 1 801 0 discriminator 3
 3098 04f4 B7F8F235 		ldrh	r3, [r7, #1522]
 3099 04f8 0133     		adds	r3, r3, #1
 3100 04fa A7F8F235 		strh	r3, [r7, #1522]	@ movhi
 3101              	.L206:
 801:.\main.c      **** 									for(x=0;x<=11;x++){
 3102              		.loc 1 801 0 is_stmt 0 discriminator 1
 3103 04fe B7F8F235 		ldrh	r3, [r7, #1522]
 3104 0502 0B2B     		cmp	r3, #11
 3105 0504 DDD9     		bls	.L207
 803:.\main.c      **** 									}
 804:.\main.c      **** 									for(x=0;x<=11;x++){
 3106              		.loc 1 804 0 is_stmt 1
 3107 0506 0023     		movs	r3, #0
 3108 0508 A7F8F235 		strh	r3, [r7, #1522]	@ movhi
 3109 050c 1BE0     		b	.L208
 3110              	.L209:
 805:.\main.c      **** 										rf_mod[27+x]=((lado2.totales[rventa2.manguera-1][x])&0x0f);
 3111              		.loc 1 805 0 discriminator 3
 3112 050e B7F8F235 		ldrh	r3, [r7, #1522]
 3113 0512 03F11B01 		add	r1, r3, #27
 3114 0516 6D4B     		ldr	r3, .L816+28
 3115 0518 9B7E     		ldrb	r3, [r3, #26]	@ zero_extendqisi2
 3116 051a 5A1E     		subs	r2, r3, #1
 3117 051c B7F8F205 		ldrh	r0, [r7, #1522]
 3118 0520 694C     		ldr	r4, .L816+24
ARM GAS  C:\Users\Usuario\AppData\Local\Temp\ccuOhWMm.s 			page 71


 3119 0522 1346     		mov	r3, r2
 3120 0524 5B00     		lsls	r3, r3, #1
 3121 0526 1344     		add	r3, r3, r2
 3122 0528 DB00     		lsls	r3, r3, #3
 3123 052a 0344     		add	r3, r3, r0
 3124 052c 2344     		add	r3, r3, r4
 3125 052e 9B78     		ldrb	r3, [r3, #2]
 3126 0530 DBB2     		uxtb	r3, r3
 3127 0532 03F00F03 		and	r3, r3, #15
 3128 0536 DAB2     		uxtb	r2, r3
 3129 0538 5F4B     		ldr	r3, .L816+8
 3130 053a 5A54     		strb	r2, [r3, r1]
 804:.\main.c      **** 										rf_mod[27+x]=((lado2.totales[rventa2.manguera-1][x])&0x0f);
 3131              		.loc 1 804 0 discriminator 3
 3132 053c B7F8F235 		ldrh	r3, [r7, #1522]
 3133 0540 0133     		adds	r3, r3, #1
 3134 0542 A7F8F235 		strh	r3, [r7, #1522]	@ movhi
 3135              	.L208:
 804:.\main.c      **** 										rf_mod[27+x]=((lado2.totales[rventa2.manguera-1][x])&0x0f);
 3136              		.loc 1 804 0 is_stmt 0 discriminator 1
 3137 0546 B7F8F235 		ldrh	r3, [r7, #1522]
 3138 054a 0B2B     		cmp	r3, #11
 3139 054c DFD9     		bls	.L209
 806:.\main.c      **** 									}									
 807:.\main.c      **** 									rf_mod[39]=0x50;
 3140              		.loc 1 807 0 is_stmt 1
 3141 054e 5A4B     		ldr	r3, .L816+8
 3142 0550 5022     		movs	r2, #80
 3143 0552 83F82720 		strb	r2, [r3, #39]
 808:.\main.c      **** 									for(x=0;x<=4;x++){
 3144              		.loc 1 808 0
 3145 0556 0023     		movs	r3, #0
 3146 0558 A7F8F235 		strh	r3, [r7, #1522]	@ movhi
 3147 055c 1BE0     		b	.L210
 3148              	.L211:
 809:.\main.c      **** 										rf_mod[40+x]=((lado2.ppu[rventa2.manguera-1][x])&0x0f);
 3149              		.loc 1 809 0 discriminator 3
 3150 055e B7F8F235 		ldrh	r3, [r7, #1522]
 3151 0562 03F12801 		add	r1, r3, #40
 3152 0566 594B     		ldr	r3, .L816+28
 3153 0568 9B7E     		ldrb	r3, [r3, #26]	@ zero_extendqisi2
 3154 056a 5A1E     		subs	r2, r3, #1
 3155 056c B7F8F205 		ldrh	r0, [r7, #1522]
 3156 0570 554C     		ldr	r4, .L816+24
 3157 0572 1346     		mov	r3, r2
 3158 0574 9B00     		lsls	r3, r3, #2
 3159 0576 1344     		add	r3, r3, r2
 3160 0578 2344     		add	r3, r3, r4
 3161 057a 0344     		add	r3, r3, r0
 3162 057c 4833     		adds	r3, r3, #72
 3163 057e 9B78     		ldrb	r3, [r3, #2]
 3164 0580 DBB2     		uxtb	r3, r3
 3165 0582 03F00F03 		and	r3, r3, #15
 3166 0586 DAB2     		uxtb	r2, r3
 3167 0588 4B4B     		ldr	r3, .L816+8
 3168 058a 5A54     		strb	r2, [r3, r1]
 808:.\main.c      **** 									for(x=0;x<=4;x++){
ARM GAS  C:\Users\Usuario\AppData\Local\Temp\ccuOhWMm.s 			page 72


 3169              		.loc 1 808 0 discriminator 3
 3170 058c B7F8F235 		ldrh	r3, [r7, #1522]
 3171 0590 0133     		adds	r3, r3, #1
 3172 0592 A7F8F235 		strh	r3, [r7, #1522]	@ movhi
 3173              	.L210:
 808:.\main.c      **** 									for(x=0;x<=4;x++){
 3174              		.loc 1 808 0 is_stmt 0 discriminator 1
 3175 0596 B7F8F235 		ldrh	r3, [r7, #1522]
 3176 059a 042B     		cmp	r3, #4
 3177 059c DFD9     		bls	.L211
 810:.\main.c      **** 									}
 811:.\main.c      **** 									rf_mod[45]=0x48;
 3178              		.loc 1 811 0 is_stmt 1
 3179 059e 464B     		ldr	r3, .L816+8
 3180 05a0 4822     		movs	r2, #72
 3181 05a2 83F82D20 		strb	r2, [r3, #45]
 812:.\main.c      **** 									rf_mod[46]=hora[0];
 3182              		.loc 1 812 0
 3183 05a6 454B     		ldr	r3, .L816+12
 3184 05a8 1A78     		ldrb	r2, [r3]	@ zero_extendqisi2
 3185 05aa 434B     		ldr	r3, .L816+8
 3186 05ac 83F82E20 		strb	r2, [r3, #46]
 813:.\main.c      **** 									rf_mod[47]=hora[1];
 3187              		.loc 1 813 0
 3188 05b0 424B     		ldr	r3, .L816+12
 3189 05b2 5A78     		ldrb	r2, [r3, #1]	@ zero_extendqisi2
 3190 05b4 404B     		ldr	r3, .L816+8
 3191 05b6 83F82F20 		strb	r2, [r3, #47]
 814:.\main.c      **** 									rf_mod[48]=0x46;
 3192              		.loc 1 814 0
 3193 05ba 3F4B     		ldr	r3, .L816+8
 3194 05bc 4622     		movs	r2, #70
 3195 05be 83F83020 		strb	r2, [r3, #48]
 815:.\main.c      **** 									rf_mod[49]=fecha[0];
 3196              		.loc 1 815 0
 3197 05c2 3F4B     		ldr	r3, .L816+16
 3198 05c4 1A78     		ldrb	r2, [r3]	@ zero_extendqisi2
 3199 05c6 3C4B     		ldr	r3, .L816+8
 3200 05c8 83F83120 		strb	r2, [r3, #49]
 816:.\main.c      **** 									rf_mod[50]=fecha[1];
 3201              		.loc 1 816 0
 3202 05cc 3C4B     		ldr	r3, .L816+16
 3203 05ce 5A78     		ldrb	r2, [r3, #1]	@ zero_extendqisi2
 3204 05d0 394B     		ldr	r3, .L816+8
 3205 05d2 83F83220 		strb	r2, [r3, #50]
 817:.\main.c      **** 									rf_mod[51]=fecha[2];
 3206              		.loc 1 817 0
 3207 05d6 3A4B     		ldr	r3, .L816+16
 3208 05d8 9A78     		ldrb	r2, [r3, #2]	@ zero_extendqisi2
 3209 05da 374B     		ldr	r3, .L816+8
 3210 05dc 83F83320 		strb	r2, [r3, #51]
 818:.\main.c      **** 									rf_mod[52]=verificar_check(rf_mod,53);
 3211              		.loc 1 818 0
 3212 05e0 3548     		ldr	r0, .L816+8
 3213 05e2 3521     		movs	r1, #53
 3214 05e4 FFF7FEFF 		bl	verificar_check
 3215 05e8 0346     		mov	r3, r0
ARM GAS  C:\Users\Usuario\AppData\Local\Temp\ccuOhWMm.s 			page 73


 3216 05ea 1A46     		mov	r2, r3
 3217 05ec 324B     		ldr	r3, .L816+8
 3218 05ee 83F83420 		strb	r2, [r3, #52]
 819:.\main.c      **** 									ok_datosRF=1;
 3219              		.loc 1 819 0
 3220 05f2 344B     		ldr	r3, .L816+20
 3221 05f4 0122     		movs	r2, #1
 3222 05f6 1A70     		strb	r2, [r3]
 820:.\main.c      **** 									size=53;								
 3223              		.loc 1 820 0
 3224 05f8 3523     		movs	r3, #53
 3225 05fa A7F8F635 		strh	r3, [r7, #1526]	@ movhi
 3226 05fe B6E1     		b	.L202
 3227              	.L203:
 821:.\main.c      **** 								}
 822:.\main.c      **** 								else if(buffer_rf[3]==lado3.dir){
 3228              		.loc 1 822 0
 3229 0600 07F11003 		add	r3, r7, #16
 3230 0604 DA78     		ldrb	r2, [r3, #3]	@ zero_extendqisi2
 3231 0606 324B     		ldr	r3, .L816+32
 3232 0608 1B78     		ldrb	r3, [r3]
 3233 060a DBB2     		uxtb	r3, r3
 3234 060c 9A42     		cmp	r2, r3
 3235 060e 40F0DC80 		bne	.L212
 823:.\main.c      **** 									rf_mod[4]=0xD8;
 3236              		.loc 1 823 0
 3237 0612 294B     		ldr	r3, .L816+8
 3238 0614 D822     		movs	r2, #216
 3239 0616 1A71     		strb	r2, [r3, #4]
 824:.\main.c      **** 									rf_mod[5]=rventa3.manguera;	
 3240              		.loc 1 824 0
 3241 0618 2E4B     		ldr	r3, .L816+36
 3242 061a 9A7E     		ldrb	r2, [r3, #26]	@ zero_extendqisi2
 3243 061c 264B     		ldr	r3, .L816+8
 3244 061e 5A71     		strb	r2, [r3, #5]
 825:.\main.c      **** 									rf_mod[6]=rventa3.preset[0];
 3245              		.loc 1 825 0
 3246 0620 2C4B     		ldr	r3, .L816+36
 3247 0622 DA7E     		ldrb	r2, [r3, #27]	@ zero_extendqisi2
 3248 0624 244B     		ldr	r3, .L816+8
 3249 0626 9A71     		strb	r2, [r3, #6]
 826:.\main.c      **** 									for(x=1;x<=7;x++){
 3250              		.loc 1 826 0
 3251 0628 0123     		movs	r3, #1
 3252 062a A7F8F235 		strh	r3, [r7, #1522]	@ movhi
 3253 062e 0EE0     		b	.L213
 3254              	.L214:
 827:.\main.c      **** 										rf_mod[6+x]=rventa3.preset[x];
 3255              		.loc 1 827 0 discriminator 3
 3256 0630 B7F8F235 		ldrh	r3, [r7, #1522]
 3257 0634 0633     		adds	r3, r3, #6
 3258 0636 B7F8F225 		ldrh	r2, [r7, #1522]
 3259 063a 2649     		ldr	r1, .L816+36
 3260 063c 0A44     		add	r2, r2, r1
 3261 063e D17E     		ldrb	r1, [r2, #27]	@ zero_extendqisi2
 3262 0640 1D4A     		ldr	r2, .L816+8
 3263 0642 D154     		strb	r1, [r2, r3]
ARM GAS  C:\Users\Usuario\AppData\Local\Temp\ccuOhWMm.s 			page 74


 826:.\main.c      **** 									for(x=1;x<=7;x++){
 3264              		.loc 1 826 0 discriminator 3
 3265 0644 B7F8F235 		ldrh	r3, [r7, #1522]
 3266 0648 0133     		adds	r3, r3, #1
 3267 064a A7F8F235 		strh	r3, [r7, #1522]	@ movhi
 3268              	.L213:
 826:.\main.c      **** 									for(x=1;x<=7;x++){
 3269              		.loc 1 826 0 is_stmt 0 discriminator 1
 3270 064e B7F8F235 		ldrh	r3, [r7, #1522]
 3271 0652 072B     		cmp	r3, #7
 3272 0654 ECD9     		bls	.L214
 828:.\main.c      **** 									}
 829:.\main.c      **** 									rf_mod[14]=0x54;
 3273              		.loc 1 829 0 is_stmt 1
 3274 0656 184B     		ldr	r3, .L816+8
 3275 0658 5422     		movs	r2, #84
 3276 065a 9A73     		strb	r2, [r3, #14]
 830:.\main.c      **** 									for(x=0;x<=11;x++){
 3277              		.loc 1 830 0
 3278 065c 0023     		movs	r3, #0
 3279 065e A7F8F235 		strh	r3, [r7, #1522]	@ movhi
 3280 0662 1DE0     		b	.L215
 3281              	.L216:
 831:.\main.c      **** 										rf_mod[15+x]=((lado3.totales[rventa3.manguera-1][12+x])&0x0f);
 3282              		.loc 1 831 0 discriminator 3
 3283 0664 B7F8F235 		ldrh	r3, [r7, #1522]
 3284 0668 03F10F01 		add	r1, r3, #15
 3285 066c 194B     		ldr	r3, .L816+36
 3286 066e 9B7E     		ldrb	r3, [r3, #26]	@ zero_extendqisi2
 3287 0670 5A1E     		subs	r2, r3, #1
 3288 0672 B7F8F235 		ldrh	r3, [r7, #1522]
 3289 0676 03F10C00 		add	r0, r3, #12
 3290 067a 154C     		ldr	r4, .L816+32
 3291 067c 1346     		mov	r3, r2
 3292 067e 5B00     		lsls	r3, r3, #1
 3293 0680 1344     		add	r3, r3, r2
 3294 0682 DB00     		lsls	r3, r3, #3
 3295 0684 0344     		add	r3, r3, r0
 3296 0686 2344     		add	r3, r3, r4
 3297 0688 9B78     		ldrb	r3, [r3, #2]
 3298 068a DBB2     		uxtb	r3, r3
 3299 068c 03F00F03 		and	r3, r3, #15
 3300 0690 DAB2     		uxtb	r2, r3
 3301 0692 094B     		ldr	r3, .L816+8
 3302 0694 5A54     		strb	r2, [r3, r1]
 830:.\main.c      **** 									for(x=0;x<=11;x++){
 3303              		.loc 1 830 0 discriminator 3
 3304 0696 B7F8F235 		ldrh	r3, [r7, #1522]
 3305 069a 0133     		adds	r3, r3, #1
 3306 069c A7F8F235 		strh	r3, [r7, #1522]	@ movhi
 3307              	.L215:
 830:.\main.c      **** 									for(x=0;x<=11;x++){
 3308              		.loc 1 830 0 is_stmt 0 discriminator 1
 3309 06a0 B7F8F235 		ldrh	r3, [r7, #1522]
 3310 06a4 0B2B     		cmp	r3, #11
 3311 06a6 DDD9     		bls	.L216
 832:.\main.c      **** 									}
ARM GAS  C:\Users\Usuario\AppData\Local\Temp\ccuOhWMm.s 			page 75


 833:.\main.c      **** 									for(x=0;x<=11;x++){
 3312              		.loc 1 833 0 is_stmt 1
 3313 06a8 0023     		movs	r3, #0
 3314 06aa A7F8F235 		strh	r3, [r7, #1522]	@ movhi
 3315 06ae 2FE0     		b	.L217
 3316              	.L817:
 3317              		.align	2
 3318              	.L816:
 3319 06b0 00000000 		.word	rventa1
 3320 06b4 00000000 		.word	lado1
 3321 06b8 00000000 		.word	rf_mod
 3322 06bc 00000000 		.word	hora
 3323 06c0 00000000 		.word	fecha
 3324 06c4 00000000 		.word	ok_datosRF
 3325 06c8 00000000 		.word	lado2
 3326 06cc 00000000 		.word	rventa2
 3327 06d0 00000000 		.word	lado3
 3328 06d4 00000000 		.word	rventa3
 3329              	.L218:
 834:.\main.c      **** 										rf_mod[27+x]=((lado3.totales[rventa3.manguera-1][x])&0x0f);
 3330              		.loc 1 834 0 discriminator 3
 3331 06d8 B7F8F235 		ldrh	r3, [r7, #1522]
 3332 06dc 03F11B01 		add	r1, r3, #27
 3333 06e0 BD4B     		ldr	r3, .L818
 3334 06e2 9B7E     		ldrb	r3, [r3, #26]	@ zero_extendqisi2
 3335 06e4 5A1E     		subs	r2, r3, #1
 3336 06e6 B7F8F205 		ldrh	r0, [r7, #1522]
 3337 06ea BC4C     		ldr	r4, .L818+4
 3338 06ec 1346     		mov	r3, r2
 3339 06ee 5B00     		lsls	r3, r3, #1
 3340 06f0 1344     		add	r3, r3, r2
 3341 06f2 DB00     		lsls	r3, r3, #3
 3342 06f4 0344     		add	r3, r3, r0
 3343 06f6 2344     		add	r3, r3, r4
 3344 06f8 9B78     		ldrb	r3, [r3, #2]
 3345 06fa DBB2     		uxtb	r3, r3
 3346 06fc 03F00F03 		and	r3, r3, #15
 3347 0700 DAB2     		uxtb	r2, r3
 3348 0702 B74B     		ldr	r3, .L818+8
 3349 0704 5A54     		strb	r2, [r3, r1]
 833:.\main.c      **** 										rf_mod[27+x]=((lado3.totales[rventa3.manguera-1][x])&0x0f);
 3350              		.loc 1 833 0 discriminator 3
 3351 0706 B7F8F235 		ldrh	r3, [r7, #1522]
 3352 070a 0133     		adds	r3, r3, #1
 3353 070c A7F8F235 		strh	r3, [r7, #1522]	@ movhi
 3354              	.L217:
 833:.\main.c      **** 										rf_mod[27+x]=((lado3.totales[rventa3.manguera-1][x])&0x0f);
 3355              		.loc 1 833 0 is_stmt 0 discriminator 1
 3356 0710 B7F8F235 		ldrh	r3, [r7, #1522]
 3357 0714 0B2B     		cmp	r3, #11
 3358 0716 DFD9     		bls	.L218
 835:.\main.c      **** 									}									
 836:.\main.c      **** 									rf_mod[39]=0x50;
 3359              		.loc 1 836 0 is_stmt 1
 3360 0718 B14B     		ldr	r3, .L818+8
 3361 071a 5022     		movs	r2, #80
 3362 071c 83F82720 		strb	r2, [r3, #39]
ARM GAS  C:\Users\Usuario\AppData\Local\Temp\ccuOhWMm.s 			page 76


 837:.\main.c      **** 									for(x=0;x<=4;x++){
 3363              		.loc 1 837 0
 3364 0720 0023     		movs	r3, #0
 3365 0722 A7F8F235 		strh	r3, [r7, #1522]	@ movhi
 3366 0726 1BE0     		b	.L219
 3367              	.L220:
 838:.\main.c      **** 										rf_mod[40+x]=((lado3.ppu[rventa3.manguera-1][x])&0x0f);
 3368              		.loc 1 838 0 discriminator 3
 3369 0728 B7F8F235 		ldrh	r3, [r7, #1522]
 3370 072c 03F12801 		add	r1, r3, #40
 3371 0730 A94B     		ldr	r3, .L818
 3372 0732 9B7E     		ldrb	r3, [r3, #26]	@ zero_extendqisi2
 3373 0734 5A1E     		subs	r2, r3, #1
 3374 0736 B7F8F205 		ldrh	r0, [r7, #1522]
 3375 073a A84C     		ldr	r4, .L818+4
 3376 073c 1346     		mov	r3, r2
 3377 073e 9B00     		lsls	r3, r3, #2
 3378 0740 1344     		add	r3, r3, r2
 3379 0742 2344     		add	r3, r3, r4
 3380 0744 0344     		add	r3, r3, r0
 3381 0746 4833     		adds	r3, r3, #72
 3382 0748 9B78     		ldrb	r3, [r3, #2]
 3383 074a DBB2     		uxtb	r3, r3
 3384 074c 03F00F03 		and	r3, r3, #15
 3385 0750 DAB2     		uxtb	r2, r3
 3386 0752 A34B     		ldr	r3, .L818+8
 3387 0754 5A54     		strb	r2, [r3, r1]
 837:.\main.c      **** 									for(x=0;x<=4;x++){
 3388              		.loc 1 837 0 discriminator 3
 3389 0756 B7F8F235 		ldrh	r3, [r7, #1522]
 3390 075a 0133     		adds	r3, r3, #1
 3391 075c A7F8F235 		strh	r3, [r7, #1522]	@ movhi
 3392              	.L219:
 837:.\main.c      **** 									for(x=0;x<=4;x++){
 3393              		.loc 1 837 0 is_stmt 0 discriminator 1
 3394 0760 B7F8F235 		ldrh	r3, [r7, #1522]
 3395 0764 042B     		cmp	r3, #4
 3396 0766 DFD9     		bls	.L220
 839:.\main.c      **** 									}
 840:.\main.c      **** 									rf_mod[45]=0x48;
 3397              		.loc 1 840 0 is_stmt 1
 3398 0768 9D4B     		ldr	r3, .L818+8
 3399 076a 4822     		movs	r2, #72
 3400 076c 83F82D20 		strb	r2, [r3, #45]
 841:.\main.c      **** 									rf_mod[46]=hora[0];
 3401              		.loc 1 841 0
 3402 0770 9C4B     		ldr	r3, .L818+12
 3403 0772 1A78     		ldrb	r2, [r3]	@ zero_extendqisi2
 3404 0774 9A4B     		ldr	r3, .L818+8
 3405 0776 83F82E20 		strb	r2, [r3, #46]
 842:.\main.c      **** 									rf_mod[47]=hora[1];
 3406              		.loc 1 842 0
 3407 077a 9A4B     		ldr	r3, .L818+12
 3408 077c 5A78     		ldrb	r2, [r3, #1]	@ zero_extendqisi2
 3409 077e 984B     		ldr	r3, .L818+8
 3410 0780 83F82F20 		strb	r2, [r3, #47]
 843:.\main.c      **** 									rf_mod[48]=0x46;
ARM GAS  C:\Users\Usuario\AppData\Local\Temp\ccuOhWMm.s 			page 77


 3411              		.loc 1 843 0
 3412 0784 964B     		ldr	r3, .L818+8
 3413 0786 4622     		movs	r2, #70
 3414 0788 83F83020 		strb	r2, [r3, #48]
 844:.\main.c      **** 									rf_mod[49]=fecha[0];
 3415              		.loc 1 844 0
 3416 078c 964B     		ldr	r3, .L818+16
 3417 078e 1A78     		ldrb	r2, [r3]	@ zero_extendqisi2
 3418 0790 934B     		ldr	r3, .L818+8
 3419 0792 83F83120 		strb	r2, [r3, #49]
 845:.\main.c      **** 									rf_mod[50]=fecha[1];
 3420              		.loc 1 845 0
 3421 0796 944B     		ldr	r3, .L818+16
 3422 0798 5A78     		ldrb	r2, [r3, #1]	@ zero_extendqisi2
 3423 079a 914B     		ldr	r3, .L818+8
 3424 079c 83F83220 		strb	r2, [r3, #50]
 846:.\main.c      **** 									rf_mod[51]=fecha[2];
 3425              		.loc 1 846 0
 3426 07a0 914B     		ldr	r3, .L818+16
 3427 07a2 9A78     		ldrb	r2, [r3, #2]	@ zero_extendqisi2
 3428 07a4 8E4B     		ldr	r3, .L818+8
 3429 07a6 83F83320 		strb	r2, [r3, #51]
 847:.\main.c      **** 									rf_mod[52]=verificar_check(rf_mod,53);
 3430              		.loc 1 847 0
 3431 07aa 8D48     		ldr	r0, .L818+8
 3432 07ac 3521     		movs	r1, #53
 3433 07ae FFF7FEFF 		bl	verificar_check
 3434 07b2 0346     		mov	r3, r0
 3435 07b4 1A46     		mov	r2, r3
 3436 07b6 8A4B     		ldr	r3, .L818+8
 3437 07b8 83F83420 		strb	r2, [r3, #52]
 848:.\main.c      **** 									ok_datosRF=1;
 3438              		.loc 1 848 0
 3439 07bc 8B4B     		ldr	r3, .L818+20
 3440 07be 0122     		movs	r2, #1
 3441 07c0 1A70     		strb	r2, [r3]
 849:.\main.c      **** 									size=53;								
 3442              		.loc 1 849 0
 3443 07c2 3523     		movs	r3, #53
 3444 07c4 A7F8F635 		strh	r3, [r7, #1526]	@ movhi
 3445 07c8 D1E0     		b	.L202
 3446              	.L212:
 850:.\main.c      **** 								}
 851:.\main.c      **** 								else if(buffer_rf[3]==lado4.dir){
 3447              		.loc 1 851 0
 3448 07ca 07F11003 		add	r3, r7, #16
 3449 07ce DA78     		ldrb	r2, [r3, #3]	@ zero_extendqisi2
 3450 07d0 874B     		ldr	r3, .L818+24
 3451 07d2 1B78     		ldrb	r3, [r3]
 3452 07d4 DBB2     		uxtb	r3, r3
 3453 07d6 9A42     		cmp	r2, r3
 3454 07d8 40F0C980 		bne	.L202
 852:.\main.c      **** 									rf_mod[4]=0xD8;
 3455              		.loc 1 852 0
 3456 07dc 804B     		ldr	r3, .L818+8
 3457 07de D822     		movs	r2, #216
 3458 07e0 1A71     		strb	r2, [r3, #4]
ARM GAS  C:\Users\Usuario\AppData\Local\Temp\ccuOhWMm.s 			page 78


 853:.\main.c      **** 									rf_mod[5]=rventa4.manguera;	
 3459              		.loc 1 853 0
 3460 07e2 844B     		ldr	r3, .L818+28
 3461 07e4 9A7E     		ldrb	r2, [r3, #26]	@ zero_extendqisi2
 3462 07e6 7E4B     		ldr	r3, .L818+8
 3463 07e8 5A71     		strb	r2, [r3, #5]
 854:.\main.c      **** 									rf_mod[6]=rventa4.preset[0];
 3464              		.loc 1 854 0
 3465 07ea 824B     		ldr	r3, .L818+28
 3466 07ec DA7E     		ldrb	r2, [r3, #27]	@ zero_extendqisi2
 3467 07ee 7C4B     		ldr	r3, .L818+8
 3468 07f0 9A71     		strb	r2, [r3, #6]
 855:.\main.c      **** 									for(x=1;x<=7;x++){
 3469              		.loc 1 855 0
 3470 07f2 0123     		movs	r3, #1
 3471 07f4 A7F8F235 		strh	r3, [r7, #1522]	@ movhi
 3472 07f8 0EE0     		b	.L221
 3473              	.L222:
 856:.\main.c      **** 										rf_mod[6+x]=rventa4.preset[x];
 3474              		.loc 1 856 0 discriminator 3
 3475 07fa B7F8F235 		ldrh	r3, [r7, #1522]
 3476 07fe 0633     		adds	r3, r3, #6
 3477 0800 B7F8F225 		ldrh	r2, [r7, #1522]
 3478 0804 7B49     		ldr	r1, .L818+28
 3479 0806 0A44     		add	r2, r2, r1
 3480 0808 D17E     		ldrb	r1, [r2, #27]	@ zero_extendqisi2
 3481 080a 754A     		ldr	r2, .L818+8
 3482 080c D154     		strb	r1, [r2, r3]
 855:.\main.c      **** 									for(x=1;x<=7;x++){
 3483              		.loc 1 855 0 discriminator 3
 3484 080e B7F8F235 		ldrh	r3, [r7, #1522]
 3485 0812 0133     		adds	r3, r3, #1
 3486 0814 A7F8F235 		strh	r3, [r7, #1522]	@ movhi
 3487              	.L221:
 855:.\main.c      **** 									for(x=1;x<=7;x++){
 3488              		.loc 1 855 0 is_stmt 0 discriminator 1
 3489 0818 B7F8F235 		ldrh	r3, [r7, #1522]
 3490 081c 072B     		cmp	r3, #7
 3491 081e ECD9     		bls	.L222
 857:.\main.c      **** 									}
 858:.\main.c      **** 									rf_mod[14]=0x54;
 3492              		.loc 1 858 0 is_stmt 1
 3493 0820 6F4B     		ldr	r3, .L818+8
 3494 0822 5422     		movs	r2, #84
 3495 0824 9A73     		strb	r2, [r3, #14]
 859:.\main.c      **** 									for(x=0;x<=11;x++){
 3496              		.loc 1 859 0
 3497 0826 0023     		movs	r3, #0
 3498 0828 A7F8F235 		strh	r3, [r7, #1522]	@ movhi
 3499 082c 1DE0     		b	.L223
 3500              	.L224:
 860:.\main.c      **** 										rf_mod[15+x]=((lado4.totales[rventa4.manguera-1][12+x])&0x0f);
 3501              		.loc 1 860 0 discriminator 3
 3502 082e B7F8F235 		ldrh	r3, [r7, #1522]
 3503 0832 03F10F01 		add	r1, r3, #15
 3504 0836 6F4B     		ldr	r3, .L818+28
 3505 0838 9B7E     		ldrb	r3, [r3, #26]	@ zero_extendqisi2
ARM GAS  C:\Users\Usuario\AppData\Local\Temp\ccuOhWMm.s 			page 79


 3506 083a 5A1E     		subs	r2, r3, #1
 3507 083c B7F8F235 		ldrh	r3, [r7, #1522]
 3508 0840 03F10C00 		add	r0, r3, #12
 3509 0844 6A4C     		ldr	r4, .L818+24
 3510 0846 1346     		mov	r3, r2
 3511 0848 5B00     		lsls	r3, r3, #1
 3512 084a 1344     		add	r3, r3, r2
 3513 084c DB00     		lsls	r3, r3, #3
 3514 084e 0344     		add	r3, r3, r0
 3515 0850 2344     		add	r3, r3, r4
 3516 0852 9B78     		ldrb	r3, [r3, #2]
 3517 0854 DBB2     		uxtb	r3, r3
 3518 0856 03F00F03 		and	r3, r3, #15
 3519 085a DAB2     		uxtb	r2, r3
 3520 085c 604B     		ldr	r3, .L818+8
 3521 085e 5A54     		strb	r2, [r3, r1]
 859:.\main.c      **** 									for(x=0;x<=11;x++){
 3522              		.loc 1 859 0 discriminator 3
 3523 0860 B7F8F235 		ldrh	r3, [r7, #1522]
 3524 0864 0133     		adds	r3, r3, #1
 3525 0866 A7F8F235 		strh	r3, [r7, #1522]	@ movhi
 3526              	.L223:
 859:.\main.c      **** 									for(x=0;x<=11;x++){
 3527              		.loc 1 859 0 is_stmt 0 discriminator 1
 3528 086a B7F8F235 		ldrh	r3, [r7, #1522]
 3529 086e 0B2B     		cmp	r3, #11
 3530 0870 DDD9     		bls	.L224
 861:.\main.c      **** 									}
 862:.\main.c      **** 									for(x=0;x<=11;x++){
 3531              		.loc 1 862 0 is_stmt 1
 3532 0872 0023     		movs	r3, #0
 3533 0874 A7F8F235 		strh	r3, [r7, #1522]	@ movhi
 3534 0878 1BE0     		b	.L225
 3535              	.L226:
 863:.\main.c      **** 										rf_mod[27+x]=((lado4.totales[rventa4.manguera-1][x])&0x0f);
 3536              		.loc 1 863 0 discriminator 3
 3537 087a B7F8F235 		ldrh	r3, [r7, #1522]
 3538 087e 03F11B01 		add	r1, r3, #27
 3539 0882 5C4B     		ldr	r3, .L818+28
 3540 0884 9B7E     		ldrb	r3, [r3, #26]	@ zero_extendqisi2
 3541 0886 5A1E     		subs	r2, r3, #1
 3542 0888 B7F8F205 		ldrh	r0, [r7, #1522]
 3543 088c 584C     		ldr	r4, .L818+24
 3544 088e 1346     		mov	r3, r2
 3545 0890 5B00     		lsls	r3, r3, #1
 3546 0892 1344     		add	r3, r3, r2
 3547 0894 DB00     		lsls	r3, r3, #3
 3548 0896 0344     		add	r3, r3, r0
 3549 0898 2344     		add	r3, r3, r4
 3550 089a 9B78     		ldrb	r3, [r3, #2]
 3551 089c DBB2     		uxtb	r3, r3
 3552 089e 03F00F03 		and	r3, r3, #15
 3553 08a2 DAB2     		uxtb	r2, r3
 3554 08a4 4E4B     		ldr	r3, .L818+8
 3555 08a6 5A54     		strb	r2, [r3, r1]
 862:.\main.c      **** 										rf_mod[27+x]=((lado4.totales[rventa4.manguera-1][x])&0x0f);
 3556              		.loc 1 862 0 discriminator 3
ARM GAS  C:\Users\Usuario\AppData\Local\Temp\ccuOhWMm.s 			page 80


 3557 08a8 B7F8F235 		ldrh	r3, [r7, #1522]
 3558 08ac 0133     		adds	r3, r3, #1
 3559 08ae A7F8F235 		strh	r3, [r7, #1522]	@ movhi
 3560              	.L225:
 862:.\main.c      **** 										rf_mod[27+x]=((lado4.totales[rventa4.manguera-1][x])&0x0f);
 3561              		.loc 1 862 0 is_stmt 0 discriminator 1
 3562 08b2 B7F8F235 		ldrh	r3, [r7, #1522]
 3563 08b6 0B2B     		cmp	r3, #11
 3564 08b8 DFD9     		bls	.L226
 864:.\main.c      **** 									}									
 865:.\main.c      **** 									rf_mod[39]=0x50;
 3565              		.loc 1 865 0 is_stmt 1
 3566 08ba 494B     		ldr	r3, .L818+8
 3567 08bc 5022     		movs	r2, #80
 3568 08be 83F82720 		strb	r2, [r3, #39]
 866:.\main.c      **** 									for(x=0;x<=4;x++){
 3569              		.loc 1 866 0
 3570 08c2 0023     		movs	r3, #0
 3571 08c4 A7F8F235 		strh	r3, [r7, #1522]	@ movhi
 3572 08c8 1BE0     		b	.L227
 3573              	.L228:
 867:.\main.c      **** 										rf_mod[40+x]=((lado4.ppu[rventa4.manguera-1][x])&0x0f);
 3574              		.loc 1 867 0 discriminator 3
 3575 08ca B7F8F235 		ldrh	r3, [r7, #1522]
 3576 08ce 03F12801 		add	r1, r3, #40
 3577 08d2 484B     		ldr	r3, .L818+28
 3578 08d4 9B7E     		ldrb	r3, [r3, #26]	@ zero_extendqisi2
 3579 08d6 5A1E     		subs	r2, r3, #1
 3580 08d8 B7F8F205 		ldrh	r0, [r7, #1522]
 3581 08dc 444C     		ldr	r4, .L818+24
 3582 08de 1346     		mov	r3, r2
 3583 08e0 9B00     		lsls	r3, r3, #2
 3584 08e2 1344     		add	r3, r3, r2
 3585 08e4 2344     		add	r3, r3, r4
 3586 08e6 0344     		add	r3, r3, r0
 3587 08e8 4833     		adds	r3, r3, #72
 3588 08ea 9B78     		ldrb	r3, [r3, #2]
 3589 08ec DBB2     		uxtb	r3, r3
 3590 08ee 03F00F03 		and	r3, r3, #15
 3591 08f2 DAB2     		uxtb	r2, r3
 3592 08f4 3A4B     		ldr	r3, .L818+8
 3593 08f6 5A54     		strb	r2, [r3, r1]
 866:.\main.c      **** 									for(x=0;x<=4;x++){
 3594              		.loc 1 866 0 discriminator 3
 3595 08f8 B7F8F235 		ldrh	r3, [r7, #1522]
 3596 08fc 0133     		adds	r3, r3, #1
 3597 08fe A7F8F235 		strh	r3, [r7, #1522]	@ movhi
 3598              	.L227:
 866:.\main.c      **** 									for(x=0;x<=4;x++){
 3599              		.loc 1 866 0 is_stmt 0 discriminator 1
 3600 0902 B7F8F235 		ldrh	r3, [r7, #1522]
 3601 0906 042B     		cmp	r3, #4
 3602 0908 DFD9     		bls	.L228
 868:.\main.c      **** 									}
 869:.\main.c      **** 									rf_mod[45]=0x48;
 3603              		.loc 1 869 0 is_stmt 1
 3604 090a 354B     		ldr	r3, .L818+8
ARM GAS  C:\Users\Usuario\AppData\Local\Temp\ccuOhWMm.s 			page 81


 3605 090c 4822     		movs	r2, #72
 3606 090e 83F82D20 		strb	r2, [r3, #45]
 870:.\main.c      **** 									rf_mod[46]=hora[0];
 3607              		.loc 1 870 0
 3608 0912 344B     		ldr	r3, .L818+12
 3609 0914 1A78     		ldrb	r2, [r3]	@ zero_extendqisi2
 3610 0916 324B     		ldr	r3, .L818+8
 3611 0918 83F82E20 		strb	r2, [r3, #46]
 871:.\main.c      **** 									rf_mod[47]=hora[1];
 3612              		.loc 1 871 0
 3613 091c 314B     		ldr	r3, .L818+12
 3614 091e 5A78     		ldrb	r2, [r3, #1]	@ zero_extendqisi2
 3615 0920 2F4B     		ldr	r3, .L818+8
 3616 0922 83F82F20 		strb	r2, [r3, #47]
 872:.\main.c      **** 									rf_mod[48]=0x46;
 3617              		.loc 1 872 0
 3618 0926 2E4B     		ldr	r3, .L818+8
 3619 0928 4622     		movs	r2, #70
 3620 092a 83F83020 		strb	r2, [r3, #48]
 873:.\main.c      **** 									rf_mod[49]=fecha[0];
 3621              		.loc 1 873 0
 3622 092e 2E4B     		ldr	r3, .L818+16
 3623 0930 1A78     		ldrb	r2, [r3]	@ zero_extendqisi2
 3624 0932 2B4B     		ldr	r3, .L818+8
 3625 0934 83F83120 		strb	r2, [r3, #49]
 874:.\main.c      **** 									rf_mod[50]=fecha[1];
 3626              		.loc 1 874 0
 3627 0938 2B4B     		ldr	r3, .L818+16
 3628 093a 5A78     		ldrb	r2, [r3, #1]	@ zero_extendqisi2
 3629 093c 284B     		ldr	r3, .L818+8
 3630 093e 83F83220 		strb	r2, [r3, #50]
 875:.\main.c      **** 									rf_mod[51]=fecha[2];
 3631              		.loc 1 875 0
 3632 0942 294B     		ldr	r3, .L818+16
 3633 0944 9A78     		ldrb	r2, [r3, #2]	@ zero_extendqisi2
 3634 0946 264B     		ldr	r3, .L818+8
 3635 0948 83F83320 		strb	r2, [r3, #51]
 876:.\main.c      **** 									rf_mod[52]=verificar_check(rf_mod,53);
 3636              		.loc 1 876 0
 3637 094c 2448     		ldr	r0, .L818+8
 3638 094e 3521     		movs	r1, #53
 3639 0950 FFF7FEFF 		bl	verificar_check
 3640 0954 0346     		mov	r3, r0
 3641 0956 1A46     		mov	r2, r3
 3642 0958 214B     		ldr	r3, .L818+8
 3643 095a 83F83420 		strb	r2, [r3, #52]
 877:.\main.c      **** 									ok_datosRF=1;
 3644              		.loc 1 877 0
 3645 095e 234B     		ldr	r3, .L818+20
 3646 0960 0122     		movs	r2, #1
 3647 0962 1A70     		strb	r2, [r3]
 878:.\main.c      **** 									size=53;								
 3648              		.loc 1 878 0
 3649 0964 3523     		movs	r3, #53
 3650 0966 A7F8F635 		strh	r3, [r7, #1526]	@ movhi
 879:.\main.c      **** 								}
 880:.\main.c      **** 							break;
ARM GAS  C:\Users\Usuario\AppData\Local\Temp\ccuOhWMm.s 			page 82


 3651              		.loc 1 880 0
 3652 096a 05F098BC 		b	.L165
 3653              	.L202:
 3654 096e 05F096BC 		b	.L165
 3655              	.L175:
 881:.\main.c      **** 
 882:.\main.c      **** 							case cdatosprid:
 883:.\main.c      **** 								if(buffer_rf[3]==lado1.dir){
 3656              		.loc 1 883 0
 3657 0972 07F11003 		add	r3, r7, #16
 3658 0976 DA78     		ldrb	r2, [r3, #3]	@ zero_extendqisi2
 3659 0978 1F4B     		ldr	r3, .L818+32
 3660 097a 1B78     		ldrb	r3, [r3]
 3661 097c DBB2     		uxtb	r3, r3
 3662 097e 9A42     		cmp	r2, r3
 3663 0980 40F01681 		bne	.L229
 884:.\main.c      **** 									rf_mod[4]=0xD9;
 3664              		.loc 1 884 0
 3665 0984 164B     		ldr	r3, .L818+8
 3666 0986 D922     		movs	r2, #217
 3667 0988 1A71     		strb	r2, [r3, #4]
 885:.\main.c      **** 									rf_mod[5]=rventa1.manguera;	
 3668              		.loc 1 885 0
 3669 098a 1C4B     		ldr	r3, .L818+36
 3670 098c 9A7E     		ldrb	r2, [r3, #26]	@ zero_extendqisi2
 3671 098e 144B     		ldr	r3, .L818+8
 3672 0990 5A71     		strb	r2, [r3, #5]
 886:.\main.c      **** 									rf_mod[6]=rventa1.preset[0];
 3673              		.loc 1 886 0
 3674 0992 1A4B     		ldr	r3, .L818+36
 3675 0994 DA7E     		ldrb	r2, [r3, #27]	@ zero_extendqisi2
 3676 0996 124B     		ldr	r3, .L818+8
 3677 0998 9A71     		strb	r2, [r3, #6]
 887:.\main.c      **** 									for(x=1;x<=7;x++){
 3678              		.loc 1 887 0
 3679 099a 0123     		movs	r3, #1
 3680 099c A7F8F235 		strh	r3, [r7, #1522]	@ movhi
 3681 09a0 0EE0     		b	.L230
 3682              	.L231:
 888:.\main.c      **** 										rf_mod[6+x]=rventa1.preset[x];
 3683              		.loc 1 888 0 discriminator 3
 3684 09a2 B7F8F235 		ldrh	r3, [r7, #1522]
 3685 09a6 0633     		adds	r3, r3, #6
 3686 09a8 B7F8F225 		ldrh	r2, [r7, #1522]
 3687 09ac 1349     		ldr	r1, .L818+36
 3688 09ae 0A44     		add	r2, r2, r1
 3689 09b0 D17E     		ldrb	r1, [r2, #27]	@ zero_extendqisi2
 3690 09b2 0B4A     		ldr	r2, .L818+8
 3691 09b4 D154     		strb	r1, [r2, r3]
 887:.\main.c      **** 									for(x=1;x<=7;x++){
 3692              		.loc 1 887 0 discriminator 3
 3693 09b6 B7F8F235 		ldrh	r3, [r7, #1522]
 3694 09ba 0133     		adds	r3, r3, #1
 3695 09bc A7F8F235 		strh	r3, [r7, #1522]	@ movhi
 3696              	.L230:
 887:.\main.c      **** 									for(x=1;x<=7;x++){
 3697              		.loc 1 887 0 is_stmt 0 discriminator 1
ARM GAS  C:\Users\Usuario\AppData\Local\Temp\ccuOhWMm.s 			page 83


 3698 09c0 B7F8F235 		ldrh	r3, [r7, #1522]
 3699 09c4 072B     		cmp	r3, #7
 3700 09c6 ECD9     		bls	.L231
 889:.\main.c      **** 									}
 890:.\main.c      **** 									rf_mod[14]=0x54;
 3701              		.loc 1 890 0 is_stmt 1
 3702 09c8 054B     		ldr	r3, .L818+8
 3703 09ca 5422     		movs	r2, #84
 3704 09cc 9A73     		strb	r2, [r3, #14]
 891:.\main.c      **** 									for(x=0;x<=11;x++){
 3705              		.loc 1 891 0
 3706 09ce 0023     		movs	r3, #0
 3707 09d0 A7F8F235 		strh	r3, [r7, #1522]	@ movhi
 3708 09d4 32E0     		b	.L232
 3709              	.L819:
 3710 09d6 00BF     		.align	2
 3711              	.L818:
 3712 09d8 00000000 		.word	rventa3
 3713 09dc 00000000 		.word	lado3
 3714 09e0 00000000 		.word	rf_mod
 3715 09e4 00000000 		.word	hora
 3716 09e8 00000000 		.word	fecha
 3717 09ec 00000000 		.word	ok_datosRF
 3718 09f0 00000000 		.word	lado4
 3719 09f4 00000000 		.word	rventa4
 3720 09f8 00000000 		.word	lado1
 3721 09fc 00000000 		.word	rventa1
 3722              	.L233:
 892:.\main.c      **** 										rf_mod[15+x]=((lado1.totales[rventa1.manguera-1][12+x])&0x0f);
 3723              		.loc 1 892 0 discriminator 3
 3724 0a00 B7F8F235 		ldrh	r3, [r7, #1522]
 3725 0a04 03F10F01 		add	r1, r3, #15
 3726 0a08 A94B     		ldr	r3, .L820
 3727 0a0a 9B7E     		ldrb	r3, [r3, #26]	@ zero_extendqisi2
 3728 0a0c 5A1E     		subs	r2, r3, #1
 3729 0a0e B7F8F235 		ldrh	r3, [r7, #1522]
 3730 0a12 03F10C00 		add	r0, r3, #12
 3731 0a16 A74C     		ldr	r4, .L820+4
 3732 0a18 1346     		mov	r3, r2
 3733 0a1a 5B00     		lsls	r3, r3, #1
 3734 0a1c 1344     		add	r3, r3, r2
 3735 0a1e DB00     		lsls	r3, r3, #3
 3736 0a20 0344     		add	r3, r3, r0
 3737 0a22 2344     		add	r3, r3, r4
 3738 0a24 9B78     		ldrb	r3, [r3, #2]
 3739 0a26 DBB2     		uxtb	r3, r3
 3740 0a28 03F00F03 		and	r3, r3, #15
 3741 0a2c DAB2     		uxtb	r2, r3
 3742 0a2e A24B     		ldr	r3, .L820+8
 3743 0a30 5A54     		strb	r2, [r3, r1]
 891:.\main.c      **** 									for(x=0;x<=11;x++){
 3744              		.loc 1 891 0 discriminator 3
 3745 0a32 B7F8F235 		ldrh	r3, [r7, #1522]
 3746 0a36 0133     		adds	r3, r3, #1
 3747 0a38 A7F8F235 		strh	r3, [r7, #1522]	@ movhi
 3748              	.L232:
 891:.\main.c      **** 									for(x=0;x<=11;x++){
ARM GAS  C:\Users\Usuario\AppData\Local\Temp\ccuOhWMm.s 			page 84


 3749              		.loc 1 891 0 is_stmt 0 discriminator 1
 3750 0a3c B7F8F235 		ldrh	r3, [r7, #1522]
 3751 0a40 0B2B     		cmp	r3, #11
 3752 0a42 DDD9     		bls	.L233
 893:.\main.c      **** 									}
 894:.\main.c      **** 									for(x=0;x<=11;x++){
 3753              		.loc 1 894 0 is_stmt 1
 3754 0a44 0023     		movs	r3, #0
 3755 0a46 A7F8F235 		strh	r3, [r7, #1522]	@ movhi
 3756 0a4a 1BE0     		b	.L234
 3757              	.L235:
 895:.\main.c      **** 										rf_mod[27+x]=((lado1.totales[rventa1.manguera-1][x])&0x0f);
 3758              		.loc 1 895 0 discriminator 3
 3759 0a4c B7F8F235 		ldrh	r3, [r7, #1522]
 3760 0a50 03F11B01 		add	r1, r3, #27
 3761 0a54 964B     		ldr	r3, .L820
 3762 0a56 9B7E     		ldrb	r3, [r3, #26]	@ zero_extendqisi2
 3763 0a58 5A1E     		subs	r2, r3, #1
 3764 0a5a B7F8F205 		ldrh	r0, [r7, #1522]
 3765 0a5e 954C     		ldr	r4, .L820+4
 3766 0a60 1346     		mov	r3, r2
 3767 0a62 5B00     		lsls	r3, r3, #1
 3768 0a64 1344     		add	r3, r3, r2
 3769 0a66 DB00     		lsls	r3, r3, #3
 3770 0a68 0344     		add	r3, r3, r0
 3771 0a6a 2344     		add	r3, r3, r4
 3772 0a6c 9B78     		ldrb	r3, [r3, #2]
 3773 0a6e DBB2     		uxtb	r3, r3
 3774 0a70 03F00F03 		and	r3, r3, #15
 3775 0a74 DAB2     		uxtb	r2, r3
 3776 0a76 904B     		ldr	r3, .L820+8
 3777 0a78 5A54     		strb	r2, [r3, r1]
 894:.\main.c      **** 										rf_mod[27+x]=((lado1.totales[rventa1.manguera-1][x])&0x0f);
 3778              		.loc 1 894 0 discriminator 3
 3779 0a7a B7F8F235 		ldrh	r3, [r7, #1522]
 3780 0a7e 0133     		adds	r3, r3, #1
 3781 0a80 A7F8F235 		strh	r3, [r7, #1522]	@ movhi
 3782              	.L234:
 894:.\main.c      **** 										rf_mod[27+x]=((lado1.totales[rventa1.manguera-1][x])&0x0f);
 3783              		.loc 1 894 0 is_stmt 0 discriminator 1
 3784 0a84 B7F8F235 		ldrh	r3, [r7, #1522]
 3785 0a88 0B2B     		cmp	r3, #11
 3786 0a8a DFD9     		bls	.L235
 896:.\main.c      **** 									}									
 897:.\main.c      **** 									rf_mod[39]=0x50;
 3787              		.loc 1 897 0 is_stmt 1
 3788 0a8c 8A4B     		ldr	r3, .L820+8
 3789 0a8e 5022     		movs	r2, #80
 3790 0a90 83F82720 		strb	r2, [r3, #39]
 898:.\main.c      **** 									for(x=0;x<=4;x++){
 3791              		.loc 1 898 0
 3792 0a94 0023     		movs	r3, #0
 3793 0a96 A7F8F235 		strh	r3, [r7, #1522]	@ movhi
 3794 0a9a 1BE0     		b	.L236
 3795              	.L237:
 899:.\main.c      **** 										rf_mod[40+x]=((lado1.ppu[rventa1.manguera-1][x])&0x0f);
 3796              		.loc 1 899 0 discriminator 3
ARM GAS  C:\Users\Usuario\AppData\Local\Temp\ccuOhWMm.s 			page 85


 3797 0a9c B7F8F235 		ldrh	r3, [r7, #1522]
 3798 0aa0 03F12801 		add	r1, r3, #40
 3799 0aa4 824B     		ldr	r3, .L820
 3800 0aa6 9B7E     		ldrb	r3, [r3, #26]	@ zero_extendqisi2
 3801 0aa8 5A1E     		subs	r2, r3, #1
 3802 0aaa B7F8F205 		ldrh	r0, [r7, #1522]
 3803 0aae 814C     		ldr	r4, .L820+4
 3804 0ab0 1346     		mov	r3, r2
 3805 0ab2 9B00     		lsls	r3, r3, #2
 3806 0ab4 1344     		add	r3, r3, r2
 3807 0ab6 2344     		add	r3, r3, r4
 3808 0ab8 0344     		add	r3, r3, r0
 3809 0aba 4833     		adds	r3, r3, #72
 3810 0abc 9B78     		ldrb	r3, [r3, #2]
 3811 0abe DBB2     		uxtb	r3, r3
 3812 0ac0 03F00F03 		and	r3, r3, #15
 3813 0ac4 DAB2     		uxtb	r2, r3
 3814 0ac6 7C4B     		ldr	r3, .L820+8
 3815 0ac8 5A54     		strb	r2, [r3, r1]
 898:.\main.c      **** 									for(x=0;x<=4;x++){
 3816              		.loc 1 898 0 discriminator 3
 3817 0aca B7F8F235 		ldrh	r3, [r7, #1522]
 3818 0ace 0133     		adds	r3, r3, #1
 3819 0ad0 A7F8F235 		strh	r3, [r7, #1522]	@ movhi
 3820              	.L236:
 898:.\main.c      **** 									for(x=0;x<=4;x++){
 3821              		.loc 1 898 0 is_stmt 0 discriminator 1
 3822 0ad4 B7F8F235 		ldrh	r3, [r7, #1522]
 3823 0ad8 042B     		cmp	r3, #4
 3824 0ada DFD9     		bls	.L237
 900:.\main.c      **** 									}
 901:.\main.c      **** 									rf_mod[45]=0x48;
 3825              		.loc 1 901 0 is_stmt 1
 3826 0adc 764B     		ldr	r3, .L820+8
 3827 0ade 4822     		movs	r2, #72
 3828 0ae0 83F82D20 		strb	r2, [r3, #45]
 902:.\main.c      **** 									rf_mod[46]=hora[0];
 3829              		.loc 1 902 0
 3830 0ae4 754B     		ldr	r3, .L820+12
 3831 0ae6 1A78     		ldrb	r2, [r3]	@ zero_extendqisi2
 3832 0ae8 734B     		ldr	r3, .L820+8
 3833 0aea 83F82E20 		strb	r2, [r3, #46]
 903:.\main.c      **** 									rf_mod[47]=hora[1];
 3834              		.loc 1 903 0
 3835 0aee 734B     		ldr	r3, .L820+12
 3836 0af0 5A78     		ldrb	r2, [r3, #1]	@ zero_extendqisi2
 3837 0af2 714B     		ldr	r3, .L820+8
 3838 0af4 83F82F20 		strb	r2, [r3, #47]
 904:.\main.c      **** 									rf_mod[48]=0x46;
 3839              		.loc 1 904 0
 3840 0af8 6F4B     		ldr	r3, .L820+8
 3841 0afa 4622     		movs	r2, #70
 3842 0afc 83F83020 		strb	r2, [r3, #48]
 905:.\main.c      **** 									rf_mod[49]=fecha[0];
 3843              		.loc 1 905 0
 3844 0b00 6F4B     		ldr	r3, .L820+16
 3845 0b02 1A78     		ldrb	r2, [r3]	@ zero_extendqisi2
ARM GAS  C:\Users\Usuario\AppData\Local\Temp\ccuOhWMm.s 			page 86


 3846 0b04 6C4B     		ldr	r3, .L820+8
 3847 0b06 83F83120 		strb	r2, [r3, #49]
 906:.\main.c      **** 									rf_mod[50]=fecha[1];
 3848              		.loc 1 906 0
 3849 0b0a 6D4B     		ldr	r3, .L820+16
 3850 0b0c 5A78     		ldrb	r2, [r3, #1]	@ zero_extendqisi2
 3851 0b0e 6A4B     		ldr	r3, .L820+8
 3852 0b10 83F83220 		strb	r2, [r3, #50]
 907:.\main.c      **** 									rf_mod[51]=fecha[2];
 3853              		.loc 1 907 0
 3854 0b14 6A4B     		ldr	r3, .L820+16
 3855 0b16 9A78     		ldrb	r2, [r3, #2]	@ zero_extendqisi2
 3856 0b18 674B     		ldr	r3, .L820+8
 3857 0b1a 83F83320 		strb	r2, [r3, #51]
 908:.\main.c      **** 									rf_mod[52]=0x49;
 3858              		.loc 1 908 0
 3859 0b1e 664B     		ldr	r3, .L820+8
 3860 0b20 4922     		movs	r2, #73
 3861 0b22 83F83420 		strb	r2, [r3, #52]
 909:.\main.c      **** 									for(x=0;x<=7;x++){
 3862              		.loc 1 909 0
 3863 0b26 0023     		movs	r3, #0
 3864 0b28 A7F8F235 		strh	r3, [r7, #1522]	@ movhi
 3865 0b2c 0FE0     		b	.L238
 3866              	.L239:
 910:.\main.c      **** 										rf_mod[53+x]=rventa1.id[x];
 3867              		.loc 1 910 0 discriminator 3
 3868 0b2e B7F8F235 		ldrh	r3, [r7, #1522]
 3869 0b32 3533     		adds	r3, r3, #53
 3870 0b34 B7F8F225 		ldrh	r2, [r7, #1522]
 3871 0b38 5D49     		ldr	r1, .L820
 3872 0b3a 0A44     		add	r2, r2, r1
 3873 0b3c 92F82310 		ldrb	r1, [r2, #35]	@ zero_extendqisi2
 3874 0b40 5D4A     		ldr	r2, .L820+8
 3875 0b42 D154     		strb	r1, [r2, r3]
 909:.\main.c      **** 									for(x=0;x<=7;x++){
 3876              		.loc 1 909 0 discriminator 3
 3877 0b44 B7F8F235 		ldrh	r3, [r7, #1522]
 3878 0b48 0133     		adds	r3, r3, #1
 3879 0b4a A7F8F235 		strh	r3, [r7, #1522]	@ movhi
 3880              	.L238:
 909:.\main.c      **** 									for(x=0;x<=7;x++){
 3881              		.loc 1 909 0 is_stmt 0 discriminator 1
 3882 0b4e B7F8F235 		ldrh	r3, [r7, #1522]
 3883 0b52 072B     		cmp	r3, #7
 3884 0b54 EBD9     		bls	.L239
 911:.\main.c      **** 									}
 912:.\main.c      **** 									rf_mod[61]=0x4B;
 3885              		.loc 1 912 0 is_stmt 1
 3886 0b56 584B     		ldr	r3, .L820+8
 3887 0b58 4B22     		movs	r2, #75
 3888 0b5a 83F83D20 		strb	r2, [r3, #61]
 913:.\main.c      **** 									for(x=0;x<=9;x++){
 3889              		.loc 1 913 0
 3890 0b5e 0023     		movs	r3, #0
 3891 0b60 A7F8F235 		strh	r3, [r7, #1522]	@ movhi
 3892 0b64 10E0     		b	.L240
ARM GAS  C:\Users\Usuario\AppData\Local\Temp\ccuOhWMm.s 			page 87


 3893              	.L241:
 914:.\main.c      **** 										rf_mod[62+x]=rventa1.km[x+1];
 3894              		.loc 1 914 0 discriminator 3
 3895 0b66 B7F8F235 		ldrh	r3, [r7, #1522]
 3896 0b6a 3E33     		adds	r3, r3, #62
 3897 0b6c B7F8F225 		ldrh	r2, [r7, #1522]
 3898 0b70 0132     		adds	r2, r2, #1
 3899 0b72 4F49     		ldr	r1, .L820
 3900 0b74 0A44     		add	r2, r2, r1
 3901 0b76 92F83310 		ldrb	r1, [r2, #51]	@ zero_extendqisi2
 3902 0b7a 4F4A     		ldr	r2, .L820+8
 3903 0b7c D154     		strb	r1, [r2, r3]
 913:.\main.c      **** 									for(x=0;x<=9;x++){
 3904              		.loc 1 913 0 discriminator 3
 3905 0b7e B7F8F235 		ldrh	r3, [r7, #1522]
 3906 0b82 0133     		adds	r3, r3, #1
 3907 0b84 A7F8F235 		strh	r3, [r7, #1522]	@ movhi
 3908              	.L240:
 913:.\main.c      **** 									for(x=0;x<=9;x++){
 3909              		.loc 1 913 0 is_stmt 0 discriminator 1
 3910 0b88 B7F8F235 		ldrh	r3, [r7, #1522]
 3911 0b8c 092B     		cmp	r3, #9
 3912 0b8e EAD9     		bls	.L241
 915:.\main.c      **** 									}									
 916:.\main.c      **** 									rf_mod[72]=verificar_check(rf_mod,73);
 3913              		.loc 1 916 0 is_stmt 1
 3914 0b90 4948     		ldr	r0, .L820+8
 3915 0b92 4921     		movs	r1, #73
 3916 0b94 FFF7FEFF 		bl	verificar_check
 3917 0b98 0346     		mov	r3, r0
 3918 0b9a 1A46     		mov	r2, r3
 3919 0b9c 464B     		ldr	r3, .L820+8
 3920 0b9e 83F84820 		strb	r2, [r3, #72]
 917:.\main.c      **** 									ok_datosRF=1;
 3921              		.loc 1 917 0
 3922 0ba2 484B     		ldr	r3, .L820+20
 3923 0ba4 0122     		movs	r2, #1
 3924 0ba6 1A70     		strb	r2, [r3]
 918:.\main.c      **** 									size=73;
 3925              		.loc 1 918 0
 3926 0ba8 4923     		movs	r3, #73
 3927 0baa A7F8F635 		strh	r3, [r7, #1526]	@ movhi
 3928 0bae 3FE3     		b	.L242
 3929              	.L229:
 919:.\main.c      **** 								}
 920:.\main.c      **** 								else if(buffer_rf[3]==lado2.dir){
 3930              		.loc 1 920 0
 3931 0bb0 07F11003 		add	r3, r7, #16
 3932 0bb4 DA78     		ldrb	r2, [r3, #3]	@ zero_extendqisi2
 3933 0bb6 444B     		ldr	r3, .L820+24
 3934 0bb8 1B78     		ldrb	r3, [r3]
 3935 0bba DBB2     		uxtb	r3, r3
 3936 0bbc 9A42     		cmp	r2, r3
 3937 0bbe 40F01181 		bne	.L243
 921:.\main.c      **** 									rf_mod[4]=0xD9;
 3938              		.loc 1 921 0
 3939 0bc2 3D4B     		ldr	r3, .L820+8
ARM GAS  C:\Users\Usuario\AppData\Local\Temp\ccuOhWMm.s 			page 88


 3940 0bc4 D922     		movs	r2, #217
 3941 0bc6 1A71     		strb	r2, [r3, #4]
 922:.\main.c      **** 									rf_mod[5]=rventa2.manguera;	
 3942              		.loc 1 922 0
 3943 0bc8 404B     		ldr	r3, .L820+28
 3944 0bca 9A7E     		ldrb	r2, [r3, #26]	@ zero_extendqisi2
 3945 0bcc 3A4B     		ldr	r3, .L820+8
 3946 0bce 5A71     		strb	r2, [r3, #5]
 923:.\main.c      **** 									rf_mod[6]=rventa2.preset[0];
 3947              		.loc 1 923 0
 3948 0bd0 3E4B     		ldr	r3, .L820+28
 3949 0bd2 DA7E     		ldrb	r2, [r3, #27]	@ zero_extendqisi2
 3950 0bd4 384B     		ldr	r3, .L820+8
 3951 0bd6 9A71     		strb	r2, [r3, #6]
 924:.\main.c      **** 									for(x=1;x<=7;x++){
 3952              		.loc 1 924 0
 3953 0bd8 0123     		movs	r3, #1
 3954 0bda A7F8F235 		strh	r3, [r7, #1522]	@ movhi
 3955 0bde 0EE0     		b	.L244
 3956              	.L245:
 925:.\main.c      **** 										rf_mod[6+x]=rventa2.preset[x];
 3957              		.loc 1 925 0 discriminator 3
 3958 0be0 B7F8F235 		ldrh	r3, [r7, #1522]
 3959 0be4 0633     		adds	r3, r3, #6
 3960 0be6 B7F8F225 		ldrh	r2, [r7, #1522]
 3961 0bea 3849     		ldr	r1, .L820+28
 3962 0bec 0A44     		add	r2, r2, r1
 3963 0bee D17E     		ldrb	r1, [r2, #27]	@ zero_extendqisi2
 3964 0bf0 314A     		ldr	r2, .L820+8
 3965 0bf2 D154     		strb	r1, [r2, r3]
 924:.\main.c      **** 									for(x=1;x<=7;x++){
 3966              		.loc 1 924 0 discriminator 3
 3967 0bf4 B7F8F235 		ldrh	r3, [r7, #1522]
 3968 0bf8 0133     		adds	r3, r3, #1
 3969 0bfa A7F8F235 		strh	r3, [r7, #1522]	@ movhi
 3970              	.L244:
 924:.\main.c      **** 									for(x=1;x<=7;x++){
 3971              		.loc 1 924 0 is_stmt 0 discriminator 1
 3972 0bfe B7F8F235 		ldrh	r3, [r7, #1522]
 3973 0c02 072B     		cmp	r3, #7
 3974 0c04 ECD9     		bls	.L245
 926:.\main.c      **** 									}
 927:.\main.c      **** 									rf_mod[14]=0x54;
 3975              		.loc 1 927 0 is_stmt 1
 3976 0c06 2C4B     		ldr	r3, .L820+8
 3977 0c08 5422     		movs	r2, #84
 3978 0c0a 9A73     		strb	r2, [r3, #14]
 928:.\main.c      **** 									for(x=0;x<=11;x++){
 3979              		.loc 1 928 0
 3980 0c0c 0023     		movs	r3, #0
 3981 0c0e A7F8F235 		strh	r3, [r7, #1522]	@ movhi
 3982 0c12 1DE0     		b	.L246
 3983              	.L247:
 929:.\main.c      **** 										rf_mod[15+x]=((lado2.totales[rventa2.manguera-1][12+x])&0x0f);
 3984              		.loc 1 929 0 discriminator 3
 3985 0c14 B7F8F235 		ldrh	r3, [r7, #1522]
 3986 0c18 03F10F01 		add	r1, r3, #15
ARM GAS  C:\Users\Usuario\AppData\Local\Temp\ccuOhWMm.s 			page 89


 3987 0c1c 2B4B     		ldr	r3, .L820+28
 3988 0c1e 9B7E     		ldrb	r3, [r3, #26]	@ zero_extendqisi2
 3989 0c20 5A1E     		subs	r2, r3, #1
 3990 0c22 B7F8F235 		ldrh	r3, [r7, #1522]
 3991 0c26 03F10C00 		add	r0, r3, #12
 3992 0c2a 274C     		ldr	r4, .L820+24
 3993 0c2c 1346     		mov	r3, r2
 3994 0c2e 5B00     		lsls	r3, r3, #1
 3995 0c30 1344     		add	r3, r3, r2
 3996 0c32 DB00     		lsls	r3, r3, #3
 3997 0c34 0344     		add	r3, r3, r0
 3998 0c36 2344     		add	r3, r3, r4
 3999 0c38 9B78     		ldrb	r3, [r3, #2]
 4000 0c3a DBB2     		uxtb	r3, r3
 4001 0c3c 03F00F03 		and	r3, r3, #15
 4002 0c40 DAB2     		uxtb	r2, r3
 4003 0c42 1D4B     		ldr	r3, .L820+8
 4004 0c44 5A54     		strb	r2, [r3, r1]
 928:.\main.c      **** 									for(x=0;x<=11;x++){
 4005              		.loc 1 928 0 discriminator 3
 4006 0c46 B7F8F235 		ldrh	r3, [r7, #1522]
 4007 0c4a 0133     		adds	r3, r3, #1
 4008 0c4c A7F8F235 		strh	r3, [r7, #1522]	@ movhi
 4009              	.L246:
 928:.\main.c      **** 									for(x=0;x<=11;x++){
 4010              		.loc 1 928 0 is_stmt 0 discriminator 1
 4011 0c50 B7F8F235 		ldrh	r3, [r7, #1522]
 4012 0c54 0B2B     		cmp	r3, #11
 4013 0c56 DDD9     		bls	.L247
 930:.\main.c      **** 									}
 931:.\main.c      **** 									for(x=0;x<=11;x++){
 4014              		.loc 1 931 0 is_stmt 1
 4015 0c58 0023     		movs	r3, #0
 4016 0c5a A7F8F235 		strh	r3, [r7, #1522]	@ movhi
 4017 0c5e 1BE0     		b	.L248
 4018              	.L249:
 932:.\main.c      **** 										rf_mod[27+x]=((lado2.totales[rventa2.manguera-1][x])&0x0f);
 4019              		.loc 1 932 0 discriminator 3
 4020 0c60 B7F8F235 		ldrh	r3, [r7, #1522]
 4021 0c64 03F11B01 		add	r1, r3, #27
 4022 0c68 184B     		ldr	r3, .L820+28
 4023 0c6a 9B7E     		ldrb	r3, [r3, #26]	@ zero_extendqisi2
 4024 0c6c 5A1E     		subs	r2, r3, #1
 4025 0c6e B7F8F205 		ldrh	r0, [r7, #1522]
 4026 0c72 154C     		ldr	r4, .L820+24
 4027 0c74 1346     		mov	r3, r2
 4028 0c76 5B00     		lsls	r3, r3, #1
 4029 0c78 1344     		add	r3, r3, r2
 4030 0c7a DB00     		lsls	r3, r3, #3
 4031 0c7c 0344     		add	r3, r3, r0
 4032 0c7e 2344     		add	r3, r3, r4
 4033 0c80 9B78     		ldrb	r3, [r3, #2]
 4034 0c82 DBB2     		uxtb	r3, r3
 4035 0c84 03F00F03 		and	r3, r3, #15
 4036 0c88 DAB2     		uxtb	r2, r3
 4037 0c8a 0B4B     		ldr	r3, .L820+8
 4038 0c8c 5A54     		strb	r2, [r3, r1]
ARM GAS  C:\Users\Usuario\AppData\Local\Temp\ccuOhWMm.s 			page 90


 931:.\main.c      **** 										rf_mod[27+x]=((lado2.totales[rventa2.manguera-1][x])&0x0f);
 4039              		.loc 1 931 0 discriminator 3
 4040 0c8e B7F8F235 		ldrh	r3, [r7, #1522]
 4041 0c92 0133     		adds	r3, r3, #1
 4042 0c94 A7F8F235 		strh	r3, [r7, #1522]	@ movhi
 4043              	.L248:
 931:.\main.c      **** 										rf_mod[27+x]=((lado2.totales[rventa2.manguera-1][x])&0x0f);
 4044              		.loc 1 931 0 is_stmt 0 discriminator 1
 4045 0c98 B7F8F235 		ldrh	r3, [r7, #1522]
 4046 0c9c 0B2B     		cmp	r3, #11
 4047 0c9e DFD9     		bls	.L249
 933:.\main.c      **** 									}									
 934:.\main.c      **** 									rf_mod[39]=0x50;
 4048              		.loc 1 934 0 is_stmt 1
 4049 0ca0 054B     		ldr	r3, .L820+8
 4050 0ca2 5022     		movs	r2, #80
 4051 0ca4 83F82720 		strb	r2, [r3, #39]
 935:.\main.c      **** 									for(x=0;x<=4;x++){
 4052              		.loc 1 935 0
 4053 0ca8 0023     		movs	r3, #0
 4054 0caa A7F8F235 		strh	r3, [r7, #1522]	@ movhi
 4055 0cae 2BE0     		b	.L250
 4056              	.L821:
 4057              		.align	2
 4058              	.L820:
 4059 0cb0 00000000 		.word	rventa1
 4060 0cb4 00000000 		.word	lado1
 4061 0cb8 00000000 		.word	rf_mod
 4062 0cbc 00000000 		.word	hora
 4063 0cc0 00000000 		.word	fecha
 4064 0cc4 00000000 		.word	ok_datosRF
 4065 0cc8 00000000 		.word	lado2
 4066 0ccc 00000000 		.word	rventa2
 4067              	.L251:
 936:.\main.c      **** 										rf_mod[40+x]=((lado2.ppu[rventa2.manguera-1][x])&0x0f);
 4068              		.loc 1 936 0 discriminator 3
 4069 0cd0 B7F8F235 		ldrh	r3, [r7, #1522]
 4070 0cd4 03F12801 		add	r1, r3, #40
 4071 0cd8 B54B     		ldr	r3, .L822
 4072 0cda 9B7E     		ldrb	r3, [r3, #26]	@ zero_extendqisi2
 4073 0cdc 5A1E     		subs	r2, r3, #1
 4074 0cde B7F8F205 		ldrh	r0, [r7, #1522]
 4075 0ce2 B44C     		ldr	r4, .L822+4
 4076 0ce4 1346     		mov	r3, r2
 4077 0ce6 9B00     		lsls	r3, r3, #2
 4078 0ce8 1344     		add	r3, r3, r2
 4079 0cea 2344     		add	r3, r3, r4
 4080 0cec 0344     		add	r3, r3, r0
 4081 0cee 4833     		adds	r3, r3, #72
 4082 0cf0 9B78     		ldrb	r3, [r3, #2]
 4083 0cf2 DBB2     		uxtb	r3, r3
 4084 0cf4 03F00F03 		and	r3, r3, #15
 4085 0cf8 DAB2     		uxtb	r2, r3
 4086 0cfa AF4B     		ldr	r3, .L822+8
 4087 0cfc 5A54     		strb	r2, [r3, r1]
 935:.\main.c      **** 									for(x=0;x<=4;x++){
 4088              		.loc 1 935 0 discriminator 3
ARM GAS  C:\Users\Usuario\AppData\Local\Temp\ccuOhWMm.s 			page 91


 4089 0cfe B7F8F235 		ldrh	r3, [r7, #1522]
 4090 0d02 0133     		adds	r3, r3, #1
 4091 0d04 A7F8F235 		strh	r3, [r7, #1522]	@ movhi
 4092              	.L250:
 935:.\main.c      **** 									for(x=0;x<=4;x++){
 4093              		.loc 1 935 0 is_stmt 0 discriminator 1
 4094 0d08 B7F8F235 		ldrh	r3, [r7, #1522]
 4095 0d0c 042B     		cmp	r3, #4
 4096 0d0e DFD9     		bls	.L251
 937:.\main.c      **** 									}
 938:.\main.c      **** 									rf_mod[45]=0x48;
 4097              		.loc 1 938 0 is_stmt 1
 4098 0d10 A94B     		ldr	r3, .L822+8
 4099 0d12 4822     		movs	r2, #72
 4100 0d14 83F82D20 		strb	r2, [r3, #45]
 939:.\main.c      **** 									rf_mod[46]=hora[0];
 4101              		.loc 1 939 0
 4102 0d18 A84B     		ldr	r3, .L822+12
 4103 0d1a 1A78     		ldrb	r2, [r3]	@ zero_extendqisi2
 4104 0d1c A64B     		ldr	r3, .L822+8
 4105 0d1e 83F82E20 		strb	r2, [r3, #46]
 940:.\main.c      **** 									rf_mod[47]=hora[1];
 4106              		.loc 1 940 0
 4107 0d22 A64B     		ldr	r3, .L822+12
 4108 0d24 5A78     		ldrb	r2, [r3, #1]	@ zero_extendqisi2
 4109 0d26 A44B     		ldr	r3, .L822+8
 4110 0d28 83F82F20 		strb	r2, [r3, #47]
 941:.\main.c      **** 									rf_mod[48]=0x46;
 4111              		.loc 1 941 0
 4112 0d2c A24B     		ldr	r3, .L822+8
 4113 0d2e 4622     		movs	r2, #70
 4114 0d30 83F83020 		strb	r2, [r3, #48]
 942:.\main.c      **** 									rf_mod[49]=fecha[0];
 4115              		.loc 1 942 0
 4116 0d34 A24B     		ldr	r3, .L822+16
 4117 0d36 1A78     		ldrb	r2, [r3]	@ zero_extendqisi2
 4118 0d38 9F4B     		ldr	r3, .L822+8
 4119 0d3a 83F83120 		strb	r2, [r3, #49]
 943:.\main.c      **** 									rf_mod[50]=fecha[1];
 4120              		.loc 1 943 0
 4121 0d3e A04B     		ldr	r3, .L822+16
 4122 0d40 5A78     		ldrb	r2, [r3, #1]	@ zero_extendqisi2
 4123 0d42 9D4B     		ldr	r3, .L822+8
 4124 0d44 83F83220 		strb	r2, [r3, #50]
 944:.\main.c      **** 									rf_mod[51]=fecha[2];
 4125              		.loc 1 944 0
 4126 0d48 9D4B     		ldr	r3, .L822+16
 4127 0d4a 9A78     		ldrb	r2, [r3, #2]	@ zero_extendqisi2
 4128 0d4c 9A4B     		ldr	r3, .L822+8
 4129 0d4e 83F83320 		strb	r2, [r3, #51]
 945:.\main.c      **** 									rf_mod[52]=0x49;
 4130              		.loc 1 945 0
 4131 0d52 994B     		ldr	r3, .L822+8
 4132 0d54 4922     		movs	r2, #73
 4133 0d56 83F83420 		strb	r2, [r3, #52]
 946:.\main.c      **** 									for(x=0;x<=7;x++){
 4134              		.loc 1 946 0
ARM GAS  C:\Users\Usuario\AppData\Local\Temp\ccuOhWMm.s 			page 92


 4135 0d5a 0023     		movs	r3, #0
 4136 0d5c A7F8F235 		strh	r3, [r7, #1522]	@ movhi
 4137 0d60 0FE0     		b	.L252
 4138              	.L253:
 947:.\main.c      **** 										rf_mod[53+x]=rventa2.id[x];
 4139              		.loc 1 947 0 discriminator 3
 4140 0d62 B7F8F235 		ldrh	r3, [r7, #1522]
 4141 0d66 3533     		adds	r3, r3, #53
 4142 0d68 B7F8F225 		ldrh	r2, [r7, #1522]
 4143 0d6c 9049     		ldr	r1, .L822
 4144 0d6e 0A44     		add	r2, r2, r1
 4145 0d70 92F82310 		ldrb	r1, [r2, #35]	@ zero_extendqisi2
 4146 0d74 904A     		ldr	r2, .L822+8
 4147 0d76 D154     		strb	r1, [r2, r3]
 946:.\main.c      **** 									for(x=0;x<=7;x++){
 4148              		.loc 1 946 0 discriminator 3
 4149 0d78 B7F8F235 		ldrh	r3, [r7, #1522]
 4150 0d7c 0133     		adds	r3, r3, #1
 4151 0d7e A7F8F235 		strh	r3, [r7, #1522]	@ movhi
 4152              	.L252:
 946:.\main.c      **** 									for(x=0;x<=7;x++){
 4153              		.loc 1 946 0 is_stmt 0 discriminator 1
 4154 0d82 B7F8F235 		ldrh	r3, [r7, #1522]
 4155 0d86 072B     		cmp	r3, #7
 4156 0d88 EBD9     		bls	.L253
 948:.\main.c      **** 									}
 949:.\main.c      **** 									rf_mod[61]=0x4B;
 4157              		.loc 1 949 0 is_stmt 1
 4158 0d8a 8B4B     		ldr	r3, .L822+8
 4159 0d8c 4B22     		movs	r2, #75
 4160 0d8e 83F83D20 		strb	r2, [r3, #61]
 950:.\main.c      **** 									for(x=0;x<=9;x++){
 4161              		.loc 1 950 0
 4162 0d92 0023     		movs	r3, #0
 4163 0d94 A7F8F235 		strh	r3, [r7, #1522]	@ movhi
 4164 0d98 10E0     		b	.L254
 4165              	.L255:
 951:.\main.c      **** 										rf_mod[62+x]=rventa2.km[x+1];
 4166              		.loc 1 951 0 discriminator 3
 4167 0d9a B7F8F235 		ldrh	r3, [r7, #1522]
 4168 0d9e 3E33     		adds	r3, r3, #62
 4169 0da0 B7F8F225 		ldrh	r2, [r7, #1522]
 4170 0da4 0132     		adds	r2, r2, #1
 4171 0da6 8249     		ldr	r1, .L822
 4172 0da8 0A44     		add	r2, r2, r1
 4173 0daa 92F83310 		ldrb	r1, [r2, #51]	@ zero_extendqisi2
 4174 0dae 824A     		ldr	r2, .L822+8
 4175 0db0 D154     		strb	r1, [r2, r3]
 950:.\main.c      **** 									for(x=0;x<=9;x++){
 4176              		.loc 1 950 0 discriminator 3
 4177 0db2 B7F8F235 		ldrh	r3, [r7, #1522]
 4178 0db6 0133     		adds	r3, r3, #1
 4179 0db8 A7F8F235 		strh	r3, [r7, #1522]	@ movhi
 4180              	.L254:
 950:.\main.c      **** 									for(x=0;x<=9;x++){
 4181              		.loc 1 950 0 is_stmt 0 discriminator 1
 4182 0dbc B7F8F235 		ldrh	r3, [r7, #1522]
ARM GAS  C:\Users\Usuario\AppData\Local\Temp\ccuOhWMm.s 			page 93


 4183 0dc0 092B     		cmp	r3, #9
 4184 0dc2 EAD9     		bls	.L255
 952:.\main.c      **** 									}									
 953:.\main.c      **** 									rf_mod[72]=verificar_check(rf_mod,73);
 4185              		.loc 1 953 0 is_stmt 1
 4186 0dc4 7C48     		ldr	r0, .L822+8
 4187 0dc6 4921     		movs	r1, #73
 4188 0dc8 FFF7FEFF 		bl	verificar_check
 4189 0dcc 0346     		mov	r3, r0
 4190 0dce 1A46     		mov	r2, r3
 4191 0dd0 794B     		ldr	r3, .L822+8
 4192 0dd2 83F84820 		strb	r2, [r3, #72]
 954:.\main.c      **** 									ok_datosRF=1;
 4193              		.loc 1 954 0
 4194 0dd6 7B4B     		ldr	r3, .L822+20
 4195 0dd8 0122     		movs	r2, #1
 4196 0dda 1A70     		strb	r2, [r3]
 955:.\main.c      **** 									size=73;								
 4197              		.loc 1 955 0
 4198 0ddc 4923     		movs	r3, #73
 4199 0dde A7F8F635 		strh	r3, [r7, #1526]	@ movhi
 4200 0de2 25E2     		b	.L242
 4201              	.L243:
 956:.\main.c      **** 								}	
 957:.\main.c      **** 								else if (buffer_rf[3]==lado3.dir){
 4202              		.loc 1 957 0
 4203 0de4 07F11003 		add	r3, r7, #16
 4204 0de8 DA78     		ldrb	r2, [r3, #3]	@ zero_extendqisi2
 4205 0dea 774B     		ldr	r3, .L822+24
 4206 0dec 1B78     		ldrb	r3, [r3]
 4207 0dee DBB2     		uxtb	r3, r3
 4208 0df0 9A42     		cmp	r2, r3
 4209 0df2 40F01281 		bne	.L256
 958:.\main.c      **** 									rf_mod[4]=0xD9;
 4210              		.loc 1 958 0
 4211 0df6 704B     		ldr	r3, .L822+8
 4212 0df8 D922     		movs	r2, #217
 4213 0dfa 1A71     		strb	r2, [r3, #4]
 959:.\main.c      **** 									rf_mod[5]=rventa3.manguera;	
 4214              		.loc 1 959 0
 4215 0dfc 734B     		ldr	r3, .L822+28
 4216 0dfe 9A7E     		ldrb	r2, [r3, #26]	@ zero_extendqisi2
 4217 0e00 6D4B     		ldr	r3, .L822+8
 4218 0e02 5A71     		strb	r2, [r3, #5]
 960:.\main.c      **** 									rf_mod[6]=rventa3.preset[0];
 4219              		.loc 1 960 0
 4220 0e04 714B     		ldr	r3, .L822+28
 4221 0e06 DA7E     		ldrb	r2, [r3, #27]	@ zero_extendqisi2
 4222 0e08 6B4B     		ldr	r3, .L822+8
 4223 0e0a 9A71     		strb	r2, [r3, #6]
 961:.\main.c      **** 									for(x=1;x<=7;x++){
 4224              		.loc 1 961 0
 4225 0e0c 0123     		movs	r3, #1
 4226 0e0e A7F8F235 		strh	r3, [r7, #1522]	@ movhi
 4227 0e12 0EE0     		b	.L257
 4228              	.L258:
 962:.\main.c      **** 										rf_mod[6+x]=rventa3.preset[x];
ARM GAS  C:\Users\Usuario\AppData\Local\Temp\ccuOhWMm.s 			page 94


 4229              		.loc 1 962 0 discriminator 3
 4230 0e14 B7F8F235 		ldrh	r3, [r7, #1522]
 4231 0e18 0633     		adds	r3, r3, #6
 4232 0e1a B7F8F225 		ldrh	r2, [r7, #1522]
 4233 0e1e 6B49     		ldr	r1, .L822+28
 4234 0e20 0A44     		add	r2, r2, r1
 4235 0e22 D17E     		ldrb	r1, [r2, #27]	@ zero_extendqisi2
 4236 0e24 644A     		ldr	r2, .L822+8
 4237 0e26 D154     		strb	r1, [r2, r3]
 961:.\main.c      **** 									for(x=1;x<=7;x++){
 4238              		.loc 1 961 0 discriminator 3
 4239 0e28 B7F8F235 		ldrh	r3, [r7, #1522]
 4240 0e2c 0133     		adds	r3, r3, #1
 4241 0e2e A7F8F235 		strh	r3, [r7, #1522]	@ movhi
 4242              	.L257:
 961:.\main.c      **** 									for(x=1;x<=7;x++){
 4243              		.loc 1 961 0 is_stmt 0 discriminator 1
 4244 0e32 B7F8F235 		ldrh	r3, [r7, #1522]
 4245 0e36 072B     		cmp	r3, #7
 4246 0e38 ECD9     		bls	.L258
 963:.\main.c      **** 									}
 964:.\main.c      **** 									rf_mod[14]=0x54;
 4247              		.loc 1 964 0 is_stmt 1
 4248 0e3a 5F4B     		ldr	r3, .L822+8
 4249 0e3c 5422     		movs	r2, #84
 4250 0e3e 9A73     		strb	r2, [r3, #14]
 965:.\main.c      **** 									for(x=0;x<=11;x++){
 4251              		.loc 1 965 0
 4252 0e40 0023     		movs	r3, #0
 4253 0e42 A7F8F235 		strh	r3, [r7, #1522]	@ movhi
 4254 0e46 1DE0     		b	.L259
 4255              	.L260:
 966:.\main.c      **** 										rf_mod[15+x]=((lado3.totales[rventa3.manguera-1][12+x])&0x0f);
 4256              		.loc 1 966 0 discriminator 3
 4257 0e48 B7F8F235 		ldrh	r3, [r7, #1522]
 4258 0e4c 03F10F01 		add	r1, r3, #15
 4259 0e50 5E4B     		ldr	r3, .L822+28
 4260 0e52 9B7E     		ldrb	r3, [r3, #26]	@ zero_extendqisi2
 4261 0e54 5A1E     		subs	r2, r3, #1
 4262 0e56 B7F8F235 		ldrh	r3, [r7, #1522]
 4263 0e5a 03F10C00 		add	r0, r3, #12
 4264 0e5e 5A4C     		ldr	r4, .L822+24
 4265 0e60 1346     		mov	r3, r2
 4266 0e62 5B00     		lsls	r3, r3, #1
 4267 0e64 1344     		add	r3, r3, r2
 4268 0e66 DB00     		lsls	r3, r3, #3
 4269 0e68 0344     		add	r3, r3, r0
 4270 0e6a 2344     		add	r3, r3, r4
 4271 0e6c 9B78     		ldrb	r3, [r3, #2]
 4272 0e6e DBB2     		uxtb	r3, r3
 4273 0e70 03F00F03 		and	r3, r3, #15
 4274 0e74 DAB2     		uxtb	r2, r3
 4275 0e76 504B     		ldr	r3, .L822+8
 4276 0e78 5A54     		strb	r2, [r3, r1]
 965:.\main.c      **** 									for(x=0;x<=11;x++){
 4277              		.loc 1 965 0 discriminator 3
 4278 0e7a B7F8F235 		ldrh	r3, [r7, #1522]
ARM GAS  C:\Users\Usuario\AppData\Local\Temp\ccuOhWMm.s 			page 95


 4279 0e7e 0133     		adds	r3, r3, #1
 4280 0e80 A7F8F235 		strh	r3, [r7, #1522]	@ movhi
 4281              	.L259:
 965:.\main.c      **** 									for(x=0;x<=11;x++){
 4282              		.loc 1 965 0 is_stmt 0 discriminator 1
 4283 0e84 B7F8F235 		ldrh	r3, [r7, #1522]
 4284 0e88 0B2B     		cmp	r3, #11
 4285 0e8a DDD9     		bls	.L260
 967:.\main.c      **** 									}
 968:.\main.c      **** 									for(x=0;x<=11;x++){
 4286              		.loc 1 968 0 is_stmt 1
 4287 0e8c 0023     		movs	r3, #0
 4288 0e8e A7F8F235 		strh	r3, [r7, #1522]	@ movhi
 4289 0e92 1BE0     		b	.L261
 4290              	.L262:
 969:.\main.c      **** 										rf_mod[27+x]=((lado3.totales[rventa3.manguera-1][x])&0x0f);
 4291              		.loc 1 969 0 discriminator 3
 4292 0e94 B7F8F235 		ldrh	r3, [r7, #1522]
 4293 0e98 03F11B01 		add	r1, r3, #27
 4294 0e9c 4B4B     		ldr	r3, .L822+28
 4295 0e9e 9B7E     		ldrb	r3, [r3, #26]	@ zero_extendqisi2
 4296 0ea0 5A1E     		subs	r2, r3, #1
 4297 0ea2 B7F8F205 		ldrh	r0, [r7, #1522]
 4298 0ea6 484C     		ldr	r4, .L822+24
 4299 0ea8 1346     		mov	r3, r2
 4300 0eaa 5B00     		lsls	r3, r3, #1
 4301 0eac 1344     		add	r3, r3, r2
 4302 0eae DB00     		lsls	r3, r3, #3
 4303 0eb0 0344     		add	r3, r3, r0
 4304 0eb2 2344     		add	r3, r3, r4
 4305 0eb4 9B78     		ldrb	r3, [r3, #2]
 4306 0eb6 DBB2     		uxtb	r3, r3
 4307 0eb8 03F00F03 		and	r3, r3, #15
 4308 0ebc DAB2     		uxtb	r2, r3
 4309 0ebe 3E4B     		ldr	r3, .L822+8
 4310 0ec0 5A54     		strb	r2, [r3, r1]
 968:.\main.c      **** 										rf_mod[27+x]=((lado3.totales[rventa3.manguera-1][x])&0x0f);
 4311              		.loc 1 968 0 discriminator 3
 4312 0ec2 B7F8F235 		ldrh	r3, [r7, #1522]
 4313 0ec6 0133     		adds	r3, r3, #1
 4314 0ec8 A7F8F235 		strh	r3, [r7, #1522]	@ movhi
 4315              	.L261:
 968:.\main.c      **** 										rf_mod[27+x]=((lado3.totales[rventa3.manguera-1][x])&0x0f);
 4316              		.loc 1 968 0 is_stmt 0 discriminator 1
 4317 0ecc B7F8F235 		ldrh	r3, [r7, #1522]
 4318 0ed0 0B2B     		cmp	r3, #11
 4319 0ed2 DFD9     		bls	.L262
 970:.\main.c      **** 									}									
 971:.\main.c      **** 									rf_mod[39]=0x50;
 4320              		.loc 1 971 0 is_stmt 1
 4321 0ed4 384B     		ldr	r3, .L822+8
 4322 0ed6 5022     		movs	r2, #80
 4323 0ed8 83F82720 		strb	r2, [r3, #39]
 972:.\main.c      **** 									for(x=0;x<=4;x++){
 4324              		.loc 1 972 0
 4325 0edc 0023     		movs	r3, #0
 4326 0ede A7F8F235 		strh	r3, [r7, #1522]	@ movhi
ARM GAS  C:\Users\Usuario\AppData\Local\Temp\ccuOhWMm.s 			page 96


 4327 0ee2 1BE0     		b	.L263
 4328              	.L264:
 973:.\main.c      **** 										rf_mod[40+x]=((lado3.ppu[rventa3.manguera-1][x])&0x0f);
 4329              		.loc 1 973 0 discriminator 3
 4330 0ee4 B7F8F235 		ldrh	r3, [r7, #1522]
 4331 0ee8 03F12801 		add	r1, r3, #40
 4332 0eec 374B     		ldr	r3, .L822+28
 4333 0eee 9B7E     		ldrb	r3, [r3, #26]	@ zero_extendqisi2
 4334 0ef0 5A1E     		subs	r2, r3, #1
 4335 0ef2 B7F8F205 		ldrh	r0, [r7, #1522]
 4336 0ef6 344C     		ldr	r4, .L822+24
 4337 0ef8 1346     		mov	r3, r2
 4338 0efa 9B00     		lsls	r3, r3, #2
 4339 0efc 1344     		add	r3, r3, r2
 4340 0efe 2344     		add	r3, r3, r4
 4341 0f00 0344     		add	r3, r3, r0
 4342 0f02 4833     		adds	r3, r3, #72
 4343 0f04 9B78     		ldrb	r3, [r3, #2]
 4344 0f06 DBB2     		uxtb	r3, r3
 4345 0f08 03F00F03 		and	r3, r3, #15
 4346 0f0c DAB2     		uxtb	r2, r3
 4347 0f0e 2A4B     		ldr	r3, .L822+8
 4348 0f10 5A54     		strb	r2, [r3, r1]
 972:.\main.c      **** 									for(x=0;x<=4;x++){
 4349              		.loc 1 972 0 discriminator 3
 4350 0f12 B7F8F235 		ldrh	r3, [r7, #1522]
 4351 0f16 0133     		adds	r3, r3, #1
 4352 0f18 A7F8F235 		strh	r3, [r7, #1522]	@ movhi
 4353              	.L263:
 972:.\main.c      **** 									for(x=0;x<=4;x++){
 4354              		.loc 1 972 0 is_stmt 0 discriminator 1
 4355 0f1c B7F8F235 		ldrh	r3, [r7, #1522]
 4356 0f20 042B     		cmp	r3, #4
 4357 0f22 DFD9     		bls	.L264
 974:.\main.c      **** 									}
 975:.\main.c      **** 									rf_mod[45]=0x48;
 4358              		.loc 1 975 0 is_stmt 1
 4359 0f24 244B     		ldr	r3, .L822+8
 4360 0f26 4822     		movs	r2, #72
 4361 0f28 83F82D20 		strb	r2, [r3, #45]
 976:.\main.c      **** 									rf_mod[46]=hora[0];
 4362              		.loc 1 976 0
 4363 0f2c 234B     		ldr	r3, .L822+12
 4364 0f2e 1A78     		ldrb	r2, [r3]	@ zero_extendqisi2
 4365 0f30 214B     		ldr	r3, .L822+8
 4366 0f32 83F82E20 		strb	r2, [r3, #46]
 977:.\main.c      **** 									rf_mod[47]=hora[1];
 4367              		.loc 1 977 0
 4368 0f36 214B     		ldr	r3, .L822+12
 4369 0f38 5A78     		ldrb	r2, [r3, #1]	@ zero_extendqisi2
 4370 0f3a 1F4B     		ldr	r3, .L822+8
 4371 0f3c 83F82F20 		strb	r2, [r3, #47]
 978:.\main.c      **** 									rf_mod[48]=0x46;
 4372              		.loc 1 978 0
 4373 0f40 1D4B     		ldr	r3, .L822+8
 4374 0f42 4622     		movs	r2, #70
 4375 0f44 83F83020 		strb	r2, [r3, #48]
ARM GAS  C:\Users\Usuario\AppData\Local\Temp\ccuOhWMm.s 			page 97


 979:.\main.c      **** 									rf_mod[49]=fecha[0];
 4376              		.loc 1 979 0
 4377 0f48 1D4B     		ldr	r3, .L822+16
 4378 0f4a 1A78     		ldrb	r2, [r3]	@ zero_extendqisi2
 4379 0f4c 1A4B     		ldr	r3, .L822+8
 4380 0f4e 83F83120 		strb	r2, [r3, #49]
 980:.\main.c      **** 									rf_mod[50]=fecha[1];
 4381              		.loc 1 980 0
 4382 0f52 1B4B     		ldr	r3, .L822+16
 4383 0f54 5A78     		ldrb	r2, [r3, #1]	@ zero_extendqisi2
 4384 0f56 184B     		ldr	r3, .L822+8
 4385 0f58 83F83220 		strb	r2, [r3, #50]
 981:.\main.c      **** 									rf_mod[51]=fecha[2];
 4386              		.loc 1 981 0
 4387 0f5c 184B     		ldr	r3, .L822+16
 4388 0f5e 9A78     		ldrb	r2, [r3, #2]	@ zero_extendqisi2
 4389 0f60 154B     		ldr	r3, .L822+8
 4390 0f62 83F83320 		strb	r2, [r3, #51]
 982:.\main.c      **** 									rf_mod[52]=0x49;
 4391              		.loc 1 982 0
 4392 0f66 144B     		ldr	r3, .L822+8
 4393 0f68 4922     		movs	r2, #73
 4394 0f6a 83F83420 		strb	r2, [r3, #52]
 983:.\main.c      **** 									for(x=0;x<=7;x++){
 4395              		.loc 1 983 0
 4396 0f6e 0023     		movs	r3, #0
 4397 0f70 A7F8F235 		strh	r3, [r7, #1522]	@ movhi
 4398 0f74 0FE0     		b	.L265
 4399              	.L266:
 984:.\main.c      **** 										rf_mod[53+x]=rventa3.id[x];
 4400              		.loc 1 984 0 discriminator 3
 4401 0f76 B7F8F235 		ldrh	r3, [r7, #1522]
 4402 0f7a 3533     		adds	r3, r3, #53
 4403 0f7c B7F8F225 		ldrh	r2, [r7, #1522]
 4404 0f80 1249     		ldr	r1, .L822+28
 4405 0f82 0A44     		add	r2, r2, r1
 4406 0f84 92F82310 		ldrb	r1, [r2, #35]	@ zero_extendqisi2
 4407 0f88 0B4A     		ldr	r2, .L822+8
 4408 0f8a D154     		strb	r1, [r2, r3]
 983:.\main.c      **** 									for(x=0;x<=7;x++){
 4409              		.loc 1 983 0 discriminator 3
 4410 0f8c B7F8F235 		ldrh	r3, [r7, #1522]
 4411 0f90 0133     		adds	r3, r3, #1
 4412 0f92 A7F8F235 		strh	r3, [r7, #1522]	@ movhi
 4413              	.L265:
 983:.\main.c      **** 									for(x=0;x<=7;x++){
 4414              		.loc 1 983 0 is_stmt 0 discriminator 1
 4415 0f96 B7F8F235 		ldrh	r3, [r7, #1522]
 4416 0f9a 072B     		cmp	r3, #7
 4417 0f9c EBD9     		bls	.L266
 985:.\main.c      **** 									}
 986:.\main.c      **** 									rf_mod[61]=0x4B;
 4418              		.loc 1 986 0 is_stmt 1
 4419 0f9e 064B     		ldr	r3, .L822+8
 4420 0fa0 4B22     		movs	r2, #75
 4421 0fa2 83F83D20 		strb	r2, [r3, #61]
 987:.\main.c      **** 									for(x=0;x<=9;x++){
ARM GAS  C:\Users\Usuario\AppData\Local\Temp\ccuOhWMm.s 			page 98


 4422              		.loc 1 987 0
 4423 0fa6 0023     		movs	r3, #0
 4424 0fa8 A7F8F235 		strh	r3, [r7, #1522]	@ movhi
 4425 0fac 21E0     		b	.L267
 4426              	.L823:
 4427 0fae 00BF     		.align	2
 4428              	.L822:
 4429 0fb0 00000000 		.word	rventa2
 4430 0fb4 00000000 		.word	lado2
 4431 0fb8 00000000 		.word	rf_mod
 4432 0fbc 00000000 		.word	hora
 4433 0fc0 00000000 		.word	fecha
 4434 0fc4 00000000 		.word	ok_datosRF
 4435 0fc8 00000000 		.word	lado3
 4436 0fcc 00000000 		.word	rventa3
 4437              	.L268:
 988:.\main.c      **** 										rf_mod[62+x]=rventa3.km[x+1];
 4438              		.loc 1 988 0 discriminator 3
 4439 0fd0 B7F8F235 		ldrh	r3, [r7, #1522]
 4440 0fd4 3E33     		adds	r3, r3, #62
 4441 0fd6 B7F8F225 		ldrh	r2, [r7, #1522]
 4442 0fda 0132     		adds	r2, r2, #1
 4443 0fdc BF49     		ldr	r1, .L824
 4444 0fde 0A44     		add	r2, r2, r1
 4445 0fe0 92F83310 		ldrb	r1, [r2, #51]	@ zero_extendqisi2
 4446 0fe4 BE4A     		ldr	r2, .L824+4
 4447 0fe6 D154     		strb	r1, [r2, r3]
 987:.\main.c      **** 									for(x=0;x<=9;x++){
 4448              		.loc 1 987 0 discriminator 3
 4449 0fe8 B7F8F235 		ldrh	r3, [r7, #1522]
 4450 0fec 0133     		adds	r3, r3, #1
 4451 0fee A7F8F235 		strh	r3, [r7, #1522]	@ movhi
 4452              	.L267:
 987:.\main.c      **** 									for(x=0;x<=9;x++){
 4453              		.loc 1 987 0 is_stmt 0 discriminator 1
 4454 0ff2 B7F8F235 		ldrh	r3, [r7, #1522]
 4455 0ff6 092B     		cmp	r3, #9
 4456 0ff8 EAD9     		bls	.L268
 989:.\main.c      **** 									}									
 990:.\main.c      **** 									rf_mod[72]=verificar_check(rf_mod,73);
 4457              		.loc 1 990 0 is_stmt 1
 4458 0ffa B948     		ldr	r0, .L824+4
 4459 0ffc 4921     		movs	r1, #73
 4460 0ffe FFF7FEFF 		bl	verificar_check
 4461 1002 0346     		mov	r3, r0
 4462 1004 1A46     		mov	r2, r3
 4463 1006 B64B     		ldr	r3, .L824+4
 4464 1008 83F84820 		strb	r2, [r3, #72]
 991:.\main.c      **** 									ok_datosRF=1;
 4465              		.loc 1 991 0
 4466 100c B54B     		ldr	r3, .L824+8
 4467 100e 0122     		movs	r2, #1
 4468 1010 1A70     		strb	r2, [r3]
 992:.\main.c      **** 									size=73;								
 4469              		.loc 1 992 0
 4470 1012 4923     		movs	r3, #73
 4471 1014 A7F8F635 		strh	r3, [r7, #1526]	@ movhi
ARM GAS  C:\Users\Usuario\AppData\Local\Temp\ccuOhWMm.s 			page 99


 4472 1018 0AE1     		b	.L242
 4473              	.L256:
 993:.\main.c      **** 								}
 994:.\main.c      **** 								else if(buffer_rf[3]==lado4.dir){
 4474              		.loc 1 994 0
 4475 101a 07F11003 		add	r3, r7, #16
 4476 101e DA78     		ldrb	r2, [r3, #3]	@ zero_extendqisi2
 4477 1020 B14B     		ldr	r3, .L824+12
 4478 1022 1B78     		ldrb	r3, [r3]
 4479 1024 DBB2     		uxtb	r3, r3
 4480 1026 9A42     		cmp	r2, r3
 4481 1028 40F00281 		bne	.L242
 995:.\main.c      **** 									rf_mod[4]=0xD9;
 4482              		.loc 1 995 0
 4483 102c AC4B     		ldr	r3, .L824+4
 4484 102e D922     		movs	r2, #217
 4485 1030 1A71     		strb	r2, [r3, #4]
 996:.\main.c      **** 									rf_mod[5]=rventa4.manguera;	
 4486              		.loc 1 996 0
 4487 1032 AE4B     		ldr	r3, .L824+16
 4488 1034 9A7E     		ldrb	r2, [r3, #26]	@ zero_extendqisi2
 4489 1036 AA4B     		ldr	r3, .L824+4
 4490 1038 5A71     		strb	r2, [r3, #5]
 997:.\main.c      **** 									rf_mod[6]=rventa4.preset[0];
 4491              		.loc 1 997 0
 4492 103a AC4B     		ldr	r3, .L824+16
 4493 103c DA7E     		ldrb	r2, [r3, #27]	@ zero_extendqisi2
 4494 103e A84B     		ldr	r3, .L824+4
 4495 1040 9A71     		strb	r2, [r3, #6]
 998:.\main.c      **** 									for(x=1;x<=7;x++){
 4496              		.loc 1 998 0
 4497 1042 0123     		movs	r3, #1
 4498 1044 A7F8F235 		strh	r3, [r7, #1522]	@ movhi
 4499 1048 0EE0     		b	.L269
 4500              	.L270:
 999:.\main.c      **** 										rf_mod[6+x]=rventa4.preset[x];
 4501              		.loc 1 999 0 discriminator 3
 4502 104a B7F8F235 		ldrh	r3, [r7, #1522]
 4503 104e 0633     		adds	r3, r3, #6
 4504 1050 B7F8F225 		ldrh	r2, [r7, #1522]
 4505 1054 A549     		ldr	r1, .L824+16
 4506 1056 0A44     		add	r2, r2, r1
 4507 1058 D17E     		ldrb	r1, [r2, #27]	@ zero_extendqisi2
 4508 105a A14A     		ldr	r2, .L824+4
 4509 105c D154     		strb	r1, [r2, r3]
 998:.\main.c      **** 									for(x=1;x<=7;x++){
 4510              		.loc 1 998 0 discriminator 3
 4511 105e B7F8F235 		ldrh	r3, [r7, #1522]
 4512 1062 0133     		adds	r3, r3, #1
 4513 1064 A7F8F235 		strh	r3, [r7, #1522]	@ movhi
 4514              	.L269:
 998:.\main.c      **** 									for(x=1;x<=7;x++){
 4515              		.loc 1 998 0 is_stmt 0 discriminator 1
 4516 1068 B7F8F235 		ldrh	r3, [r7, #1522]
 4517 106c 072B     		cmp	r3, #7
 4518 106e ECD9     		bls	.L270
1000:.\main.c      **** 									}
ARM GAS  C:\Users\Usuario\AppData\Local\Temp\ccuOhWMm.s 			page 100


1001:.\main.c      **** 									rf_mod[14]=0x54;
 4519              		.loc 1 1001 0 is_stmt 1
 4520 1070 9B4B     		ldr	r3, .L824+4
 4521 1072 5422     		movs	r2, #84
 4522 1074 9A73     		strb	r2, [r3, #14]
1002:.\main.c      **** 									for(x=0;x<=11;x++){
 4523              		.loc 1 1002 0
 4524 1076 0023     		movs	r3, #0
 4525 1078 A7F8F235 		strh	r3, [r7, #1522]	@ movhi
 4526 107c 1DE0     		b	.L271
 4527              	.L272:
1003:.\main.c      **** 										rf_mod[15+x]=((lado4.totales[rventa4.manguera-1][12+x])&0x0f);
 4528              		.loc 1 1003 0 discriminator 3
 4529 107e B7F8F235 		ldrh	r3, [r7, #1522]
 4530 1082 03F10F01 		add	r1, r3, #15
 4531 1086 994B     		ldr	r3, .L824+16
 4532 1088 9B7E     		ldrb	r3, [r3, #26]	@ zero_extendqisi2
 4533 108a 5A1E     		subs	r2, r3, #1
 4534 108c B7F8F235 		ldrh	r3, [r7, #1522]
 4535 1090 03F10C00 		add	r0, r3, #12
 4536 1094 944C     		ldr	r4, .L824+12
 4537 1096 1346     		mov	r3, r2
 4538 1098 5B00     		lsls	r3, r3, #1
 4539 109a 1344     		add	r3, r3, r2
 4540 109c DB00     		lsls	r3, r3, #3
 4541 109e 0344     		add	r3, r3, r0
 4542 10a0 2344     		add	r3, r3, r4
 4543 10a2 9B78     		ldrb	r3, [r3, #2]
 4544 10a4 DBB2     		uxtb	r3, r3
 4545 10a6 03F00F03 		and	r3, r3, #15
 4546 10aa DAB2     		uxtb	r2, r3
 4547 10ac 8C4B     		ldr	r3, .L824+4
 4548 10ae 5A54     		strb	r2, [r3, r1]
1002:.\main.c      **** 									for(x=0;x<=11;x++){
 4549              		.loc 1 1002 0 discriminator 3
 4550 10b0 B7F8F235 		ldrh	r3, [r7, #1522]
 4551 10b4 0133     		adds	r3, r3, #1
 4552 10b6 A7F8F235 		strh	r3, [r7, #1522]	@ movhi
 4553              	.L271:
1002:.\main.c      **** 									for(x=0;x<=11;x++){
 4554              		.loc 1 1002 0 is_stmt 0 discriminator 1
 4555 10ba B7F8F235 		ldrh	r3, [r7, #1522]
 4556 10be 0B2B     		cmp	r3, #11
 4557 10c0 DDD9     		bls	.L272
1004:.\main.c      **** 									}
1005:.\main.c      **** 									for(x=0;x<=11;x++){
 4558              		.loc 1 1005 0 is_stmt 1
 4559 10c2 0023     		movs	r3, #0
 4560 10c4 A7F8F235 		strh	r3, [r7, #1522]	@ movhi
 4561 10c8 1BE0     		b	.L273
 4562              	.L274:
1006:.\main.c      **** 										rf_mod[27+x]=((lado4.totales[rventa4.manguera-1][x])&0x0f);
 4563              		.loc 1 1006 0 discriminator 3
 4564 10ca B7F8F235 		ldrh	r3, [r7, #1522]
 4565 10ce 03F11B01 		add	r1, r3, #27
 4566 10d2 864B     		ldr	r3, .L824+16
 4567 10d4 9B7E     		ldrb	r3, [r3, #26]	@ zero_extendqisi2
ARM GAS  C:\Users\Usuario\AppData\Local\Temp\ccuOhWMm.s 			page 101


 4568 10d6 5A1E     		subs	r2, r3, #1
 4569 10d8 B7F8F205 		ldrh	r0, [r7, #1522]
 4570 10dc 824C     		ldr	r4, .L824+12
 4571 10de 1346     		mov	r3, r2
 4572 10e0 5B00     		lsls	r3, r3, #1
 4573 10e2 1344     		add	r3, r3, r2
 4574 10e4 DB00     		lsls	r3, r3, #3
 4575 10e6 0344     		add	r3, r3, r0
 4576 10e8 2344     		add	r3, r3, r4
 4577 10ea 9B78     		ldrb	r3, [r3, #2]
 4578 10ec DBB2     		uxtb	r3, r3
 4579 10ee 03F00F03 		and	r3, r3, #15
 4580 10f2 DAB2     		uxtb	r2, r3
 4581 10f4 7A4B     		ldr	r3, .L824+4
 4582 10f6 5A54     		strb	r2, [r3, r1]
1005:.\main.c      **** 										rf_mod[27+x]=((lado4.totales[rventa4.manguera-1][x])&0x0f);
 4583              		.loc 1 1005 0 discriminator 3
 4584 10f8 B7F8F235 		ldrh	r3, [r7, #1522]
 4585 10fc 0133     		adds	r3, r3, #1
 4586 10fe A7F8F235 		strh	r3, [r7, #1522]	@ movhi
 4587              	.L273:
1005:.\main.c      **** 										rf_mod[27+x]=((lado4.totales[rventa4.manguera-1][x])&0x0f);
 4588              		.loc 1 1005 0 is_stmt 0 discriminator 1
 4589 1102 B7F8F235 		ldrh	r3, [r7, #1522]
 4590 1106 0B2B     		cmp	r3, #11
 4591 1108 DFD9     		bls	.L274
1007:.\main.c      **** 									}									
1008:.\main.c      **** 									rf_mod[39]=0x50;
 4592              		.loc 1 1008 0 is_stmt 1
 4593 110a 754B     		ldr	r3, .L824+4
 4594 110c 5022     		movs	r2, #80
 4595 110e 83F82720 		strb	r2, [r3, #39]
1009:.\main.c      **** 									for(x=0;x<=4;x++){
 4596              		.loc 1 1009 0
 4597 1112 0023     		movs	r3, #0
 4598 1114 A7F8F235 		strh	r3, [r7, #1522]	@ movhi
 4599 1118 1BE0     		b	.L275
 4600              	.L276:
1010:.\main.c      **** 										rf_mod[40+x]=((lado4.ppu[rventa4.manguera-1][x])&0x0f);
 4601              		.loc 1 1010 0 discriminator 3
 4602 111a B7F8F235 		ldrh	r3, [r7, #1522]
 4603 111e 03F12801 		add	r1, r3, #40
 4604 1122 724B     		ldr	r3, .L824+16
 4605 1124 9B7E     		ldrb	r3, [r3, #26]	@ zero_extendqisi2
 4606 1126 5A1E     		subs	r2, r3, #1
 4607 1128 B7F8F205 		ldrh	r0, [r7, #1522]
 4608 112c 6E4C     		ldr	r4, .L824+12
 4609 112e 1346     		mov	r3, r2
 4610 1130 9B00     		lsls	r3, r3, #2
 4611 1132 1344     		add	r3, r3, r2
 4612 1134 2344     		add	r3, r3, r4
 4613 1136 0344     		add	r3, r3, r0
 4614 1138 4833     		adds	r3, r3, #72
 4615 113a 9B78     		ldrb	r3, [r3, #2]
 4616 113c DBB2     		uxtb	r3, r3
 4617 113e 03F00F03 		and	r3, r3, #15
 4618 1142 DAB2     		uxtb	r2, r3
ARM GAS  C:\Users\Usuario\AppData\Local\Temp\ccuOhWMm.s 			page 102


 4619 1144 664B     		ldr	r3, .L824+4
 4620 1146 5A54     		strb	r2, [r3, r1]
1009:.\main.c      **** 									for(x=0;x<=4;x++){
 4621              		.loc 1 1009 0 discriminator 3
 4622 1148 B7F8F235 		ldrh	r3, [r7, #1522]
 4623 114c 0133     		adds	r3, r3, #1
 4624 114e A7F8F235 		strh	r3, [r7, #1522]	@ movhi
 4625              	.L275:
1009:.\main.c      **** 									for(x=0;x<=4;x++){
 4626              		.loc 1 1009 0 is_stmt 0 discriminator 1
 4627 1152 B7F8F235 		ldrh	r3, [r7, #1522]
 4628 1156 042B     		cmp	r3, #4
 4629 1158 DFD9     		bls	.L276
1011:.\main.c      **** 									}
1012:.\main.c      **** 									rf_mod[45]=0x48;
 4630              		.loc 1 1012 0 is_stmt 1
 4631 115a 614B     		ldr	r3, .L824+4
 4632 115c 4822     		movs	r2, #72
 4633 115e 83F82D20 		strb	r2, [r3, #45]
1013:.\main.c      **** 									rf_mod[46]=hora[0];
 4634              		.loc 1 1013 0
 4635 1162 634B     		ldr	r3, .L824+20
 4636 1164 1A78     		ldrb	r2, [r3]	@ zero_extendqisi2
 4637 1166 5E4B     		ldr	r3, .L824+4
 4638 1168 83F82E20 		strb	r2, [r3, #46]
1014:.\main.c      **** 									rf_mod[47]=hora[1];
 4639              		.loc 1 1014 0
 4640 116c 604B     		ldr	r3, .L824+20
 4641 116e 5A78     		ldrb	r2, [r3, #1]	@ zero_extendqisi2
 4642 1170 5B4B     		ldr	r3, .L824+4
 4643 1172 83F82F20 		strb	r2, [r3, #47]
1015:.\main.c      **** 									rf_mod[48]=0x46;
 4644              		.loc 1 1015 0
 4645 1176 5A4B     		ldr	r3, .L824+4
 4646 1178 4622     		movs	r2, #70
 4647 117a 83F83020 		strb	r2, [r3, #48]
1016:.\main.c      **** 									rf_mod[49]=fecha[0];
 4648              		.loc 1 1016 0
 4649 117e 5D4B     		ldr	r3, .L824+24
 4650 1180 1A78     		ldrb	r2, [r3]	@ zero_extendqisi2
 4651 1182 574B     		ldr	r3, .L824+4
 4652 1184 83F83120 		strb	r2, [r3, #49]
1017:.\main.c      **** 									rf_mod[50]=fecha[1];
 4653              		.loc 1 1017 0
 4654 1188 5A4B     		ldr	r3, .L824+24
 4655 118a 5A78     		ldrb	r2, [r3, #1]	@ zero_extendqisi2
 4656 118c 544B     		ldr	r3, .L824+4
 4657 118e 83F83220 		strb	r2, [r3, #50]
1018:.\main.c      **** 									rf_mod[51]=fecha[2];
 4658              		.loc 1 1018 0
 4659 1192 584B     		ldr	r3, .L824+24
 4660 1194 9A78     		ldrb	r2, [r3, #2]	@ zero_extendqisi2
 4661 1196 524B     		ldr	r3, .L824+4
 4662 1198 83F83320 		strb	r2, [r3, #51]
1019:.\main.c      **** 									rf_mod[52]=0x49;
 4663              		.loc 1 1019 0
 4664 119c 504B     		ldr	r3, .L824+4
ARM GAS  C:\Users\Usuario\AppData\Local\Temp\ccuOhWMm.s 			page 103


 4665 119e 4922     		movs	r2, #73
 4666 11a0 83F83420 		strb	r2, [r3, #52]
1020:.\main.c      **** 									for(x=0;x<=7;x++){
 4667              		.loc 1 1020 0
 4668 11a4 0023     		movs	r3, #0
 4669 11a6 A7F8F235 		strh	r3, [r7, #1522]	@ movhi
 4670 11aa 0FE0     		b	.L277
 4671              	.L278:
1021:.\main.c      **** 										rf_mod[53+x]=rventa4.id[x];
 4672              		.loc 1 1021 0 discriminator 3
 4673 11ac B7F8F235 		ldrh	r3, [r7, #1522]
 4674 11b0 3533     		adds	r3, r3, #53
 4675 11b2 B7F8F225 		ldrh	r2, [r7, #1522]
 4676 11b6 4D49     		ldr	r1, .L824+16
 4677 11b8 0A44     		add	r2, r2, r1
 4678 11ba 92F82310 		ldrb	r1, [r2, #35]	@ zero_extendqisi2
 4679 11be 484A     		ldr	r2, .L824+4
 4680 11c0 D154     		strb	r1, [r2, r3]
1020:.\main.c      **** 									for(x=0;x<=7;x++){
 4681              		.loc 1 1020 0 discriminator 3
 4682 11c2 B7F8F235 		ldrh	r3, [r7, #1522]
 4683 11c6 0133     		adds	r3, r3, #1
 4684 11c8 A7F8F235 		strh	r3, [r7, #1522]	@ movhi
 4685              	.L277:
1020:.\main.c      **** 									for(x=0;x<=7;x++){
 4686              		.loc 1 1020 0 is_stmt 0 discriminator 1
 4687 11cc B7F8F235 		ldrh	r3, [r7, #1522]
 4688 11d0 072B     		cmp	r3, #7
 4689 11d2 EBD9     		bls	.L278
1022:.\main.c      **** 									}
1023:.\main.c      **** 									rf_mod[61]=0x4B;
 4690              		.loc 1 1023 0 is_stmt 1
 4691 11d4 424B     		ldr	r3, .L824+4
 4692 11d6 4B22     		movs	r2, #75
 4693 11d8 83F83D20 		strb	r2, [r3, #61]
1024:.\main.c      **** 									for(x=0;x<=9;x++){
 4694              		.loc 1 1024 0
 4695 11dc 0023     		movs	r3, #0
 4696 11de A7F8F235 		strh	r3, [r7, #1522]	@ movhi
 4697 11e2 10E0     		b	.L279
 4698              	.L280:
1025:.\main.c      **** 										rf_mod[62+x]=rventa4.km[x+1];
 4699              		.loc 1 1025 0 discriminator 3
 4700 11e4 B7F8F235 		ldrh	r3, [r7, #1522]
 4701 11e8 3E33     		adds	r3, r3, #62
 4702 11ea B7F8F225 		ldrh	r2, [r7, #1522]
 4703 11ee 0132     		adds	r2, r2, #1
 4704 11f0 3E49     		ldr	r1, .L824+16
 4705 11f2 0A44     		add	r2, r2, r1
 4706 11f4 92F83310 		ldrb	r1, [r2, #51]	@ zero_extendqisi2
 4707 11f8 394A     		ldr	r2, .L824+4
 4708 11fa D154     		strb	r1, [r2, r3]
1024:.\main.c      **** 									for(x=0;x<=9;x++){
 4709              		.loc 1 1024 0 discriminator 3
 4710 11fc B7F8F235 		ldrh	r3, [r7, #1522]
 4711 1200 0133     		adds	r3, r3, #1
 4712 1202 A7F8F235 		strh	r3, [r7, #1522]	@ movhi
ARM GAS  C:\Users\Usuario\AppData\Local\Temp\ccuOhWMm.s 			page 104


 4713              	.L279:
1024:.\main.c      **** 									for(x=0;x<=9;x++){
 4714              		.loc 1 1024 0 is_stmt 0 discriminator 1
 4715 1206 B7F8F235 		ldrh	r3, [r7, #1522]
 4716 120a 092B     		cmp	r3, #9
 4717 120c EAD9     		bls	.L280
1026:.\main.c      **** 									}									
1027:.\main.c      **** 									rf_mod[72]=verificar_check(rf_mod,73);
 4718              		.loc 1 1027 0 is_stmt 1
 4719 120e 3448     		ldr	r0, .L824+4
 4720 1210 4921     		movs	r1, #73
 4721 1212 FFF7FEFF 		bl	verificar_check
 4722 1216 0346     		mov	r3, r0
 4723 1218 1A46     		mov	r2, r3
 4724 121a 314B     		ldr	r3, .L824+4
 4725 121c 83F84820 		strb	r2, [r3, #72]
1028:.\main.c      **** 									ok_datosRF=1;
 4726              		.loc 1 1028 0
 4727 1220 304B     		ldr	r3, .L824+8
 4728 1222 0122     		movs	r2, #1
 4729 1224 1A70     		strb	r2, [r3]
1029:.\main.c      **** 									size=73;								
 4730              		.loc 1 1029 0
 4731 1226 4923     		movs	r3, #73
 4732 1228 A7F8F635 		strh	r3, [r7, #1526]	@ movhi
1030:.\main.c      **** 								}
1031:.\main.c      **** 							break;
 4733              		.loc 1 1031 0
 4734 122c 05F037B8 		b	.L165
 4735              	.L242:
 4736 1230 05F035B8 		b	.L165
 4737              	.L176:
1032:.\main.c      **** 								
1033:.\main.c      **** 							case cventa:
1034:.\main.c      **** 								if(buffer_rf[3]==lado1.dir){
 4738              		.loc 1 1034 0
 4739 1234 07F11003 		add	r3, r7, #16
 4740 1238 DA78     		ldrb	r2, [r3, #3]	@ zero_extendqisi2
 4741 123a 2F4B     		ldr	r3, .L824+28
 4742 123c 1B78     		ldrb	r3, [r3]
 4743 123e DBB2     		uxtb	r3, r3
 4744 1240 9A42     		cmp	r2, r3
 4745 1242 40F05F81 		bne	.L281
1035:.\main.c      **** 									rf_mod[4]=0xDA;
 4746              		.loc 1 1035 0
 4747 1246 264B     		ldr	r3, .L824+4
 4748 1248 DA22     		movs	r2, #218
 4749 124a 1A71     		strb	r2, [r3, #4]
1036:.\main.c      **** 									rf_mod[5]=rventa1.producto;	
 4750              		.loc 1 1036 0
 4751 124c 2B4B     		ldr	r3, .L824+32
 4752 124e 5A7E     		ldrb	r2, [r3, #25]	@ zero_extendqisi2
 4753 1250 234B     		ldr	r3, .L824+4
 4754 1252 5A71     		strb	r2, [r3, #5]
1037:.\main.c      **** 									rf_mod[6]=0x44;
 4755              		.loc 1 1037 0
 4756 1254 224B     		ldr	r3, .L824+4
ARM GAS  C:\Users\Usuario\AppData\Local\Temp\ccuOhWMm.s 			page 105


 4757 1256 4422     		movs	r2, #68
 4758 1258 9A71     		strb	r2, [r3, #6]
1038:.\main.c      **** 									if(version[1]==6){
 4759              		.loc 1 1038 0
 4760 125a 294B     		ldr	r3, .L824+36
 4761 125c 5B78     		ldrb	r3, [r3, #1]
 4762 125e DBB2     		uxtb	r3, r3
 4763 1260 062B     		cmp	r3, #6
 4764 1262 1AD1     		bne	.L282
1039:.\main.c      **** 										for(x=0;x<=6;x++){
 4765              		.loc 1 1039 0
 4766 1264 0023     		movs	r3, #0
 4767 1266 A7F8F235 		strh	r3, [r7, #1522]	@ movhi
 4768 126a 11E0     		b	.L283
 4769              	.L284:
1040:.\main.c      **** 											rf_mod[7+x]=rventa1.dinero[x] & 0x0f;
 4770              		.loc 1 1040 0 discriminator 3
 4771 126c B7F8F235 		ldrh	r3, [r7, #1522]
 4772 1270 0733     		adds	r3, r3, #7
 4773 1272 B7F8F225 		ldrh	r2, [r7, #1522]
 4774 1276 2149     		ldr	r1, .L824+32
 4775 1278 0A44     		add	r2, r2, r1
 4776 127a D279     		ldrb	r2, [r2, #7]	@ zero_extendqisi2
 4777 127c 02F00F02 		and	r2, r2, #15
 4778 1280 D1B2     		uxtb	r1, r2
 4779 1282 174A     		ldr	r2, .L824+4
 4780 1284 D154     		strb	r1, [r2, r3]
1039:.\main.c      **** 										for(x=0;x<=6;x++){
 4781              		.loc 1 1039 0 discriminator 3
 4782 1286 B7F8F235 		ldrh	r3, [r7, #1522]
 4783 128a 0133     		adds	r3, r3, #1
 4784 128c A7F8F235 		strh	r3, [r7, #1522]	@ movhi
 4785              	.L283:
1039:.\main.c      **** 										for(x=0;x<=6;x++){
 4786              		.loc 1 1039 0 is_stmt 0 discriminator 1
 4787 1290 B7F8F235 		ldrh	r3, [r7, #1522]
 4788 1294 062B     		cmp	r3, #6
