ARM GAS  C:\Users\RECEPC~1\AppData\Local\Temp\cc8UvDJn.s 			page 1


   1              		.syntax unified
   2              		.cpu cortex-m3
   3              		.fpu softvfp
   4              		.eabi_attribute 20, 1
   5              		.eabi_attribute 21, 1
   6              		.eabi_attribute 23, 3
   7              		.eabi_attribute 24, 1
   8              		.eabi_attribute 25, 1
   9              		.eabi_attribute 26, 1
  10              		.eabi_attribute 30, 6
  11              		.eabi_attribute 34, 1
  12              		.eabi_attribute 18, 4
  13              		.thumb
  14              		.file	"I2C.c"
  15              		.text
  16              	.Ltext0:
  17              		.cfi_sections	.debug_frame
  18              		.comm	count_teclas1,1,1
  19              		.comm	comas1,1,1
  20              		.comm	comas2,1,1
  21              		.comm	id_coma1,1,1
  22              		.comm	id_teclado1,1,1
  23              		.comm	count_teclas2,1,1
  24              		.comm	id_coma2,1,1
  25              		.comm	id_teclado2,1,1
  26              		.comm	posx1,2,2
  27              		.comm	posy1,2,2
  28              		.comm	sizeletra1,2,2
  29              		.comm	posx2,2,2
  30              		.comm	posy2,2,2
  31              		.comm	sizeletra2,2,2
  32              		.comm	teclas1,1,1
  33              		.comm	teclas2,1,1
  34              		.comm	flujo_LCD1,1,1
  35              		.comm	flujo_LCD2,1,1
  36              		.comm	flujo_LCD3,1,1
  37              		.comm	flujo_LCD4,1,1
  38              		.comm	Buffer_LCD1,30,4
  39              		.comm	Buffer_LCD2,30,4
  40              		.comm	count_protector,1,1
  41              		.comm	count_protector2,1,1
  42              		.comm	password_lcd,9,4
  43              		.comm	imagen_grado1,2,2
  44              		.comm	imagen_grado2,2,2
  45              		.comm	imagen_grado3,2,2
  46              		.comm	imagen_grado4,2,2
  47              		.comm	prox_caso,16,4
  48              		.comm	bloqueo_LCD,3,4
  49              		.comm	ppux10,1,1
  50              		.comm	nombre_pro1,17,4
  51              		.comm	nombre_pro2,17,4
  52              		.comm	nombre_pro3,17,4
  53              		.comm	version,4,4
  54              		.comm	lado1,93,4
  55              		.comm	lado2,93,4
  56              		.comm	lado3,93,4
  57              		.comm	lado4,93,4
ARM GAS  C:\Users\RECEPC~1\AppData\Local\Temp\cc8UvDJn.s 			page 2


  58              		.comm	nombre,33,4
  59              		.comm	nit,15,4
  60              		.comm	telefono,20,4
  61              		.comm	direccion,33,4
  62              		.comm	lema1,32,4
  63              		.comm	lema2,32,4
  64              		.comm	id_logo,2,4
  65              		.comm	km,2,4
  66              		.comm	fecha,3,4
  67              		.comm	hora,2,4
  68              		.comm	rventa1,97,4
  69              		.comm	rventa2,97,4
  70              		.comm	rventa3,97,4
  71              		.comm	rventa4,97,4
  72              		.comm	ok_RF,1,1
  73              		.comm	ok_datosRF,1,1
  74              		.comm	rf_mod,200,4
  75              		.comm	buffer_i2c,64,4
  76              		.comm	crc_total,1,1
  77              		.comm	print1,2,4
  78              		.comm	print2,2,4
  79              		.section	.text.leer_hora,"ax",%progbits
  80              		.align	2
  81              		.global	leer_hora
  82              		.thumb
  83              		.thumb_func
  84              		.type	leer_hora, %function
  85              	leer_hora:
  86              	.LFB63:
  87              		.file 1 ".\\I2C.c"
   1:.\I2C.c       **** /*
   2:.\I2C.c       **** ***************************************************************************************************
   3:.\I2C.c       **** *                                           GRP550/700 CODE
   4:.\I2C.c       **** *
   5:.\I2C.c       **** *                             (c) Copyright 2013; Sistemas Insepet LTDA
   6:.\I2C.c       **** *
   7:.\I2C.c       **** *               All rights reserved.  Protected by international copyright laws.
   8:.\I2C.c       **** *               Knowledge of the source code may NOT be used to develop a similar product.
   9:.\I2C.c       **** *               Please help us continue to provide the Embedded community with the finest
  10:.\I2C.c       **** *               software available.  Your honesty is greatly appreciated.
  11:.\I2C.c       **** ***************************************************************************************************
  12:.\I2C.c       **** */
  13:.\I2C.c       **** 
  14:.\I2C.c       **** /*
  15:.\I2C.c       **** ***************************************************************************************************
  16:.\I2C.c       **** *
  17:.\I2C.c       **** *                                             GRP550/700 CODE
  18:.\I2C.c       **** *
  19:.\I2C.c       **** *                                             CYPRESS PSoC5LP
  20:.\I2C.c       **** *                                                with the
  21:.\I2C.c       **** *                                            CY8C5969AXI-LP035
  22:.\I2C.c       **** *
  23:.\I2C.c       **** * Filename      : I2C.c
  24:.\I2C.c       **** * Version       : V1.00
  25:.\I2C.c       **** * Programmer(s) : 
  26:.\I2C.c       ****                   
  27:.\I2C.c       **** ***************************************************************************************************
ARM GAS  C:\Users\RECEPC~1\AppData\Local\Temp\cc8UvDJn.s 			page 3


  28:.\I2C.c       **** */
  29:.\I2C.c       **** 
  30:.\I2C.c       **** 
  31:.\I2C.c       **** /*
  32:.\I2C.c       **** ***************************************************************************************************
  33:.\I2C.c       **** *                                             INCLUDE FILES
  34:.\I2C.c       **** ***************************************************************************************************
  35:.\I2C.c       **** */
  36:.\I2C.c       **** #include <device.h>
  37:.\I2C.c       **** #include "VariablesG.h"
  38:.\I2C.c       **** #include "LCD.h"
  39:.\I2C.c       **** 
  40:.\I2C.c       **** /*
  41:.\I2C.c       **** ***************************************************************************************************
  42:.\I2C.c       **** *                                         uint8 leer_hora( void )
  43:.\I2C.c       **** *
  44:.\I2C.c       **** * Description : 
  45:.\I2C.c       **** *               
  46:.\I2C.c       **** *
  47:.\I2C.c       **** * Argument(s) : none
  48:.\I2C.c       **** *
  49:.\I2C.c       **** * Return(s)   : none
  50:.\I2C.c       **** *
  51:.\I2C.c       **** * Caller(s)   : 
  52:.\I2C.c       **** *
  53:.\I2C.c       **** * Note(s)     : none.
  54:.\I2C.c       **** ***************************************************************************************************
  55:.\I2C.c       **** */
  56:.\I2C.c       **** uint8 leer_hora(){
  88              		.loc 1 56 0
  89              		.cfi_startproc
  90              		@ args = 0, pretend = 0, frame = 8
  91              		@ frame_needed = 1, uses_anonymous_args = 0
  92 0000 90B5     		push	{r4, r7, lr}
  93              		.cfi_def_cfa_offset 12
  94              		.cfi_offset 4, -12
  95              		.cfi_offset 7, -8
  96              		.cfi_offset 14, -4
  97 0002 83B0     		sub	sp, sp, #12
  98              		.cfi_def_cfa_offset 24
  99 0004 00AF     		add	r7, sp, #0
 100              		.cfi_def_cfa_register 7
  57:.\I2C.c       **** 	uint8 status,i;
  58:.\I2C.c       **** 	for(i=1;i<=2;i++){
 101              		.loc 1 58 0
 102 0006 0123     		movs	r3, #1
 103 0008 FB71     		strb	r3, [r7, #7]
 104 000a 36E0     		b	.L2
 105              	.L9:
  59:.\I2C.c       ****         I2C_1_MasterClearStatus();
 106              		.loc 1 59 0
 107 000c FFF7FEFF 		bl	I2C_1_MasterClearStatus
  60:.\I2C.c       ****         status = I2C_1_MasterSendStart(0x68, I2C_1_WRITE_XFER_MODE);
 108              		.loc 1 60 0
 109 0010 6820     		movs	r0, #104
 110 0012 0021     		movs	r1, #0
 111 0014 FFF7FEFF 		bl	I2C_1_MasterSendStart
ARM GAS  C:\Users\RECEPC~1\AppData\Local\Temp\cc8UvDJn.s 			page 4


 112 0018 0346     		mov	r3, r0
 113 001a BB71     		strb	r3, [r7, #6]
  61:.\I2C.c       ****         if(I2C_1_MSTR_NO_ERROR == status)								 		/* Check if transfer completed without errors *
 114              		.loc 1 61 0
 115 001c BB79     		ldrb	r3, [r7, #6]	@ zero_extendqisi2
 116 001e 002B     		cmp	r3, #0
 117 0020 29D1     		bne	.L3
  62:.\I2C.c       ****     	{
  63:.\I2C.c       ****             status = I2C_1_MasterWriteByte(i);
 118              		.loc 1 63 0
 119 0022 FB79     		ldrb	r3, [r7, #7]	@ zero_extendqisi2
 120 0024 1846     		mov	r0, r3
 121 0026 FFF7FEFF 		bl	I2C_1_MasterWriteByte
 122 002a 0346     		mov	r3, r0
 123 002c BB71     		strb	r3, [r7, #6]
  64:.\I2C.c       ****             if(status != I2C_1_MSTR_NO_ERROR)
 124              		.loc 1 64 0
 125 002e BB79     		ldrb	r3, [r7, #6]	@ zero_extendqisi2
 126 0030 002B     		cmp	r3, #0
 127 0032 01D0     		beq	.L4
  65:.\I2C.c       ****             {
  66:.\I2C.c       ****                 return 0;
 128              		.loc 1 66 0
 129 0034 0023     		movs	r3, #0
 130 0036 24E0     		b	.L5
 131              	.L4:
  67:.\I2C.c       ****             }
  68:.\I2C.c       **** 			else{
  69:.\I2C.c       **** 		        I2C_1_MasterSendStop(); 										/* Send Stop */
 132              		.loc 1 69 0
 133 0038 FFF7FEFF 		bl	I2C_1_MasterSendStop
  70:.\I2C.c       **** 		        CyDelay(10);
 134              		.loc 1 70 0
 135 003c 0A20     		movs	r0, #10
 136 003e FFF7FEFF 		bl	CyDelay
  71:.\I2C.c       **** 		        status = I2C_1_MasterSendStart(0x68, I2C_1_READ_XFER_MODE);
 137              		.loc 1 71 0
 138 0042 6820     		movs	r0, #104
 139 0044 0121     		movs	r1, #1
 140 0046 FFF7FEFF 		bl	I2C_1_MasterSendStart
 141 004a 0346     		mov	r3, r0
 142 004c BB71     		strb	r3, [r7, #6]
  72:.\I2C.c       **** 		        if(I2C_1_MSTR_NO_ERROR == status){
 143              		.loc 1 72 0
 144 004e BB79     		ldrb	r3, [r7, #6]	@ zero_extendqisi2
 145 0050 002B     		cmp	r3, #0
 146 0052 0ED1     		bne	.L6
  73:.\I2C.c       **** 		            hora[i-1] = I2C_1_MasterReadByte(I2C_1_NAK_DATA);
 147              		.loc 1 73 0
 148 0054 FB79     		ldrb	r3, [r7, #7]	@ zero_extendqisi2
 149 0056 5C1E     		subs	r4, r3, #1
 150 0058 0020     		movs	r0, #0
 151 005a FFF7FEFF 		bl	I2C_1_MasterReadByte
 152 005e 0346     		mov	r3, r0
 153 0060 1A46     		mov	r2, r3
 154 0062 0A4B     		ldr	r3, .L10
 155 0064 1A55     		strb	r2, [r3, r4]
ARM GAS  C:\Users\RECEPC~1\AppData\Local\Temp\cc8UvDJn.s 			page 5


  74:.\I2C.c       **** 		        }
  75:.\I2C.c       **** 				else{
  76:.\I2C.c       **** 					return 0;
  77:.\I2C.c       **** 				}
  78:.\I2C.c       **** 		        I2C_1_MasterSendStop();	
 156              		.loc 1 78 0
 157 0066 FFF7FEFF 		bl	I2C_1_MasterSendStop
  58:.\I2C.c       **** 	for(i=1;i<=2;i++){
 158              		.loc 1 58 0
 159 006a FB79     		ldrb	r3, [r7, #7]	@ zero_extendqisi2
 160 006c 0133     		adds	r3, r3, #1
 161 006e FB71     		strb	r3, [r7, #7]
 162 0070 03E0     		b	.L2
 163              	.L6:
  76:.\I2C.c       **** 					return 0;
 164              		.loc 1 76 0
 165 0072 0023     		movs	r3, #0
 166 0074 05E0     		b	.L5
 167              	.L3:
  79:.\I2C.c       **** 			}
  80:.\I2C.c       ****         }
  81:.\I2C.c       **** 		else{
  82:.\I2C.c       **** 			return 0;
 168              		.loc 1 82 0
 169 0076 0023     		movs	r3, #0
 170 0078 03E0     		b	.L5
 171              	.L2:
  58:.\I2C.c       **** 	for(i=1;i<=2;i++){
 172              		.loc 1 58 0 discriminator 1
 173 007a FB79     		ldrb	r3, [r7, #7]	@ zero_extendqisi2
 174 007c 022B     		cmp	r3, #2
 175 007e C5D9     		bls	.L9
  83:.\I2C.c       **** 		}		
  84:.\I2C.c       **** 	}
  85:.\I2C.c       **** 	return 1;
 176              		.loc 1 85 0
 177 0080 0123     		movs	r3, #1
 178              	.L5:
  86:.\I2C.c       **** }
 179              		.loc 1 86 0
 180 0082 1846     		mov	r0, r3
 181 0084 0C37     		adds	r7, r7, #12
 182 0086 BD46     		mov	sp, r7
 183              		@ sp needed
 184 0088 90BD     		pop	{r4, r7, pc}
 185              	.L11:
 186 008a 00BF     		.align	2
 187              	.L10:
 188 008c 00000000 		.word	hora
 189              		.cfi_endproc
 190              	.LFE63:
 191              		.size	leer_hora, .-leer_hora
 192              		.section	.text.leer_fecha,"ax",%progbits
 193              		.align	2
 194              		.global	leer_fecha
 195              		.thumb
 196              		.thumb_func
ARM GAS  C:\Users\RECEPC~1\AppData\Local\Temp\cc8UvDJn.s 			page 6


 197              		.type	leer_fecha, %function
 198              	leer_fecha:
 199              	.LFB64:
  87:.\I2C.c       **** 
  88:.\I2C.c       **** /*
  89:.\I2C.c       **** ***************************************************************************************************
  90:.\I2C.c       **** *                                         uint8 leer_fecha( void )
  91:.\I2C.c       **** *
  92:.\I2C.c       **** * Description : 
  93:.\I2C.c       **** *               
  94:.\I2C.c       **** *
  95:.\I2C.c       **** * Argument(s) : none
  96:.\I2C.c       **** *
  97:.\I2C.c       **** * Return(s)   : none
  98:.\I2C.c       **** *
  99:.\I2C.c       **** * Caller(s)   : 
 100:.\I2C.c       **** *
 101:.\I2C.c       **** * Note(s)     : none.
 102:.\I2C.c       **** ***************************************************************************************************
 103:.\I2C.c       **** */
 104:.\I2C.c       **** uint8 leer_fecha(){
 200              		.loc 1 104 0
 201              		.cfi_startproc
 202              		@ args = 0, pretend = 0, frame = 8
 203              		@ frame_needed = 1, uses_anonymous_args = 0
 204 0000 90B5     		push	{r4, r7, lr}
 205              		.cfi_def_cfa_offset 12
 206              		.cfi_offset 4, -12
 207              		.cfi_offset 7, -8
 208              		.cfi_offset 14, -4
 209 0002 83B0     		sub	sp, sp, #12
 210              		.cfi_def_cfa_offset 24
 211 0004 00AF     		add	r7, sp, #0
 212              		.cfi_def_cfa_register 7
 105:.\I2C.c       **** 	uint8 status,i;
 106:.\I2C.c       **** 	for(i=4;i<=6;i++){
 213              		.loc 1 106 0
 214 0006 0423     		movs	r3, #4
 215 0008 FB71     		strb	r3, [r7, #7]
 216 000a 36E0     		b	.L13
 217              	.L20:
 107:.\I2C.c       ****         I2C_1_MasterClearStatus();
 218              		.loc 1 107 0
 219 000c FFF7FEFF 		bl	I2C_1_MasterClearStatus
 108:.\I2C.c       ****         status = I2C_1_MasterSendStart(0x68, I2C_1_WRITE_XFER_MODE);
 220              		.loc 1 108 0
 221 0010 6820     		movs	r0, #104
 222 0012 0021     		movs	r1, #0
 223 0014 FFF7FEFF 		bl	I2C_1_MasterSendStart
 224 0018 0346     		mov	r3, r0
 225 001a BB71     		strb	r3, [r7, #6]
 109:.\I2C.c       ****         if(I2C_1_MSTR_NO_ERROR == status)								 		/* Check if transfer completed without errors *
 226              		.loc 1 109 0
 227 001c BB79     		ldrb	r3, [r7, #6]	@ zero_extendqisi2
 228 001e 002B     		cmp	r3, #0
 229 0020 29D1     		bne	.L14
 110:.\I2C.c       ****     	{
ARM GAS  C:\Users\RECEPC~1\AppData\Local\Temp\cc8UvDJn.s 			page 7


 111:.\I2C.c       ****             status = I2C_1_MasterWriteByte(i);
 230              		.loc 1 111 0
 231 0022 FB79     		ldrb	r3, [r7, #7]	@ zero_extendqisi2
 232 0024 1846     		mov	r0, r3
 233 0026 FFF7FEFF 		bl	I2C_1_MasterWriteByte
 234 002a 0346     		mov	r3, r0
 235 002c BB71     		strb	r3, [r7, #6]
 112:.\I2C.c       ****             if(status != I2C_1_MSTR_NO_ERROR)
 236              		.loc 1 112 0
 237 002e BB79     		ldrb	r3, [r7, #6]	@ zero_extendqisi2
 238 0030 002B     		cmp	r3, #0
 239 0032 01D0     		beq	.L15
 113:.\I2C.c       ****             {
 114:.\I2C.c       ****                 return 0;
 240              		.loc 1 114 0
 241 0034 0023     		movs	r3, #0
 242 0036 24E0     		b	.L16
 243              	.L15:
 115:.\I2C.c       ****             }
 116:.\I2C.c       **** 			else{
 117:.\I2C.c       **** 		        I2C_1_MasterSendStop(); 										/* Send Stop */
 244              		.loc 1 117 0
 245 0038 FFF7FEFF 		bl	I2C_1_MasterSendStop
 118:.\I2C.c       **** 		        CyDelay(10);
 246              		.loc 1 118 0
 247 003c 0A20     		movs	r0, #10
 248 003e FFF7FEFF 		bl	CyDelay
 119:.\I2C.c       **** 		        status = I2C_1_MasterSendStart(0x68, I2C_1_READ_XFER_MODE);
 249              		.loc 1 119 0
 250 0042 6820     		movs	r0, #104
 251 0044 0121     		movs	r1, #1
 252 0046 FFF7FEFF 		bl	I2C_1_MasterSendStart
 253 004a 0346     		mov	r3, r0
 254 004c BB71     		strb	r3, [r7, #6]
 120:.\I2C.c       **** 		        if(I2C_1_MSTR_NO_ERROR == status){
 255              		.loc 1 120 0
 256 004e BB79     		ldrb	r3, [r7, #6]	@ zero_extendqisi2
 257 0050 002B     		cmp	r3, #0
 258 0052 0ED1     		bne	.L17
 121:.\I2C.c       **** 		            fecha[i-4] = I2C_1_MasterReadByte(I2C_1_NAK_DATA);
 259              		.loc 1 121 0
 260 0054 FB79     		ldrb	r3, [r7, #7]	@ zero_extendqisi2
 261 0056 1C1F     		subs	r4, r3, #4
 262 0058 0020     		movs	r0, #0
 263 005a FFF7FEFF 		bl	I2C_1_MasterReadByte
 264 005e 0346     		mov	r3, r0
 265 0060 1A46     		mov	r2, r3
 266 0062 0A4B     		ldr	r3, .L21
 267 0064 1A55     		strb	r2, [r3, r4]
 122:.\I2C.c       **** 		        }
 123:.\I2C.c       **** 				else{
 124:.\I2C.c       **** 					return 0;
 125:.\I2C.c       **** 				}
 126:.\I2C.c       **** 		        I2C_1_MasterSendStop();	
 268              		.loc 1 126 0
 269 0066 FFF7FEFF 		bl	I2C_1_MasterSendStop
 106:.\I2C.c       **** 	for(i=4;i<=6;i++){
ARM GAS  C:\Users\RECEPC~1\AppData\Local\Temp\cc8UvDJn.s 			page 8


 270              		.loc 1 106 0
 271 006a FB79     		ldrb	r3, [r7, #7]	@ zero_extendqisi2
 272 006c 0133     		adds	r3, r3, #1
 273 006e FB71     		strb	r3, [r7, #7]
 274 0070 03E0     		b	.L13
 275              	.L17:
 124:.\I2C.c       **** 					return 0;
 276              		.loc 1 124 0
 277 0072 0023     		movs	r3, #0
 278 0074 05E0     		b	.L16
 279              	.L14:
 127:.\I2C.c       **** 			}
 128:.\I2C.c       ****         }
 129:.\I2C.c       **** 		else{
 130:.\I2C.c       **** 			return 0;
 280              		.loc 1 130 0
 281 0076 0023     		movs	r3, #0
 282 0078 03E0     		b	.L16
 283              	.L13:
 106:.\I2C.c       **** 	for(i=4;i<=6;i++){
 284              		.loc 1 106 0 discriminator 1
 285 007a FB79     		ldrb	r3, [r7, #7]	@ zero_extendqisi2
 286 007c 062B     		cmp	r3, #6
 287 007e C5D9     		bls	.L20
 131:.\I2C.c       **** 		}		
 132:.\I2C.c       **** 	}
 133:.\I2C.c       **** 	return 1;
 288              		.loc 1 133 0
 289 0080 0123     		movs	r3, #1
 290              	.L16:
 134:.\I2C.c       **** }
 291              		.loc 1 134 0
 292 0082 1846     		mov	r0, r3
 293 0084 0C37     		adds	r7, r7, #12
 294 0086 BD46     		mov	sp, r7
 295              		@ sp needed
 296 0088 90BD     		pop	{r4, r7, pc}
 297              	.L22:
 298 008a 00BF     		.align	2
 299              	.L21:
 300 008c 00000000 		.word	fecha
 301              		.cfi_endproc
 302              	.LFE64:
 303              		.size	leer_fecha, .-leer_fecha
 304              		.section	.text.write_hora,"ax",%progbits
 305              		.align	2
 306              		.global	write_hora
 307              		.thumb
 308              		.thumb_func
 309              		.type	write_hora, %function
 310              	write_hora:
 311              	.LFB65:
 135:.\I2C.c       **** 
 136:.\I2C.c       **** /*
 137:.\I2C.c       **** ***************************************************************************************************
 138:.\I2C.c       **** *                                         uint8 write_hora( void )
 139:.\I2C.c       **** *
ARM GAS  C:\Users\RECEPC~1\AppData\Local\Temp\cc8UvDJn.s 			page 9


 140:.\I2C.c       **** * Description : 
 141:.\I2C.c       **** *               
 142:.\I2C.c       **** *
 143:.\I2C.c       **** * Argument(s) : none
 144:.\I2C.c       **** *
 145:.\I2C.c       **** * Return(s)   : none
 146:.\I2C.c       **** *
 147:.\I2C.c       **** * Caller(s)   : 
 148:.\I2C.c       **** *
 149:.\I2C.c       **** * Note(s)     : none.
 150:.\I2C.c       **** ***************************************************************************************************
 151:.\I2C.c       **** */
 152:.\I2C.c       **** 
 153:.\I2C.c       **** uint8 write_hora( void ){
 312              		.loc 1 153 0
 313              		.cfi_startproc
 314              		@ args = 0, pretend = 0, frame = 8
 315              		@ frame_needed = 1, uses_anonymous_args = 0
 316 0000 80B5     		push	{r7, lr}
 317              		.cfi_def_cfa_offset 8
 318              		.cfi_offset 7, -8
 319              		.cfi_offset 14, -4
 320 0002 82B0     		sub	sp, sp, #8
 321              		.cfi_def_cfa_offset 16
 322 0004 00AF     		add	r7, sp, #0
 323              		.cfi_def_cfa_register 7
 154:.\I2C.c       **** 	uint8 status, dato[3],i;
 155:.\I2C.c       **** 	dato[0]=1;
 324              		.loc 1 155 0
 325 0006 0123     		movs	r3, #1
 326 0008 3B70     		strb	r3, [r7]
 156:.\I2C.c       **** 	dato[1]=hora[0];
 327              		.loc 1 156 0
 328 000a 1A4B     		ldr	r3, .L32
 329 000c 1B78     		ldrb	r3, [r3]	@ zero_extendqisi2
 330 000e 7B70     		strb	r3, [r7, #1]
 157:.\I2C.c       **** 	dato[2]=hora[1];
 331              		.loc 1 157 0
 332 0010 184B     		ldr	r3, .L32
 333 0012 5B78     		ldrb	r3, [r3, #1]	@ zero_extendqisi2
 334 0014 BB70     		strb	r3, [r7, #2]
 158:.\I2C.c       **** 	I2C_1_MasterClearStatus();
 335              		.loc 1 158 0
 336 0016 FFF7FEFF 		bl	I2C_1_MasterClearStatus
 159:.\I2C.c       ****     status = I2C_1_MasterSendStart(0x68, I2C_1_WRITE_XFER_MODE);
 337              		.loc 1 159 0
 338 001a 6820     		movs	r0, #104
 339 001c 0021     		movs	r1, #0
 340 001e FFF7FEFF 		bl	I2C_1_MasterSendStart
 341 0022 0346     		mov	r3, r0
 342 0024 BB71     		strb	r3, [r7, #6]
 160:.\I2C.c       ****     if(I2C_1_MSTR_NO_ERROR == status) 
 343              		.loc 1 160 0
 344 0026 BB79     		ldrb	r3, [r7, #6]	@ zero_extendqisi2
 345 0028 002B     		cmp	r3, #0
 346 002a 19D1     		bne	.L24
 161:.\I2C.c       ****     {
ARM GAS  C:\Users\RECEPC~1\AppData\Local\Temp\cc8UvDJn.s 			page 10


 162:.\I2C.c       ****         for(i=0; i<3; i++)
 347              		.loc 1 162 0
 348 002c 0023     		movs	r3, #0
 349 002e FB71     		strb	r3, [r7, #7]
 350 0030 12E0     		b	.L25
 351              	.L28:
 163:.\I2C.c       ****         {
 164:.\I2C.c       ****             status = I2C_1_MasterWriteByte(dato[i]);
 352              		.loc 1 164 0
 353 0032 FB79     		ldrb	r3, [r7, #7]	@ zero_extendqisi2
 354 0034 07F10802 		add	r2, r7, #8
 355 0038 1344     		add	r3, r3, r2
 356 003a 13F8083C 		ldrb	r3, [r3, #-8]	@ zero_extendqisi2
 357 003e 1846     		mov	r0, r3
 358 0040 FFF7FEFF 		bl	I2C_1_MasterWriteByte
 359 0044 0346     		mov	r3, r0
 360 0046 BB71     		strb	r3, [r7, #6]
 165:.\I2C.c       ****             if(status != I2C_1_MSTR_NO_ERROR)
 361              		.loc 1 165 0
 362 0048 BB79     		ldrb	r3, [r7, #6]	@ zero_extendqisi2
 363 004a 002B     		cmp	r3, #0
 364 004c 01D0     		beq	.L26
 166:.\I2C.c       ****             {
 167:.\I2C.c       ****                 return 0;
 365              		.loc 1 167 0
 366 004e 0023     		movs	r3, #0
 367 0050 0BE0     		b	.L30
 368              	.L26:
 162:.\I2C.c       ****         for(i=0; i<3; i++)
 369              		.loc 1 162 0
 370 0052 FB79     		ldrb	r3, [r7, #7]	@ zero_extendqisi2
 371 0054 0133     		adds	r3, r3, #1
 372 0056 FB71     		strb	r3, [r7, #7]
 373              	.L25:
 162:.\I2C.c       ****         for(i=0; i<3; i++)
 374              		.loc 1 162 0 is_stmt 0 discriminator 1
 375 0058 FB79     		ldrb	r3, [r7, #7]	@ zero_extendqisi2
 376 005a 022B     		cmp	r3, #2
 377 005c E9D9     		bls	.L28
 378 005e 01E0     		b	.L31
 379              	.L24:
 168:.\I2C.c       ****             }
 169:.\I2C.c       ****         }
 170:.\I2C.c       ****     }
 171:.\I2C.c       ****     else{
 172:.\I2C.c       **** 		return 0;
 380              		.loc 1 172 0 is_stmt 1
 381 0060 0023     		movs	r3, #0
 382 0062 02E0     		b	.L30
 383              	.L31:
 173:.\I2C.c       ****     }
 174:.\I2C.c       ****     I2C_1_MasterSendStop();	
 384              		.loc 1 174 0
 385 0064 FFF7FEFF 		bl	I2C_1_MasterSendStop
 175:.\I2C.c       **** 	return 1;
 386              		.loc 1 175 0
 387 0068 0123     		movs	r3, #1
ARM GAS  C:\Users\RECEPC~1\AppData\Local\Temp\cc8UvDJn.s 			page 11


 388              	.L30:
 176:.\I2C.c       **** }
 389              		.loc 1 176 0
 390 006a 1846     		mov	r0, r3
 391 006c 0837     		adds	r7, r7, #8
 392 006e BD46     		mov	sp, r7
 393              		@ sp needed
 394 0070 80BD     		pop	{r7, pc}
 395              	.L33:
 396 0072 00BF     		.align	2
 397              	.L32:
 398 0074 00000000 		.word	hora
 399              		.cfi_endproc
 400              	.LFE65:
 401              		.size	write_hora, .-write_hora
 402              		.section	.text.write_fecha,"ax",%progbits
 403              		.align	2
 404              		.global	write_fecha
 405              		.thumb
 406              		.thumb_func
 407              		.type	write_fecha, %function
 408              	write_fecha:
 409              	.LFB66:
 177:.\I2C.c       **** 
 178:.\I2C.c       **** /*
 179:.\I2C.c       **** ***************************************************************************************************
 180:.\I2C.c       **** *                                         uint8 write_fecha( void )
 181:.\I2C.c       **** *
 182:.\I2C.c       **** * Description : 
 183:.\I2C.c       **** *               
 184:.\I2C.c       **** *
 185:.\I2C.c       **** * Argument(s) : none
 186:.\I2C.c       **** *
 187:.\I2C.c       **** * Return(s)   : none
 188:.\I2C.c       **** *
 189:.\I2C.c       **** * Caller(s)   : 
 190:.\I2C.c       **** *
 191:.\I2C.c       **** * Note(s)     : none.
 192:.\I2C.c       **** ***************************************************************************************************
 193:.\I2C.c       **** */
 194:.\I2C.c       **** 
 195:.\I2C.c       **** uint8 write_fecha( void ){
 410              		.loc 1 195 0
 411              		.cfi_startproc
 412              		@ args = 0, pretend = 0, frame = 8
 413              		@ frame_needed = 1, uses_anonymous_args = 0
 414 0000 80B5     		push	{r7, lr}
 415              		.cfi_def_cfa_offset 8
 416              		.cfi_offset 7, -8
 417              		.cfi_offset 14, -4
 418 0002 82B0     		sub	sp, sp, #8
 419              		.cfi_def_cfa_offset 16
 420 0004 00AF     		add	r7, sp, #0
 421              		.cfi_def_cfa_register 7
 196:.\I2C.c       **** 	uint8 status, dato[4],i;
 197:.\I2C.c       **** 	dato[0]=4;
 422              		.loc 1 197 0
ARM GAS  C:\Users\RECEPC~1\AppData\Local\Temp\cc8UvDJn.s 			page 12


 423 0006 0423     		movs	r3, #4
 424 0008 3B70     		strb	r3, [r7]
 198:.\I2C.c       **** 	dato[1]=fecha[0];
 425              		.loc 1 198 0
 426 000a 1B4B     		ldr	r3, .L43
 427 000c 1B78     		ldrb	r3, [r3]	@ zero_extendqisi2
 428 000e 7B70     		strb	r3, [r7, #1]
 199:.\I2C.c       **** 	dato[2]=fecha[1];
 429              		.loc 1 199 0
 430 0010 194B     		ldr	r3, .L43
 431 0012 5B78     		ldrb	r3, [r3, #1]	@ zero_extendqisi2
 432 0014 BB70     		strb	r3, [r7, #2]
 200:.\I2C.c       **** 	dato[3]=fecha[2];
 433              		.loc 1 200 0
 434 0016 184B     		ldr	r3, .L43
 435 0018 9B78     		ldrb	r3, [r3, #2]	@ zero_extendqisi2
 436 001a FB70     		strb	r3, [r7, #3]
 201:.\I2C.c       **** 	I2C_1_MasterClearStatus();
 437              		.loc 1 201 0
 438 001c FFF7FEFF 		bl	I2C_1_MasterClearStatus
 202:.\I2C.c       ****     status = I2C_1_MasterSendStart(0x68, I2C_1_WRITE_XFER_MODE);
 439              		.loc 1 202 0
 440 0020 6820     		movs	r0, #104
 441 0022 0021     		movs	r1, #0
 442 0024 FFF7FEFF 		bl	I2C_1_MasterSendStart
 443 0028 0346     		mov	r3, r0
 444 002a BB71     		strb	r3, [r7, #6]
 203:.\I2C.c       ****     if(I2C_1_MSTR_NO_ERROR == status) 
 445              		.loc 1 203 0
 446 002c BB79     		ldrb	r3, [r7, #6]	@ zero_extendqisi2
 447 002e 002B     		cmp	r3, #0
 448 0030 19D1     		bne	.L35
 204:.\I2C.c       ****     {
 205:.\I2C.c       ****         for(i=0; i<4; i++)
 449              		.loc 1 205 0
 450 0032 0023     		movs	r3, #0
 451 0034 FB71     		strb	r3, [r7, #7]
 452 0036 12E0     		b	.L36
 453              	.L39:
 206:.\I2C.c       ****         {
 207:.\I2C.c       ****             status = I2C_1_MasterWriteByte(dato[i]);
 454              		.loc 1 207 0
 455 0038 FB79     		ldrb	r3, [r7, #7]	@ zero_extendqisi2
 456 003a 07F10802 		add	r2, r7, #8
 457 003e 1344     		add	r3, r3, r2
 458 0040 13F8083C 		ldrb	r3, [r3, #-8]	@ zero_extendqisi2
 459 0044 1846     		mov	r0, r3
 460 0046 FFF7FEFF 		bl	I2C_1_MasterWriteByte
 461 004a 0346     		mov	r3, r0
 462 004c BB71     		strb	r3, [r7, #6]
 208:.\I2C.c       ****             if(status != I2C_1_MSTR_NO_ERROR)
 463              		.loc 1 208 0
 464 004e BB79     		ldrb	r3, [r7, #6]	@ zero_extendqisi2
 465 0050 002B     		cmp	r3, #0
 466 0052 01D0     		beq	.L37
 209:.\I2C.c       ****             {
 210:.\I2C.c       ****                 return 0;
ARM GAS  C:\Users\RECEPC~1\AppData\Local\Temp\cc8UvDJn.s 			page 13


 467              		.loc 1 210 0
 468 0054 0023     		movs	r3, #0
 469 0056 0BE0     		b	.L41
 470              	.L37:
 205:.\I2C.c       ****         for(i=0; i<4; i++)
 471              		.loc 1 205 0
 472 0058 FB79     		ldrb	r3, [r7, #7]	@ zero_extendqisi2
 473 005a 0133     		adds	r3, r3, #1
 474 005c FB71     		strb	r3, [r7, #7]
 475              	.L36:
 205:.\I2C.c       ****         for(i=0; i<4; i++)
 476              		.loc 1 205 0 is_stmt 0 discriminator 1
 477 005e FB79     		ldrb	r3, [r7, #7]	@ zero_extendqisi2
 478 0060 032B     		cmp	r3, #3
 479 0062 E9D9     		bls	.L39
 480 0064 01E0     		b	.L42
 481              	.L35:
 211:.\I2C.c       ****             }
 212:.\I2C.c       ****         }
 213:.\I2C.c       ****     }
 214:.\I2C.c       ****     else{
 215:.\I2C.c       **** 		return 0;
 482              		.loc 1 215 0 is_stmt 1
 483 0066 0023     		movs	r3, #0
 484 0068 02E0     		b	.L41
 485              	.L42:
 216:.\I2C.c       ****     }
 217:.\I2C.c       ****     I2C_1_MasterSendStop();	
 486              		.loc 1 217 0
 487 006a FFF7FEFF 		bl	I2C_1_MasterSendStop
 218:.\I2C.c       **** 	return 1;
 488              		.loc 1 218 0
 489 006e 0123     		movs	r3, #1
 490              	.L41:
 219:.\I2C.c       **** }
 491              		.loc 1 219 0
 492 0070 1846     		mov	r0, r3
 493 0072 0837     		adds	r7, r7, #8
 494 0074 BD46     		mov	sp, r7
 495              		@ sp needed
 496 0076 80BD     		pop	{r7, pc}
 497              	.L44:
 498              		.align	2
 499              	.L43:
 500 0078 00000000 		.word	fecha
 501              		.cfi_endproc
 502              	.LFE66:
 503              		.size	write_fecha, .-write_fecha
 504              		.section	.text.write_eeprom,"ax",%progbits
 505              		.align	2
 506              		.global	write_eeprom
 507              		.thumb
 508              		.thumb_func
 509              		.type	write_eeprom, %function
 510              	write_eeprom:
 511              	.LFB67:
 220:.\I2C.c       **** 
ARM GAS  C:\Users\RECEPC~1\AppData\Local\Temp\cc8UvDJn.s 			page 14


 221:.\I2C.c       **** /*
 222:.\I2C.c       **** ***************************************************************************************************
 223:.\I2C.c       **** *                              uint8 write_eeprom(uint16 page, uint8 valor)
 224:.\I2C.c       **** *
 225:.\I2C.c       **** * Description : 
 226:.\I2C.c       **** *               
 227:.\I2C.c       **** *
 228:.\I2C.c       **** * Argument(s) : none
 229:.\I2C.c       **** *
 230:.\I2C.c       **** * Return(s)   : none
 231:.\I2C.c       **** *
 232:.\I2C.c       **** * Caller(s)   : 
 233:.\I2C.c       **** *
 234:.\I2C.c       **** * Note(s)     : none.
 235:.\I2C.c       **** ***************************************************************************************************
 236:.\I2C.c       **** */
 237:.\I2C.c       **** 
 238:.\I2C.c       **** uint8 write_eeprom(uint16 page, uint8 *valor){
 512              		.loc 1 238 0
 513              		.cfi_startproc
 514              		@ args = 0, pretend = 0, frame = 16
 515              		@ frame_needed = 1, uses_anonymous_args = 0
 516 0000 80B5     		push	{r7, lr}
 517              		.cfi_def_cfa_offset 8
 518              		.cfi_offset 7, -8
 519              		.cfi_offset 14, -4
 520 0002 84B0     		sub	sp, sp, #16
 521              		.cfi_def_cfa_offset 24
 522 0004 00AF     		add	r7, sp, #0
 523              		.cfi_def_cfa_register 7
 524 0006 0346     		mov	r3, r0
 525 0008 3960     		str	r1, [r7]
 526 000a FB80     		strh	r3, [r7, #6]	@ movhi
 239:.\I2C.c       **** 	uint8 status, dato[4],i;
 240:.\I2C.c       **** 	dato[1]=(page&0xFF);
 527              		.loc 1 240 0
 528 000c FB88     		ldrh	r3, [r7, #6]	@ movhi
 529 000e DBB2     		uxtb	r3, r3
 530 0010 7B72     		strb	r3, [r7, #9]
 241:.\I2C.c       **** 	page=(page>>8)&0xFF;
 531              		.loc 1 241 0
 532 0012 FB88     		ldrh	r3, [r7, #6]
 533 0014 1B0A     		lsrs	r3, r3, #8
 534 0016 FB80     		strh	r3, [r7, #6]	@ movhi
 242:.\I2C.c       **** 	dato[0]=page;
 535              		.loc 1 242 0
 536 0018 FB88     		ldrh	r3, [r7, #6]	@ movhi
 537 001a DBB2     		uxtb	r3, r3
 538 001c 3B72     		strb	r3, [r7, #8]
 243:.\I2C.c       **** 	Pin_WP_Write(0);
 539              		.loc 1 243 0
 540 001e 0020     		movs	r0, #0
 541 0020 FFF7FEFF 		bl	Pin_WP_Write
 244:.\I2C.c       **** 	I2C_1_MasterClearStatus();
 542              		.loc 1 244 0
 543 0024 FFF7FEFF 		bl	I2C_1_MasterClearStatus
 245:.\I2C.c       ****     status = I2C_1_MasterSendStart(0x54, I2C_1_WRITE_XFER_MODE);
ARM GAS  C:\Users\RECEPC~1\AppData\Local\Temp\cc8UvDJn.s 			page 15


 544              		.loc 1 245 0
 545 0028 5420     		movs	r0, #84
 546 002a 0021     		movs	r1, #0
 547 002c FFF7FEFF 		bl	I2C_1_MasterSendStart
 548 0030 0346     		mov	r3, r0
 549 0032 BB73     		strb	r3, [r7, #14]
 246:.\I2C.c       ****     if(I2C_1_MSTR_NO_ERROR == status) 
 550              		.loc 1 246 0
 551 0034 BB7B     		ldrb	r3, [r7, #14]	@ zero_extendqisi2
 552 0036 002B     		cmp	r3, #0
 553 0038 35D1     		bne	.L46
 247:.\I2C.c       ****     {
 248:.\I2C.c       ****         for(i=0; i<2; i++)
 554              		.loc 1 248 0
 555 003a 0023     		movs	r3, #0
 556 003c FB73     		strb	r3, [r7, #15]
 557 003e 12E0     		b	.L47
 558              	.L50:
 249:.\I2C.c       ****         {
 250:.\I2C.c       ****             status = I2C_1_MasterWriteByte(dato[i]);
 559              		.loc 1 250 0
 560 0040 FB7B     		ldrb	r3, [r7, #15]	@ zero_extendqisi2
 561 0042 07F11002 		add	r2, r7, #16
 562 0046 1344     		add	r3, r3, r2
 563 0048 13F8083C 		ldrb	r3, [r3, #-8]	@ zero_extendqisi2
 564 004c 1846     		mov	r0, r3
 565 004e FFF7FEFF 		bl	I2C_1_MasterWriteByte
 566 0052 0346     		mov	r3, r0
 567 0054 BB73     		strb	r3, [r7, #14]
 251:.\I2C.c       ****             if(status != I2C_1_MSTR_NO_ERROR)
 568              		.loc 1 251 0
 569 0056 BB7B     		ldrb	r3, [r7, #14]	@ zero_extendqisi2
 570 0058 002B     		cmp	r3, #0
 571 005a 01D0     		beq	.L48
 252:.\I2C.c       ****             {
 253:.\I2C.c       ****                 return 0;
 572              		.loc 1 253 0
 573 005c 0023     		movs	r3, #0
 574 005e 2DE0     		b	.L55
 575              	.L48:
 248:.\I2C.c       ****         for(i=0; i<2; i++)
 576              		.loc 1 248 0
 577 0060 FB7B     		ldrb	r3, [r7, #15]	@ zero_extendqisi2
 578 0062 0133     		adds	r3, r3, #1
 579 0064 FB73     		strb	r3, [r7, #15]
 580              	.L47:
 248:.\I2C.c       ****         for(i=0; i<2; i++)
 581              		.loc 1 248 0 is_stmt 0 discriminator 1
 582 0066 FB7B     		ldrb	r3, [r7, #15]	@ zero_extendqisi2
 583 0068 012B     		cmp	r3, #1
 584 006a E9D9     		bls	.L50
 254:.\I2C.c       ****             }
 255:.\I2C.c       ****         }
 256:.\I2C.c       ****         for(i=0; i<=valor[0]; i++)
 585              		.loc 1 256 0 is_stmt 1
 586 006c 0023     		movs	r3, #0
 587 006e FB73     		strb	r3, [r7, #15]
ARM GAS  C:\Users\RECEPC~1\AppData\Local\Temp\cc8UvDJn.s 			page 16


 588 0070 13E0     		b	.L51
 589              	.L53:
 257:.\I2C.c       ****         {
 258:.\I2C.c       ****             status = I2C_1_MasterWriteByte(valor[i]);
 590              		.loc 1 258 0
 591 0072 FB7B     		ldrb	r3, [r7, #15]	@ zero_extendqisi2
 592 0074 3A68     		ldr	r2, [r7]
 593 0076 1344     		add	r3, r3, r2
 594 0078 1B78     		ldrb	r3, [r3]	@ zero_extendqisi2
 595 007a 1846     		mov	r0, r3
 596 007c FFF7FEFF 		bl	I2C_1_MasterWriteByte
 597 0080 0346     		mov	r3, r0
 598 0082 BB73     		strb	r3, [r7, #14]
 259:.\I2C.c       ****             if(status != I2C_1_MSTR_NO_ERROR)
 599              		.loc 1 259 0
 600 0084 BB7B     		ldrb	r3, [r7, #14]	@ zero_extendqisi2
 601 0086 002B     		cmp	r3, #0
 602 0088 01D0     		beq	.L52
 260:.\I2C.c       ****             {
 261:.\I2C.c       ****                 return 0;
 603              		.loc 1 261 0
 604 008a 0023     		movs	r3, #0
 605 008c 16E0     		b	.L55
 606              	.L52:
 262:.\I2C.c       ****             }
 263:.\I2C.c       **** 			CyDelay(5);
 607              		.loc 1 263 0
 608 008e 0520     		movs	r0, #5
 609 0090 FFF7FEFF 		bl	CyDelay
 256:.\I2C.c       ****         for(i=0; i<=valor[0]; i++)
 610              		.loc 1 256 0
 611 0094 FB7B     		ldrb	r3, [r7, #15]	@ zero_extendqisi2
 612 0096 0133     		adds	r3, r3, #1
 613 0098 FB73     		strb	r3, [r7, #15]
 614              	.L51:
 256:.\I2C.c       ****         for(i=0; i<=valor[0]; i++)
 615              		.loc 1 256 0 is_stmt 0 discriminator 1
 616 009a 3B68     		ldr	r3, [r7]
 617 009c 1B78     		ldrb	r3, [r3]	@ zero_extendqisi2
 618 009e FA7B     		ldrb	r2, [r7, #15]	@ zero_extendqisi2
 619 00a0 9A42     		cmp	r2, r3
 620 00a2 E6D9     		bls	.L53
 621 00a4 01E0     		b	.L56
 622              	.L46:
 264:.\I2C.c       ****         }		
 265:.\I2C.c       ****     }
 266:.\I2C.c       ****     else{
 267:.\I2C.c       **** 		return 0;
 623              		.loc 1 267 0 is_stmt 1
 624 00a6 0023     		movs	r3, #0
 625 00a8 08E0     		b	.L55
 626              	.L56:
 268:.\I2C.c       ****     }
 269:.\I2C.c       ****     I2C_1_MasterSendStop();	
 627              		.loc 1 269 0
 628 00aa FFF7FEFF 		bl	I2C_1_MasterSendStop
 270:.\I2C.c       **** 	CyDelay(6);
ARM GAS  C:\Users\RECEPC~1\AppData\Local\Temp\cc8UvDJn.s 			page 17


 629              		.loc 1 270 0
 630 00ae 0620     		movs	r0, #6
 631 00b0 FFF7FEFF 		bl	CyDelay
 271:.\I2C.c       **** 	Pin_WP_Write(1);
 632              		.loc 1 271 0
 633 00b4 0120     		movs	r0, #1
 634 00b6 FFF7FEFF 		bl	Pin_WP_Write
 272:.\I2C.c       **** 	return 1;
 635              		.loc 1 272 0
 636 00ba 0123     		movs	r3, #1
 637              	.L55:
 273:.\I2C.c       **** }
 638              		.loc 1 273 0
 639 00bc 1846     		mov	r0, r3
 640 00be 1037     		adds	r7, r7, #16
 641 00c0 BD46     		mov	sp, r7
 642              		@ sp needed
 643 00c2 80BD     		pop	{r7, pc}
 644              		.cfi_endproc
 645              	.LFE67:
 646              		.size	write_eeprom, .-write_eeprom
 647              		.section	.text.leer_eeprom,"ax",%progbits
 648              		.align	2
 649              		.global	leer_eeprom
 650              		.thumb
 651              		.thumb_func
 652              		.type	leer_eeprom, %function
 653              	leer_eeprom:
 654              	.LFB68:
 274:.\I2C.c       **** 
 275:.\I2C.c       **** /*
 276:.\I2C.c       **** ***************************************************************************************************
 277:.\I2C.c       **** *                               uint8 leer_eeprom(uint16 page, uint8 size))
 278:.\I2C.c       **** *
 279:.\I2C.c       **** * Description : 
 280:.\I2C.c       **** *               
 281:.\I2C.c       **** *
 282:.\I2C.c       **** * Argument(s) : none
 283:.\I2C.c       **** *
 284:.\I2C.c       **** * Return(s)   : none
 285:.\I2C.c       **** *
 286:.\I2C.c       **** * Caller(s)   : 
 287:.\I2C.c       **** *
 288:.\I2C.c       **** * Note(s)     : none.
 289:.\I2C.c       **** ***************************************************************************************************
 290:.\I2C.c       **** */
 291:.\I2C.c       **** uint8 leer_eeprom(uint16 page, volatile uint8 size){
 655              		.loc 1 291 0
 656              		.cfi_startproc
 657              		@ args = 0, pretend = 0, frame = 24
 658              		@ frame_needed = 1, uses_anonymous_args = 0
 659 0000 90B5     		push	{r4, r7, lr}
 660              		.cfi_def_cfa_offset 12
 661              		.cfi_offset 4, -12
 662              		.cfi_offset 7, -8
 663              		.cfi_offset 14, -4
 664 0002 87B0     		sub	sp, sp, #28
ARM GAS  C:\Users\RECEPC~1\AppData\Local\Temp\cc8UvDJn.s 			page 18


 665              		.cfi_def_cfa_offset 40
 666 0004 00AF     		add	r7, sp, #0
 667              		.cfi_def_cfa_register 7
 668 0006 0246     		mov	r2, r0
 669 0008 0B46     		mov	r3, r1
 670 000a FA80     		strh	r2, [r7, #6]	@ movhi
 671 000c 7B71     		strb	r3, [r7, #5]
 292:.\I2C.c       **** 	uint16 status, dato[4],i;
 293:.\I2C.c       **** 	dato[1]=(page&0xFF);
 672              		.loc 1 293 0
 673 000e FB88     		ldrh	r3, [r7, #6]	@ movhi
 674 0010 DBB2     		uxtb	r3, r3
 675 0012 9BB2     		uxth	r3, r3
 676 0014 FB81     		strh	r3, [r7, #14]	@ movhi
 294:.\I2C.c       **** 	page=(page>>8)&0xFF;
 677              		.loc 1 294 0
 678 0016 FB88     		ldrh	r3, [r7, #6]
 679 0018 1B0A     		lsrs	r3, r3, #8
 680 001a FB80     		strh	r3, [r7, #6]	@ movhi
 295:.\I2C.c       **** 	dato[0]=page;	
 681              		.loc 1 295 0
 682 001c FB88     		ldrh	r3, [r7, #6]	@ movhi
 683 001e BB81     		strh	r3, [r7, #12]	@ movhi
 296:.\I2C.c       ****     I2C_1_MasterClearStatus();
 684              		.loc 1 296 0
 685 0020 FFF7FEFF 		bl	I2C_1_MasterClearStatus
 297:.\I2C.c       ****     status = I2C_1_MasterSendStart(0x54, I2C_1_WRITE_XFER_MODE);
 686              		.loc 1 297 0
 687 0024 5420     		movs	r0, #84
 688 0026 0021     		movs	r1, #0
 689 0028 FFF7FEFF 		bl	I2C_1_MasterSendStart
 690 002c 0346     		mov	r3, r0
 691 002e BB82     		strh	r3, [r7, #20]	@ movhi
 298:.\I2C.c       ****     if(I2C_1_MSTR_NO_ERROR == status)								 		/* Check if transfer completed without errors */
 692              		.loc 1 298 0
 693 0030 BB8A     		ldrh	r3, [r7, #20]
 694 0032 002B     		cmp	r3, #0
 695 0034 1ED1     		bne	.L58
 299:.\I2C.c       **** 	{
 300:.\I2C.c       ****         for(i=0;i<2;i++)
 696              		.loc 1 300 0
 697 0036 0023     		movs	r3, #0
 698 0038 FB82     		strh	r3, [r7, #22]	@ movhi
 699 003a 17E0     		b	.L59
 700              	.L62:
 301:.\I2C.c       ****         {
 302:.\I2C.c       ****             status = I2C_1_MasterWriteByte(dato[i]);
 701              		.loc 1 302 0
 702 003c FB8A     		ldrh	r3, [r7, #22]
 703 003e 5B00     		lsls	r3, r3, #1
 704 0040 07F11802 		add	r2, r7, #24
 705 0044 1344     		add	r3, r3, r2
 706 0046 33F80C3C 		ldrh	r3, [r3, #-12]
 707 004a DBB2     		uxtb	r3, r3
 708 004c 1846     		mov	r0, r3
 709 004e FFF7FEFF 		bl	I2C_1_MasterWriteByte
 710 0052 0346     		mov	r3, r0
ARM GAS  C:\Users\RECEPC~1\AppData\Local\Temp\cc8UvDJn.s 			page 19


 711 0054 BB82     		strh	r3, [r7, #20]	@ movhi
 303:.\I2C.c       ****             if(status != I2C_1_MSTR_NO_ERROR)
 712              		.loc 1 303 0
 713 0056 BB8A     		ldrh	r3, [r7, #20]
 714 0058 002B     		cmp	r3, #0
 715 005a 01D0     		beq	.L60
 304:.\I2C.c       ****             {
 305:.\I2C.c       ****             	return 0;
 716              		.loc 1 305 0
 717 005c 0023     		movs	r3, #0
 718 005e 38E0     		b	.L68
 719              	.L60:
 306:.\I2C.c       ****             }
 307:.\I2C.c       **** 			CyDelay(5);
 720              		.loc 1 307 0
 721 0060 0520     		movs	r0, #5
 722 0062 FFF7FEFF 		bl	CyDelay
 300:.\I2C.c       ****         for(i=0;i<2;i++)
 723              		.loc 1 300 0
 724 0066 FB8A     		ldrh	r3, [r7, #22]
 725 0068 0133     		adds	r3, r3, #1
 726 006a FB82     		strh	r3, [r7, #22]	@ movhi
 727              	.L59:
 300:.\I2C.c       ****         for(i=0;i<2;i++)
 728              		.loc 1 300 0 is_stmt 0 discriminator 1
 729 006c FB8A     		ldrh	r3, [r7, #22]
 730 006e 012B     		cmp	r3, #1
 731 0070 E4D9     		bls	.L62
 732 0072 01E0     		b	.L69
 733              	.L58:
 308:.\I2C.c       ****         }		
 309:.\I2C.c       ****     }
 310:.\I2C.c       **** 	else{
 311:.\I2C.c       **** 		return 0;
 734              		.loc 1 311 0 is_stmt 1
 735 0074 0023     		movs	r3, #0
 736 0076 2CE0     		b	.L68
 737              	.L69:
 312:.\I2C.c       **** 	}
 313:.\I2C.c       **** 	I2C_1_MasterSendStop();	
 738              		.loc 1 313 0
 739 0078 FFF7FEFF 		bl	I2C_1_MasterSendStop
 314:.\I2C.c       ****     CyDelay(50);
 740              		.loc 1 314 0
 741 007c 3220     		movs	r0, #50
 742 007e FFF7FEFF 		bl	CyDelay
 315:.\I2C.c       ****     status = I2C_1_MasterSendStart(0x54, I2C_1_READ_XFER_MODE);
 743              		.loc 1 315 0
 744 0082 5420     		movs	r0, #84
 745 0084 0121     		movs	r1, #1
 746 0086 FFF7FEFF 		bl	I2C_1_MasterSendStart
 747 008a 0346     		mov	r3, r0
 748 008c BB82     		strh	r3, [r7, #20]	@ movhi
 316:.\I2C.c       ****     if(I2C_1_MSTR_NO_ERROR == status){
 749              		.loc 1 316 0
 750 008e BB8A     		ldrh	r3, [r7, #20]
 751 0090 002B     		cmp	r3, #0
ARM GAS  C:\Users\RECEPC~1\AppData\Local\Temp\cc8UvDJn.s 			page 20


 752 0092 16D1     		bne	.L64
 317:.\I2C.c       **** 		for(i=0;i<size;i++){
 753              		.loc 1 317 0
 754 0094 0023     		movs	r3, #0
 755 0096 FB82     		strh	r3, [r7, #22]	@ movhi
 756 0098 0DE0     		b	.L65
 757              	.L66:
 318:.\I2C.c       **** 	        buffer_i2c[i] = I2C_1_MasterReadByte(I2C_1_ACK_DATA);
 758              		.loc 1 318 0 discriminator 2
 759 009a FC8A     		ldrh	r4, [r7, #22]
 760 009c 0120     		movs	r0, #1
 761 009e FFF7FEFF 		bl	I2C_1_MasterReadByte
 762 00a2 0346     		mov	r3, r0
 763 00a4 1A46     		mov	r2, r3
 764 00a6 0D4B     		ldr	r3, .L71
 765 00a8 1A55     		strb	r2, [r3, r4]
 319:.\I2C.c       **** 			CyDelay(5);
 766              		.loc 1 319 0 discriminator 2
 767 00aa 0520     		movs	r0, #5
 768 00ac FFF7FEFF 		bl	CyDelay
 317:.\I2C.c       **** 		for(i=0;i<size;i++){
 769              		.loc 1 317 0 discriminator 2
 770 00b0 FB8A     		ldrh	r3, [r7, #22]
 771 00b2 0133     		adds	r3, r3, #1
 772 00b4 FB82     		strh	r3, [r7, #22]	@ movhi
 773              	.L65:
 317:.\I2C.c       **** 		for(i=0;i<size;i++){
 774              		.loc 1 317 0 is_stmt 0 discriminator 1
 775 00b6 7B79     		ldrb	r3, [r7, #5]
 776 00b8 DBB2     		uxtb	r3, r3
 777 00ba FA8A     		ldrh	r2, [r7, #22]
 778 00bc 9A42     		cmp	r2, r3
 779 00be ECD3     		bcc	.L66
 780 00c0 01E0     		b	.L70
 781              	.L64:
 320:.\I2C.c       **** 		}
 321:.\I2C.c       ****     }
 322:.\I2C.c       **** 	else{
 323:.\I2C.c       **** 		return 0;
 782              		.loc 1 323 0 is_stmt 1
 783 00c2 0023     		movs	r3, #0
 784 00c4 05E0     		b	.L68
 785              	.L70:
 324:.\I2C.c       **** 	}
 325:.\I2C.c       ****     I2C_1_MasterSendStop();	
 786              		.loc 1 325 0
 787 00c6 FFF7FEFF 		bl	I2C_1_MasterSendStop
 326:.\I2C.c       **** 	CyDelay(6);	
 788              		.loc 1 326 0
 789 00ca 0620     		movs	r0, #6
 790 00cc FFF7FEFF 		bl	CyDelay
 327:.\I2C.c       **** 	return 1;
 791              		.loc 1 327 0
 792 00d0 0123     		movs	r3, #1
 793              	.L68:
 328:.\I2C.c       **** }
 794              		.loc 1 328 0
ARM GAS  C:\Users\RECEPC~1\AppData\Local\Temp\cc8UvDJn.s 			page 21


 795 00d2 1846     		mov	r0, r3
 796 00d4 1C37     		adds	r7, r7, #28
 797 00d6 BD46     		mov	sp, r7
 798              		@ sp needed
 799 00d8 90BD     		pop	{r4, r7, pc}
 800              	.L72:
 801 00da 00BF     		.align	2
 802              	.L71:
 803 00dc 00000000 		.word	buffer_i2c
 804              		.cfi_endproc
 805              	.LFE68:
 806              		.size	leer_eeprom, .-leer_eeprom
 807              		.section	.text.write_psoc1,"ax",%progbits
 808              		.align	2
 809              		.global	write_psoc1
 810              		.thumb
 811              		.thumb_func
 812              		.type	write_psoc1, %function
 813              	write_psoc1:
 814              	.LFB69:
 329:.\I2C.c       **** 
 330:.\I2C.c       **** /*
 331:.\I2C.c       **** ***************************************************************************************************
 332:.\I2C.c       **** *                                   uint8 write_psoc1( uint8 puerto, uint8 valor )
 333:.\I2C.c       **** *
 334:.\I2C.c       **** * Description : 
 335:.\I2C.c       **** *               
 336:.\I2C.c       **** *
 337:.\I2C.c       **** * Argument(s) : none
 338:.\I2C.c       **** *
 339:.\I2C.c       **** * Return(s)   : none
 340:.\I2C.c       **** *
 341:.\I2C.c       **** * Caller(s)   : 
 342:.\I2C.c       **** *
 343:.\I2C.c       **** * Note(s)     : none.
 344:.\I2C.c       **** ***************************************************************************************************
 345:.\I2C.c       **** */
 346:.\I2C.c       **** 
 347:.\I2C.c       **** uint8 write_psoc1( uint8 puerto, uint8 valor ){
 815              		.loc 1 347 0
 816              		.cfi_startproc
 817              		@ args = 0, pretend = 0, frame = 16
 818              		@ frame_needed = 1, uses_anonymous_args = 0
 819 0000 80B5     		push	{r7, lr}
 820              		.cfi_def_cfa_offset 8
 821              		.cfi_offset 7, -8
 822              		.cfi_offset 14, -4
 823 0002 84B0     		sub	sp, sp, #16
 824              		.cfi_def_cfa_offset 24
 825 0004 00AF     		add	r7, sp, #0
 826              		.cfi_def_cfa_register 7
 827 0006 0246     		mov	r2, r0
 828 0008 0B46     		mov	r3, r1
 829 000a FA71     		strb	r2, [r7, #7]
 830 000c BB71     		strb	r3, [r7, #6]
 348:.\I2C.c       **** 	uint8 status, dato[2],i;
 349:.\I2C.c       **** 	dato[0]=puerto;
ARM GAS  C:\Users\RECEPC~1\AppData\Local\Temp\cc8UvDJn.s 			page 22


 831              		.loc 1 349 0
 832 000e FB79     		ldrb	r3, [r7, #7]
 833 0010 3B73     		strb	r3, [r7, #12]
 350:.\I2C.c       **** 	dato[1]=valor;
 834              		.loc 1 350 0
 835 0012 BB79     		ldrb	r3, [r7, #6]
 836 0014 7B73     		strb	r3, [r7, #13]
 351:.\I2C.c       **** 	I2C_1_MasterClearStatus();
 837              		.loc 1 351 0
 838 0016 FFF7FEFF 		bl	I2C_1_MasterClearStatus
 352:.\I2C.c       ****     status = I2C_1_MasterSendStart(7u, I2C_1_WRITE_XFER_MODE);
 839              		.loc 1 352 0
 840 001a 0720     		movs	r0, #7
 841 001c 0021     		movs	r1, #0
 842 001e FFF7FEFF 		bl	I2C_1_MasterSendStart
 843 0022 0346     		mov	r3, r0
 844 0024 BB73     		strb	r3, [r7, #14]
 353:.\I2C.c       ****     if(I2C_1_MSTR_NO_ERROR == status) 
 845              		.loc 1 353 0
 846 0026 BB7B     		ldrb	r3, [r7, #14]	@ zero_extendqisi2
 847 0028 002B     		cmp	r3, #0
 848 002a 19D1     		bne	.L74
 354:.\I2C.c       ****     {
 355:.\I2C.c       ****         for(i=0; i<2; i++)
 849              		.loc 1 355 0
 850 002c 0023     		movs	r3, #0
 851 002e FB73     		strb	r3, [r7, #15]
 852 0030 12E0     		b	.L75
 853              	.L78:
 356:.\I2C.c       ****         {
 357:.\I2C.c       ****             status = I2C_1_MasterWriteByte(dato[i]);
 854              		.loc 1 357 0
 855 0032 FB7B     		ldrb	r3, [r7, #15]	@ zero_extendqisi2
 856 0034 07F11002 		add	r2, r7, #16
 857 0038 1344     		add	r3, r3, r2
 858 003a 13F8043C 		ldrb	r3, [r3, #-4]	@ zero_extendqisi2
 859 003e 1846     		mov	r0, r3
 860 0040 FFF7FEFF 		bl	I2C_1_MasterWriteByte
 861 0044 0346     		mov	r3, r0
 862 0046 BB73     		strb	r3, [r7, #14]
 358:.\I2C.c       ****             if(status != I2C_1_MSTR_NO_ERROR)
 863              		.loc 1 358 0
 864 0048 BB7B     		ldrb	r3, [r7, #14]	@ zero_extendqisi2
 865 004a 002B     		cmp	r3, #0
 866 004c 01D0     		beq	.L76
 359:.\I2C.c       ****             {
 360:.\I2C.c       ****                 return 0;
 867              		.loc 1 360 0
 868 004e 0023     		movs	r3, #0
 869 0050 0BE0     		b	.L80
 870              	.L76:
 355:.\I2C.c       ****         for(i=0; i<2; i++)
 871              		.loc 1 355 0
 872 0052 FB7B     		ldrb	r3, [r7, #15]	@ zero_extendqisi2
 873 0054 0133     		adds	r3, r3, #1
 874 0056 FB73     		strb	r3, [r7, #15]
 875              	.L75:
ARM GAS  C:\Users\RECEPC~1\AppData\Local\Temp\cc8UvDJn.s 			page 23


 355:.\I2C.c       ****         for(i=0; i<2; i++)
 876              		.loc 1 355 0 is_stmt 0 discriminator 1
 877 0058 FB7B     		ldrb	r3, [r7, #15]	@ zero_extendqisi2
 878 005a 012B     		cmp	r3, #1
 879 005c E9D9     		bls	.L78
 880 005e 01E0     		b	.L81
 881              	.L74:
 361:.\I2C.c       ****             }
 362:.\I2C.c       ****         }
 363:.\I2C.c       ****     }
 364:.\I2C.c       ****     else{
 365:.\I2C.c       **** 		return 0;
 882              		.loc 1 365 0 is_stmt 1
 883 0060 0023     		movs	r3, #0
 884 0062 02E0     		b	.L80
 885              	.L81:
 366:.\I2C.c       ****     }
 367:.\I2C.c       ****     I2C_1_MasterSendStop();	
 886              		.loc 1 367 0
 887 0064 FFF7FEFF 		bl	I2C_1_MasterSendStop
 368:.\I2C.c       **** 	return 1;
 888              		.loc 1 368 0
 889 0068 0123     		movs	r3, #1
 890              	.L80:
 369:.\I2C.c       **** }
 891              		.loc 1 369 0
 892 006a 1846     		mov	r0, r3
 893 006c 1037     		adds	r7, r7, #16
 894 006e BD46     		mov	sp, r7
 895              		@ sp needed
 896 0070 80BD     		pop	{r7, pc}
 897              		.cfi_endproc
 898              	.LFE69:
 899              		.size	write_psoc1, .-write_psoc1
 900 0072 00BF     		.text
 901              	.Letext0:
 902              		.file 2 "c:\\program files (x86)\\cypress\\psoc creator\\3.2\\psoc creator\\import\\gnu\\arm\\4.8.
 903              		.file 3 "c:\\program files (x86)\\cypress\\psoc creator\\3.2\\psoc creator\\import\\gnu\\arm\\4.8.
 904              		.file 4 "Generated_Source\\PSoC5/cytypes.h"
 905              		.file 5 ".\\VariablesG.h"
 906              		.file 6 "Generated_Source\\PSoC5/core_cm3.h"