ARM GAS  C:\Users\RECEPC~1\AppData\Local\Temp\cccH9qzv.s 			page 1


   1              		.syntax unified
   2              		.cpu cortex-m3
   3              		.fpu softvfp
   4              		.eabi_attribute 20, 1
   5              		.eabi_attribute 21, 1
   6              		.eabi_attribute 23, 3
   7              		.eabi_attribute 24, 1
   8              		.eabi_attribute 25, 1
   9              		.eabi_attribute 26, 1
  10              		.eabi_attribute 30, 6
  11              		.eabi_attribute 34, 1
  12              		.eabi_attribute 18, 4
  13              		.thumb
  14              		.file	"LCD.c"
  15              		.text
  16              	.Ltext0:
  17              		.cfi_sections	.debug_frame
  18              		.comm	count_teclas1,1,1
  19              		.comm	comas1,1,1
  20              		.comm	comas2,1,1
  21              		.comm	id_coma1,1,1
  22              		.comm	id_teclado1,1,1
  23              		.comm	count_teclas2,1,1
  24              		.comm	id_coma2,1,1
  25              		.comm	id_teclado2,1,1
  26              		.comm	posx1,2,2
  27              		.comm	posy1,2,2
  28              		.comm	sizeletra1,2,2
  29              		.comm	posx2,2,2
  30              		.comm	posy2,2,2
  31              		.comm	sizeletra2,2,2
  32              		.comm	teclas1,1,1
  33              		.comm	teclas2,1,1
  34              		.comm	flujo_LCD1,1,1
  35              		.comm	flujo_LCD2,1,1
  36              		.comm	flujo_LCD3,1,1
  37              		.comm	flujo_LCD4,1,1
  38              		.comm	Buffer_LCD1,30,4
  39              		.comm	Buffer_LCD2,30,4
  40              		.comm	count_protector,1,1
  41              		.comm	count_protector2,1,1
  42              		.comm	password_lcd,9,4
  43              		.comm	imagen_grado1,2,2
  44              		.comm	imagen_grado2,2,2
  45              		.comm	imagen_grado3,2,2
  46              		.comm	imagen_grado4,2,2
  47              		.comm	prox_caso,16,4
  48              		.comm	bloqueo_LCD,3,4
  49              		.comm	ppux10,1,1
  50              		.comm	nombre_pro1,17,4
  51              		.comm	nombre_pro2,17,4
  52              		.comm	nombre_pro3,17,4
  53              		.comm	version,4,4
  54              		.comm	lado1,93,4
  55              		.comm	lado2,93,4
  56              		.comm	lado3,93,4
  57              		.comm	lado4,93,4
ARM GAS  C:\Users\RECEPC~1\AppData\Local\Temp\cccH9qzv.s 			page 2


  58              		.comm	nombre,33,4
  59              		.comm	nit,15,4
  60              		.comm	telefono,20,4
  61              		.comm	direccion,33,4
  62              		.comm	lema1,32,4
  63              		.comm	lema2,32,4
  64              		.comm	id_logo,2,4
  65              		.comm	km,2,4
  66              		.comm	fecha,3,4
  67              		.comm	hora,2,4
  68              		.comm	rventa1,97,4
  69              		.comm	rventa2,97,4
  70              		.comm	rventa3,97,4
  71              		.comm	rventa4,97,4
  72              		.comm	ok_RF,1,1
  73              		.comm	ok_datosRF,1,1
  74              		.comm	rf_mod,200,4
  75              		.comm	buffer_i2c,64,4
  76              		.comm	crc_total,1,1
  77              		.comm	print1,2,4
  78              		.comm	print2,2,4
  79              		.section	.text.set_imagen,"ax",%progbits
  80              		.align	2
  81              		.global	set_imagen
  82              		.thumb
  83              		.thumb_func
  84              		.type	set_imagen, %function
  85              	set_imagen:
  86              	.LFB63:
  87              		.file 1 ".\\LCD.c"
   1:.\LCD.c       **** /*
   2:.\LCD.c       **** ***************************************************************************************************
   3:.\LCD.c       **** *                                           GRP550M CODE
   4:.\LCD.c       **** *
   5:.\LCD.c       **** *                             (c) Copyright 2013; Sistemas Insepet LTDA
   6:.\LCD.c       **** *
   7:.\LCD.c       **** *               All rights reserved.  Protected by international copyright laws.
   8:.\LCD.c       **** *               Knowledge of the source code may NOT be used to develop a similar product.
   9:.\LCD.c       **** *               Please help us continue to provide the Embedded community with the finest
  10:.\LCD.c       **** *               software available.  Your honesty is greatly appreciated.
  11:.\LCD.c       **** ***************************************************************************************************
  12:.\LCD.c       **** */
  13:.\LCD.c       **** 
  14:.\LCD.c       **** /*
  15:.\LCD.c       **** ***************************************************************************************************
  16:.\LCD.c       **** *
  17:.\LCD.c       **** *                                               GRP550M CODE
  18:.\LCD.c       **** *
  19:.\LCD.c       **** *                                             CYPRESS PSoC5LP
  20:.\LCD.c       **** *                                                with the
  21:.\LCD.c       **** *                                            CY8C5969AXI-LP035
  22:.\LCD.c       **** *
  23:.\LCD.c       **** * Filename      : LCD.c
  24:.\LCD.c       **** * Version       : V1.00
  25:.\LCD.c       **** * Programmer(s) : 
  26:.\LCD.c       ****                   
  27:.\LCD.c       **** ***************************************************************************************************
ARM GAS  C:\Users\RECEPC~1\AppData\Local\Temp\cccH9qzv.s 			page 3


  28:.\LCD.c       **** */
  29:.\LCD.c       **** 
  30:.\LCD.c       **** /*
  31:.\LCD.c       **** ***************************************************************************************************
  32:.\LCD.c       **** *                                             INCLUDE FILES
  33:.\LCD.c       **** ***************************************************************************************************
  34:.\LCD.c       **** */
  35:.\LCD.c       **** #include <device.h>
  36:.\LCD.c       **** #include "VariablesG.h"
  37:.\LCD.c       **** #include "I2C.h"
  38:.\LCD.c       **** 
  39:.\LCD.c       **** /*
  40:.\LCD.c       **** ***************************************************************************************************
  41:.\LCD.c       **** *                                        void set_imagen(uint8 lcd, uint16 id)
  42:.\LCD.c       **** *
  43:.\LCD.c       **** * Description : 
  44:.\LCD.c       **** *               
  45:.\LCD.c       **** *
  46:.\LCD.c       **** * Argument(s) : none
  47:.\LCD.c       **** *
  48:.\LCD.c       **** * Return(s)   : none
  49:.\LCD.c       **** *
  50:.\LCD.c       **** * Caller(s)   : 
  51:.\LCD.c       **** *
  52:.\LCD.c       **** * Note(s)     : none.
  53:.\LCD.c       **** ***************************************************************************************************
  54:.\LCD.c       **** */
  55:.\LCD.c       **** void set_imagen(uint8 lcd, uint16 id){
  88              		.loc 1 55 0
  89              		.cfi_startproc
  90              		@ args = 0, pretend = 0, frame = 8
  91              		@ frame_needed = 1, uses_anonymous_args = 0
  92 0000 80B5     		push	{r7, lr}
  93              		.cfi_def_cfa_offset 8
  94              		.cfi_offset 7, -8
  95              		.cfi_offset 14, -4
  96 0002 82B0     		sub	sp, sp, #8
  97              		.cfi_def_cfa_offset 16
  98 0004 00AF     		add	r7, sp, #0
  99              		.cfi_def_cfa_register 7
 100 0006 0246     		mov	r2, r0
 101 0008 0B46     		mov	r3, r1
 102 000a FA71     		strb	r2, [r7, #7]
 103 000c BB80     		strh	r3, [r7, #4]	@ movhi
  56:.\LCD.c       ****     if(lcd==1){
 104              		.loc 1 56 0
 105 000e FB79     		ldrb	r3, [r7, #7]	@ zero_extendqisi2
 106 0010 012B     		cmp	r3, #1
 107 0012 1ED1     		bne	.L2
  57:.\LCD.c       ****         LCD_1_PutChar(0xAA);
 108              		.loc 1 57 0
 109 0014 AA20     		movs	r0, #170
 110 0016 FFF7FEFF 		bl	LCD_1_PutChar
  58:.\LCD.c       ****         LCD_1_PutChar(0x70);
 111              		.loc 1 58 0
 112 001a 7020     		movs	r0, #112
 113 001c FFF7FEFF 		bl	LCD_1_PutChar
ARM GAS  C:\Users\RECEPC~1\AppData\Local\Temp\cccH9qzv.s 			page 4


  59:.\LCD.c       ****         LCD_1_PutChar(((id>>8)&0xFF));
 114              		.loc 1 59 0
 115 0020 BB88     		ldrh	r3, [r7, #4]
 116 0022 1B0A     		lsrs	r3, r3, #8
 117 0024 9BB2     		uxth	r3, r3
 118 0026 DBB2     		uxtb	r3, r3
 119 0028 1846     		mov	r0, r3
 120 002a FFF7FEFF 		bl	LCD_1_PutChar
  60:.\LCD.c       ****         LCD_1_PutChar((id&0xFF));
 121              		.loc 1 60 0
 122 002e BB88     		ldrh	r3, [r7, #4]	@ movhi
 123 0030 DBB2     		uxtb	r3, r3
 124 0032 1846     		mov	r0, r3
 125 0034 FFF7FEFF 		bl	LCD_1_PutChar
  61:.\LCD.c       ****         LCD_1_PutChar(0xCC);
 126              		.loc 1 61 0
 127 0038 CC20     		movs	r0, #204
 128 003a FFF7FEFF 		bl	LCD_1_PutChar
  62:.\LCD.c       ****         LCD_1_PutChar(0x33);
 129              		.loc 1 62 0
 130 003e 3320     		movs	r0, #51
 131 0040 FFF7FEFF 		bl	LCD_1_PutChar
  63:.\LCD.c       ****         LCD_1_PutChar(0xC3);
 132              		.loc 1 63 0
 133 0044 C320     		movs	r0, #195
 134 0046 FFF7FEFF 		bl	LCD_1_PutChar
  64:.\LCD.c       ****         LCD_1_PutChar(0x3C);
 135              		.loc 1 64 0
 136 004a 3C20     		movs	r0, #60
 137 004c FFF7FEFF 		bl	LCD_1_PutChar
 138 0050 1DE0     		b	.L1
 139              	.L2:
  65:.\LCD.c       ****     }
  66:.\LCD.c       ****     else{
  67:.\LCD.c       ****        	LCD_2_PutChar(0xAA);
 140              		.loc 1 67 0
 141 0052 AA20     		movs	r0, #170
 142 0054 FFF7FEFF 		bl	LCD_2_PutChar
  68:.\LCD.c       ****         LCD_2_PutChar(0x70);
 143              		.loc 1 68 0
 144 0058 7020     		movs	r0, #112
 145 005a FFF7FEFF 		bl	LCD_2_PutChar
  69:.\LCD.c       ****         LCD_2_PutChar(((id>>8)&0xFF));
 146              		.loc 1 69 0
 147 005e BB88     		ldrh	r3, [r7, #4]
 148 0060 1B0A     		lsrs	r3, r3, #8
 149 0062 9BB2     		uxth	r3, r3
 150 0064 DBB2     		uxtb	r3, r3
 151 0066 1846     		mov	r0, r3
 152 0068 FFF7FEFF 		bl	LCD_2_PutChar
  70:.\LCD.c       ****         LCD_2_PutChar((id&0xFF));
 153              		.loc 1 70 0
 154 006c BB88     		ldrh	r3, [r7, #4]	@ movhi
 155 006e DBB2     		uxtb	r3, r3
 156 0070 1846     		mov	r0, r3
 157 0072 FFF7FEFF 		bl	LCD_2_PutChar
  71:.\LCD.c       ****         LCD_2_PutChar(0xCC);
ARM GAS  C:\Users\RECEPC~1\AppData\Local\Temp\cccH9qzv.s 			page 5


 158              		.loc 1 71 0
 159 0076 CC20     		movs	r0, #204
 160 0078 FFF7FEFF 		bl	LCD_2_PutChar
  72:.\LCD.c       ****         LCD_2_PutChar(0x33);
 161              		.loc 1 72 0
 162 007c 3320     		movs	r0, #51
 163 007e FFF7FEFF 		bl	LCD_2_PutChar
  73:.\LCD.c       ****         LCD_2_PutChar(0xC3);
 164              		.loc 1 73 0
 165 0082 C320     		movs	r0, #195
 166 0084 FFF7FEFF 		bl	LCD_2_PutChar
  74:.\LCD.c       ****         LCD_2_PutChar(0x3C);   		 
 167              		.loc 1 74 0
 168 0088 3C20     		movs	r0, #60
 169 008a FFF7FEFF 		bl	LCD_2_PutChar
 170              	.L1:
  75:.\LCD.c       ****     }
  76:.\LCD.c       **** }
 171              		.loc 1 76 0
 172 008e 0837     		adds	r7, r7, #8
 173 0090 BD46     		mov	sp, r7
 174              		@ sp needed
 175 0092 80BD     		pop	{r7, pc}
 176              		.cfi_endproc
 177              	.LFE63:
 178              		.size	set_imagen, .-set_imagen
 179              		.section	.rodata
 180              		.align	2
 181              	.LC0:
 182 0000 AA       		.byte	-86
 183 0001 98       		.byte	-104
 184 0002 00       		.byte	0
 185 0003 00       		.byte	0
 186 0004 01       		.byte	1
 187 0005 39       		.byte	57
 188 0006 23       		.byte	35
 189 0007 C5       		.byte	-59
 190 0008 02       		.byte	2
 191 0009 00       		.byte	0
 192 000a 00       		.byte	0
 193 000b FF       		.byte	-1
 194 000c FF       		.byte	-1
 195 000d 00       		.byte	0
 196 000e CC       		.byte	-52
 197 000f 33       		.byte	51
 198 0010 C3       		.byte	-61
 199 0011 3C       		.byte	60
 200              		.section	.text.write_LCD,"ax",%progbits
 201              		.align	2
 202              		.global	write_LCD
 203              		.thumb
 204              		.thumb_func
 205              		.type	write_LCD, %function
 206              	write_LCD:
 207              	.LFB64:
  77:.\LCD.c       **** 
  78:.\LCD.c       **** /*
ARM GAS  C:\Users\RECEPC~1\AppData\Local\Temp\cccH9qzv.s 			page 6


  79:.\LCD.c       **** ***************************************************************************************************
  80:.\LCD.c       **** *           void write_LCD(uint8_t lcd,uint8_t dato, uint16_t posy, uint16_t posx,uint8_t size)
  81:.\LCD.c       **** *
  82:.\LCD.c       **** * Description : 
  83:.\LCD.c       **** *               
  84:.\LCD.c       **** *
  85:.\LCD.c       **** * Argument(s) : none
  86:.\LCD.c       **** *
  87:.\LCD.c       **** * Return(s)   : none
  88:.\LCD.c       **** *
  89:.\LCD.c       **** * Caller(s)   : 
  90:.\LCD.c       **** *
  91:.\LCD.c       **** * Note(s)     : none.
  92:.\LCD.c       **** ***************************************************************************************************
  93:.\LCD.c       **** */
  94:.\LCD.c       **** void write_LCD(uint8_t lcd,uint8_t dato, uint16_t posy, uint16_t posx,uint8_t size){
 208              		.loc 1 94 0
 209              		.cfi_startproc
 210              		@ args = 4, pretend = 0, frame = 32
 211              		@ frame_needed = 1, uses_anonymous_args = 0
 212 0000 B0B5     		push	{r4, r5, r7, lr}
 213              		.cfi_def_cfa_offset 16
 214              		.cfi_offset 4, -16
 215              		.cfi_offset 5, -12
 216              		.cfi_offset 7, -8
 217              		.cfi_offset 14, -4
 218 0002 88B0     		sub	sp, sp, #32
 219              		.cfi_def_cfa_offset 48
 220 0004 00AF     		add	r7, sp, #0
 221              		.cfi_def_cfa_register 7
 222 0006 F871     		strb	r0, [r7, #7]
 223 0008 B971     		strb	r1, [r7, #6]
 224 000a BA80     		strh	r2, [r7, #4]	@ movhi
 225 000c 7B80     		strh	r3, [r7, #2]	@ movhi
  95:.\LCD.c       **** 	uint8_t buffer[18]={0xAA,0x98,0,0,0x01,0x39,0x23,0xC5,0x02,0x00,0x00,0xFF,0xFF,0,0xCC,0x33,0xC3,0x
 226              		.loc 1 95 0
 227 000e 294B     		ldr	r3, .L9
 228 0010 07F10C04 		add	r4, r7, #12
 229 0014 1D46     		mov	r5, r3
 230 0016 2868     		ldr	r0, [r5]	@ unaligned
 231 0018 6968     		ldr	r1, [r5, #4]	@ unaligned
 232 001a AA68     		ldr	r2, [r5, #8]	@ unaligned
 233 001c EB68     		ldr	r3, [r5, #12]	@ unaligned
 234 001e 0FC4     		stmia	r4!, {r0, r1, r2, r3}
 235 0020 2B8A     		ldrh	r3, [r5, #16]	@ unaligned
 236 0022 2380     		strh	r3, [r4]	@ unaligned
  96:.\LCD.c       **** 	buffer[2]=(0x0C*posx)>>8;
 237              		.loc 1 96 0
 238 0024 7A88     		ldrh	r2, [r7, #2]
 239 0026 1346     		mov	r3, r2
 240 0028 5B00     		lsls	r3, r3, #1
 241 002a 1344     		add	r3, r3, r2
 242 002c 9B00     		lsls	r3, r3, #2
 243 002e 1B12     		asrs	r3, r3, #8
 244 0030 DBB2     		uxtb	r3, r3
 245 0032 BB73     		strb	r3, [r7, #14]
  97:.\LCD.c       **** 	buffer[3]=(0x0C*posx)&0xFF;
ARM GAS  C:\Users\RECEPC~1\AppData\Local\Temp\cccH9qzv.s 			page 7


 246              		.loc 1 97 0
 247 0034 7B88     		ldrh	r3, [r7, #2]	@ movhi
 248 0036 DBB2     		uxtb	r3, r3
 249 0038 1A46     		mov	r2, r3
 250 003a 5200     		lsls	r2, r2, #1
 251 003c 1344     		add	r3, r3, r2
 252 003e 9B00     		lsls	r3, r3, #2
 253 0040 DBB2     		uxtb	r3, r3
 254 0042 FB73     		strb	r3, [r7, #15]
  98:.\LCD.c       **** 	buffer[4]=(0x0F*posy)>>8;
 255              		.loc 1 98 0
 256 0044 BA88     		ldrh	r2, [r7, #4]
 257 0046 1346     		mov	r3, r2
 258 0048 1B01     		lsls	r3, r3, #4
 259 004a 9B1A     		subs	r3, r3, r2
 260 004c 1B12     		asrs	r3, r3, #8
 261 004e DBB2     		uxtb	r3, r3
 262 0050 3B74     		strb	r3, [r7, #16]
  99:.\LCD.c       **** 	buffer[5]=(0x0F*posy)&0xFF;
 263              		.loc 1 99 0
 264 0052 BB88     		ldrh	r3, [r7, #4]	@ movhi
 265 0054 DBB2     		uxtb	r3, r3
 266 0056 1A46     		mov	r2, r3
 267 0058 1201     		lsls	r2, r2, #4
 268 005a D31A     		subs	r3, r2, r3
 269 005c DBB2     		uxtb	r3, r3
 270 005e 7B74     		strb	r3, [r7, #17]
 100:.\LCD.c       **** 	buffer[6]=0x23+size;
 271              		.loc 1 100 0
 272 0060 97F83030 		ldrb	r3, [r7, #48]
 273 0064 2333     		adds	r3, r3, #35
 274 0066 DBB2     		uxtb	r3, r3
 275 0068 BB74     		strb	r3, [r7, #18]
 101:.\LCD.c       **** 	buffer[13]=dato;
 276              		.loc 1 101 0
 277 006a BB79     		ldrb	r3, [r7, #6]
 278 006c 7B76     		strb	r3, [r7, #25]
 102:.\LCD.c       **** 	for(x=0;x<=17;x++){
 279              		.loc 1 102 0
 280 006e 0023     		movs	r3, #0
 281 0070 FB77     		strb	r3, [r7, #31]
 282 0072 18E0     		b	.L5
 283              	.L8:
 103:.\LCD.c       **** 		if(lcd==1){
 284              		.loc 1 103 0
 285 0074 FB79     		ldrb	r3, [r7, #7]	@ zero_extendqisi2
 286 0076 012B     		cmp	r3, #1
 287 0078 09D1     		bne	.L6
 104:.\LCD.c       **** 			LCD_1_PutChar(buffer[x]);
 288              		.loc 1 104 0
 289 007a FB7F     		ldrb	r3, [r7, #31]	@ zero_extendqisi2
 290 007c 07F12002 		add	r2, r7, #32
 291 0080 1344     		add	r3, r3, r2
 292 0082 13F8143C 		ldrb	r3, [r3, #-20]	@ zero_extendqisi2
 293 0086 1846     		mov	r0, r3
 294 0088 FFF7FEFF 		bl	LCD_1_PutChar
 295 008c 08E0     		b	.L7
ARM GAS  C:\Users\RECEPC~1\AppData\Local\Temp\cccH9qzv.s 			page 8


 296              	.L6:
 105:.\LCD.c       **** 		}
 106:.\LCD.c       **** 		else{
 107:.\LCD.c       **** 			LCD_2_PutChar(buffer[x]);
 297              		.loc 1 107 0
 298 008e FB7F     		ldrb	r3, [r7, #31]	@ zero_extendqisi2
 299 0090 07F12002 		add	r2, r7, #32
 300 0094 1344     		add	r3, r3, r2
 301 0096 13F8143C 		ldrb	r3, [r3, #-20]	@ zero_extendqisi2
 302 009a 1846     		mov	r0, r3
 303 009c FFF7FEFF 		bl	LCD_2_PutChar
 304              	.L7:
 102:.\LCD.c       **** 	for(x=0;x<=17;x++){
 305              		.loc 1 102 0
 306 00a0 FB7F     		ldrb	r3, [r7, #31]	@ zero_extendqisi2
 307 00a2 0133     		adds	r3, r3, #1
 308 00a4 FB77     		strb	r3, [r7, #31]
 309              	.L5:
 102:.\LCD.c       **** 	for(x=0;x<=17;x++){
 310              		.loc 1 102 0 is_stmt 0 discriminator 1
 311 00a6 FB7F     		ldrb	r3, [r7, #31]	@ zero_extendqisi2
 312 00a8 112B     		cmp	r3, #17
 313 00aa E3D9     		bls	.L8
 108:.\LCD.c       **** 		}	
 109:.\LCD.c       **** 	}	
 110:.\LCD.c       **** }
 314              		.loc 1 110 0 is_stmt 1
 315 00ac 2037     		adds	r7, r7, #32
 316 00ae BD46     		mov	sp, r7
 317              		@ sp needed
 318 00b0 B0BD     		pop	{r4, r5, r7, pc}
 319              	.L10:
 320 00b2 00BF     		.align	2
 321              	.L9:
 322 00b4 00000000 		.word	.LC0
 323              		.cfi_endproc
 324              	.LFE64:
 325              		.size	write_LCD, .-write_LCD
 326              		.section	.rodata
 327 0012 0000     		.align	2
 328              	.LC1:
 329 0014 AA       		.byte	-86
 330 0015 98       		.byte	-104
 331 0016 00       		.byte	0
 332 0017 D0       		.byte	-48
 333 0018 00       		.byte	0
 334 0019 BB       		.byte	-69
 335 001a 24       		.byte	36
 336 001b C5       		.byte	-59
 337 001c 02       		.byte	2
 338 001d 00       		.byte	0
 339 001e 00       		.byte	0
 340 001f FF       		.byte	-1
 341 0020 FF       		.byte	-1
 342 0021 30       		.byte	48
 343 0022 30       		.byte	48
 344 0023 3A       		.byte	58
ARM GAS  C:\Users\RECEPC~1\AppData\Local\Temp\cccH9qzv.s 			page 9


 345 0024 30       		.byte	48
 346 0025 30       		.byte	48
 347 0026 41       		.byte	65
 348 0027 6D       		.byte	109
 349 0028 CC       		.byte	-52
 350 0029 33       		.byte	51
 351 002a C3       		.byte	-61
 352 002b 3C       		.byte	60
 353              		.section	.text.Hora_LCD,"ax",%progbits
 354              		.align	2
 355              		.global	Hora_LCD
 356              		.thumb
 357              		.thumb_func
 358              		.type	Hora_LCD, %function
 359              	Hora_LCD:
 360              	.LFB65:
 111:.\LCD.c       **** 
 112:.\LCD.c       **** /*
 113:.\LCD.c       **** ***************************************************************************************************
 114:.\LCD.c       **** *                                 			void Hora_LCD(uint8 lcd)
 115:.\LCD.c       **** *
 116:.\LCD.c       **** * Description : 
 117:.\LCD.c       **** *               
 118:.\LCD.c       **** *
 119:.\LCD.c       **** * Argument(s) : none
 120:.\LCD.c       **** *
 121:.\LCD.c       **** * Return(s)   : none
 122:.\LCD.c       **** *
 123:.\LCD.c       **** * Caller(s)   : 
 124:.\LCD.c       **** *
 125:.\LCD.c       **** * Note(s)     : none.
 126:.\LCD.c       **** ***************************************************************************************************
 127:.\LCD.c       **** */
 128:.\LCD.c       **** void Hora_LCD(uint8 lcd){
 361              		.loc 1 128 0
 362              		.cfi_startproc
 363              		@ args = 0, pretend = 0, frame = 40
 364              		@ frame_needed = 1, uses_anonymous_args = 0
 365 0000 B0B5     		push	{r4, r5, r7, lr}
 366              		.cfi_def_cfa_offset 16
 367              		.cfi_offset 4, -16
 368              		.cfi_offset 5, -12
 369              		.cfi_offset 7, -8
 370              		.cfi_offset 14, -4
 371 0002 8AB0     		sub	sp, sp, #40
 372              		.cfi_def_cfa_offset 56
 373 0004 00AF     		add	r7, sp, #0
 374              		.cfi_def_cfa_register 7
 375 0006 0346     		mov	r3, r0
 376 0008 FB71     		strb	r3, [r7, #7]
 129:.\LCD.c       **** 	uint8 x;
 130:.\LCD.c       **** 	uint8 horal[24]={0xAA,0x98,0x00,0xd0,0x00,0xbb,0x24,0xC5,0x02,0x00,0x00,0xFF,0xFF,0X30,0x30,':',0x
 377              		.loc 1 130 0
 378 000a 364B     		ldr	r3, .L20
 379 000c 07F10C04 		add	r4, r7, #12
 380 0010 1D46     		mov	r5, r3
 381 0012 2868     		ldr	r0, [r5]	@ unaligned
ARM GAS  C:\Users\RECEPC~1\AppData\Local\Temp\cccH9qzv.s 			page 10


 382 0014 6968     		ldr	r1, [r5, #4]	@ unaligned
 383 0016 AA68     		ldr	r2, [r5, #8]	@ unaligned
 384 0018 EB68     		ldr	r3, [r5, #12]	@ unaligned
 385 001a 0FC4     		stmia	r4!, {r0, r1, r2, r3}
 386 001c 2869     		ldr	r0, [r5, #16]	@ unaligned
 387 001e 6969     		ldr	r1, [r5, #20]	@ unaligned
 388 0020 03C4     		stmia	r4!, {r0, r1}
 131:.\LCD.c       **** 	horal[13]=(((hora[1]&0x10)>>4)+48);
 389              		.loc 1 131 0
 390 0022 314B     		ldr	r3, .L20+4
 391 0024 5B78     		ldrb	r3, [r3, #1]	@ zero_extendqisi2
 392 0026 03F01003 		and	r3, r3, #16
 393 002a 1B11     		asrs	r3, r3, #4
 394 002c DBB2     		uxtb	r3, r3
 395 002e 3033     		adds	r3, r3, #48
 396 0030 DBB2     		uxtb	r3, r3
 397 0032 7B76     		strb	r3, [r7, #25]
 132:.\LCD.c       **** 	horal[14]=((hora[1]&0x0F)+48);
 398              		.loc 1 132 0
 399 0034 2C4B     		ldr	r3, .L20+4
 400 0036 5B78     		ldrb	r3, [r3, #1]	@ zero_extendqisi2
 401 0038 03F00F03 		and	r3, r3, #15
 402 003c DBB2     		uxtb	r3, r3
 403 003e 3033     		adds	r3, r3, #48
 404 0040 DBB2     		uxtb	r3, r3
 405 0042 BB76     		strb	r3, [r7, #26]
 133:.\LCD.c       **** 	horal[16]=(((hora[0]&0xF0)>>4)+48);
 406              		.loc 1 133 0
 407 0044 284B     		ldr	r3, .L20+4
 408 0046 1B78     		ldrb	r3, [r3]	@ zero_extendqisi2
 409 0048 1B09     		lsrs	r3, r3, #4
 410 004a DBB2     		uxtb	r3, r3
 411 004c 3033     		adds	r3, r3, #48
 412 004e DBB2     		uxtb	r3, r3
 413 0050 3B77     		strb	r3, [r7, #28]
 134:.\LCD.c       **** 	horal[17]=((hora[0]&0x0F)+48);
 414              		.loc 1 134 0
 415 0052 254B     		ldr	r3, .L20+4
 416 0054 1B78     		ldrb	r3, [r3]	@ zero_extendqisi2
 417 0056 03F00F03 		and	r3, r3, #15
 418 005a DBB2     		uxtb	r3, r3
 419 005c 3033     		adds	r3, r3, #48
 420 005e DBB2     		uxtb	r3, r3
 421 0060 7B77     		strb	r3, [r7, #29]
 135:.\LCD.c       **** 	if((hora[1]&0x20)==0x20){
 422              		.loc 1 135 0
 423 0062 214B     		ldr	r3, .L20+4
 424 0064 5B78     		ldrb	r3, [r3, #1]	@ zero_extendqisi2
 425 0066 03F02003 		and	r3, r3, #32
 426 006a 002B     		cmp	r3, #0
 427 006c 02D0     		beq	.L12
 136:.\LCD.c       **** 		horal[18]='p';
 428              		.loc 1 136 0
 429 006e 7023     		movs	r3, #112
 430 0070 BB77     		strb	r3, [r7, #30]
 431 0072 01E0     		b	.L13
 432              	.L12:
ARM GAS  C:\Users\RECEPC~1\AppData\Local\Temp\cccH9qzv.s 			page 11


 137:.\LCD.c       **** 	}
 138:.\LCD.c       **** 	else{
 139:.\LCD.c       **** 		horal[18]='a';						
 433              		.loc 1 139 0
 434 0074 6123     		movs	r3, #97
 435 0076 BB77     		strb	r3, [r7, #30]
 436              	.L13:
 140:.\LCD.c       **** 	}	
 141:.\LCD.c       ****     if(lcd==1){
 437              		.loc 1 141 0
 438 0078 FB79     		ldrb	r3, [r7, #7]	@ zero_extendqisi2
 439 007a 012B     		cmp	r3, #1
 440 007c 17D1     		bne	.L14
 142:.\LCD.c       **** 		for(x=0;x<=23;x++){
 441              		.loc 1 142 0
 442 007e 0023     		movs	r3, #0
 443 0080 87F82730 		strb	r3, [r7, #39]
 444 0084 0EE0     		b	.L15
 445              	.L16:
 143:.\LCD.c       ****         	LCD_1_PutChar(horal[x]);
 446              		.loc 1 143 0 discriminator 2
 447 0086 97F82730 		ldrb	r3, [r7, #39]	@ zero_extendqisi2
 448 008a 07F12802 		add	r2, r7, #40
 449 008e 1344     		add	r3, r3, r2
 450 0090 13F81C3C 		ldrb	r3, [r3, #-28]	@ zero_extendqisi2
 451 0094 1846     		mov	r0, r3
 452 0096 FFF7FEFF 		bl	LCD_1_PutChar
 142:.\LCD.c       **** 		for(x=0;x<=23;x++){
 453              		.loc 1 142 0 discriminator 2
 454 009a 97F82730 		ldrb	r3, [r7, #39]	@ zero_extendqisi2
 455 009e 0133     		adds	r3, r3, #1
 456 00a0 87F82730 		strb	r3, [r7, #39]
 457              	.L15:
 142:.\LCD.c       **** 		for(x=0;x<=23;x++){
 458              		.loc 1 142 0 is_stmt 0 discriminator 1
 459 00a4 97F82730 		ldrb	r3, [r7, #39]	@ zero_extendqisi2
 460 00a8 172B     		cmp	r3, #23
 461 00aa ECD9     		bls	.L16
 462 00ac 16E0     		b	.L11
 463              	.L14:
 144:.\LCD.c       **** 		}
 145:.\LCD.c       ****     }
 146:.\LCD.c       ****     else{
 147:.\LCD.c       **** 		for(x=0;x<=23;x++){
 464              		.loc 1 147 0 is_stmt 1
 465 00ae 0023     		movs	r3, #0
 466 00b0 87F82730 		strb	r3, [r7, #39]
 467 00b4 0EE0     		b	.L18
 468              	.L19:
 148:.\LCD.c       **** 	        LCD_2_PutChar(horal[x]);
 469              		.loc 1 148 0 discriminator 2
 470 00b6 97F82730 		ldrb	r3, [r7, #39]	@ zero_extendqisi2
 471 00ba 07F12802 		add	r2, r7, #40
 472 00be 1344     		add	r3, r3, r2
 473 00c0 13F81C3C 		ldrb	r3, [r3, #-28]	@ zero_extendqisi2
 474 00c4 1846     		mov	r0, r3
 475 00c6 FFF7FEFF 		bl	LCD_2_PutChar
ARM GAS  C:\Users\RECEPC~1\AppData\Local\Temp\cccH9qzv.s 			page 12


 147:.\LCD.c       **** 		for(x=0;x<=23;x++){
 476              		.loc 1 147 0 discriminator 2
 477 00ca 97F82730 		ldrb	r3, [r7, #39]	@ zero_extendqisi2
 478 00ce 0133     		adds	r3, r3, #1
 479 00d0 87F82730 		strb	r3, [r7, #39]
 480              	.L18:
 147:.\LCD.c       **** 		for(x=0;x<=23;x++){
 481              		.loc 1 147 0 is_stmt 0 discriminator 1
 482 00d4 97F82730 		ldrb	r3, [r7, #39]	@ zero_extendqisi2
 483 00d8 172B     		cmp	r3, #23
 484 00da ECD9     		bls	.L19
 485              	.L11:
 149:.\LCD.c       **** 		}
 150:.\LCD.c       ****     }
 151:.\LCD.c       **** }
 486              		.loc 1 151 0 is_stmt 1
 487 00dc 2837     		adds	r7, r7, #40
 488 00de BD46     		mov	sp, r7
 489              		@ sp needed
 490 00e0 B0BD     		pop	{r4, r5, r7, pc}
 491              	.L21:
 492 00e2 00BF     		.align	2
 493              	.L20:
 494 00e4 14000000 		.word	.LC1
 495 00e8 00000000 		.word	hora
 496              		.cfi_endproc
 497              	.LFE65:
 498              		.size	Hora_LCD, .-Hora_LCD
 499              		.section	.rodata
 500              		.align	2
 501              	.LC2:
 502 002c AA       		.byte	-86
 503 002d 98       		.byte	-104
 504 002e 00       		.byte	0
 505 002f CB       		.byte	-53
 506 0030 01       		.byte	1
 507 0031 27       		.byte	39
 508 0032 24       		.byte	36
 509 0033 C5       		.byte	-59
 510 0034 02       		.byte	2
 511 0035 00       		.byte	0
 512 0036 00       		.byte	0
 513 0037 FF       		.byte	-1
 514 0038 FF       		.byte	-1
 515 0039 30       		.byte	48
 516 003a 30       		.byte	48
 517 003b 2F       		.byte	47
 518 003c 30       		.byte	48
 519 003d 30       		.byte	48
 520 003e 2F       		.byte	47
 521 003f 30       		.byte	48
 522 0040 30       		.byte	48
 523 0041 CC       		.byte	-52
 524 0042 33       		.byte	51
 525 0043 C3       		.byte	-61
 526 0044 3C       		.byte	60
 527 0045 000000   		.section	.text.Fecha_LCD,"ax",%progbits
ARM GAS  C:\Users\RECEPC~1\AppData\Local\Temp\cccH9qzv.s 			page 13


 528              		.align	2
 529              		.global	Fecha_LCD
 530              		.thumb
 531              		.thumb_func
 532              		.type	Fecha_LCD, %function
 533              	Fecha_LCD:
 534              	.LFB66:
 152:.\LCD.c       **** 
 153:.\LCD.c       **** /*
 154:.\LCD.c       **** ***************************************************************************************************
 155:.\LCD.c       **** *                                 			void Fecha_LCD(uint8 lcd)
 156:.\LCD.c       **** *
 157:.\LCD.c       **** * Description : 
 158:.\LCD.c       **** *               
 159:.\LCD.c       **** *
 160:.\LCD.c       **** * Argument(s) : none
 161:.\LCD.c       **** *
 162:.\LCD.c       **** * Return(s)   : none
 163:.\LCD.c       **** *
 164:.\LCD.c       **** * Caller(s)   : 
 165:.\LCD.c       **** *
 166:.\LCD.c       **** * Note(s)     : none.
 167:.\LCD.c       **** ***************************************************************************************************
 168:.\LCD.c       **** */
 169:.\LCD.c       **** void Fecha_LCD(uint8 lcd){
 535              		.loc 1 169 0
 536              		.cfi_startproc
 537              		@ args = 0, pretend = 0, frame = 40
 538              		@ frame_needed = 1, uses_anonymous_args = 0
 539 0000 B0B5     		push	{r4, r5, r7, lr}
 540              		.cfi_def_cfa_offset 16
 541              		.cfi_offset 4, -16
 542              		.cfi_offset 5, -12
 543              		.cfi_offset 7, -8
 544              		.cfi_offset 14, -4
 545 0002 8AB0     		sub	sp, sp, #40
 546              		.cfi_def_cfa_offset 56
 547 0004 00AF     		add	r7, sp, #0
 548              		.cfi_def_cfa_register 7
 549 0006 0346     		mov	r3, r0
 550 0008 FB71     		strb	r3, [r7, #7]
 170:.\LCD.c       **** 	uint8 x;
 171:.\LCD.c       **** 	uint8 fechal[25]={0xAA,0x98,0x00,0xcb,0x01,0x27,0x24,0xC5,0x02,0x00,0x00,0xFF,0xFF,0x30,0x30,0x2f,
 551              		.loc 1 171 0
 552 000a 3A4B     		ldr	r3, .L29
 553 000c 07F10C04 		add	r4, r7, #12
 554 0010 1D46     		mov	r5, r3
 555 0012 2868     		ldr	r0, [r5]	@ unaligned
 556 0014 6968     		ldr	r1, [r5, #4]	@ unaligned
 557 0016 AA68     		ldr	r2, [r5, #8]	@ unaligned
 558 0018 EB68     		ldr	r3, [r5, #12]	@ unaligned
 559 001a 0FC4     		stmia	r4!, {r0, r1, r2, r3}
 560 001c 2869     		ldr	r0, [r5, #16]	@ unaligned
 561 001e 6969     		ldr	r1, [r5, #20]	@ unaligned
 562 0020 03C4     		stmia	r4!, {r0, r1}
 563 0022 2B7E     		ldrb	r3, [r5, #24]
 564 0024 2370     		strb	r3, [r4]
ARM GAS  C:\Users\RECEPC~1\AppData\Local\Temp\cccH9qzv.s 			page 14


 172:.\LCD.c       **** 	fechal[13]=(((fecha[0]&0x30)>>4)+48);
 565              		.loc 1 172 0
 566 0026 344B     		ldr	r3, .L29+4
 567 0028 1B78     		ldrb	r3, [r3]	@ zero_extendqisi2
 568 002a 03F03003 		and	r3, r3, #48
 569 002e 1B11     		asrs	r3, r3, #4
 570 0030 DBB2     		uxtb	r3, r3
 571 0032 3033     		adds	r3, r3, #48
 572 0034 DBB2     		uxtb	r3, r3
 573 0036 7B76     		strb	r3, [r7, #25]
 173:.\LCD.c       **** 	fechal[14]=((fecha[0]&0x0F)+48);
 574              		.loc 1 173 0
 575 0038 2F4B     		ldr	r3, .L29+4
 576 003a 1B78     		ldrb	r3, [r3]	@ zero_extendqisi2
 577 003c 03F00F03 		and	r3, r3, #15
 578 0040 DBB2     		uxtb	r3, r3
 579 0042 3033     		adds	r3, r3, #48
 580 0044 DBB2     		uxtb	r3, r3
 581 0046 BB76     		strb	r3, [r7, #26]
 174:.\LCD.c       **** 	fechal[16]=(((fecha[1]&0x10)>>4)+48);
 582              		.loc 1 174 0
 583 0048 2B4B     		ldr	r3, .L29+4
 584 004a 5B78     		ldrb	r3, [r3, #1]	@ zero_extendqisi2
 585 004c 03F01003 		and	r3, r3, #16
 586 0050 1B11     		asrs	r3, r3, #4
 587 0052 DBB2     		uxtb	r3, r3
 588 0054 3033     		adds	r3, r3, #48
 589 0056 DBB2     		uxtb	r3, r3
 590 0058 3B77     		strb	r3, [r7, #28]
 175:.\LCD.c       **** 	fechal[17]=((fecha[1]&0x0F)+48);
 591              		.loc 1 175 0
 592 005a 274B     		ldr	r3, .L29+4
 593 005c 5B78     		ldrb	r3, [r3, #1]	@ zero_extendqisi2
 594 005e 03F00F03 		and	r3, r3, #15
 595 0062 DBB2     		uxtb	r3, r3
 596 0064 3033     		adds	r3, r3, #48
 597 0066 DBB2     		uxtb	r3, r3
 598 0068 7B77     		strb	r3, [r7, #29]
 176:.\LCD.c       **** 	fechal[19]=(((fecha[2]&0xF0)>>4)+48);
 599              		.loc 1 176 0
 600 006a 234B     		ldr	r3, .L29+4
 601 006c 9B78     		ldrb	r3, [r3, #2]	@ zero_extendqisi2
 602 006e 1B09     		lsrs	r3, r3, #4
 603 0070 DBB2     		uxtb	r3, r3
 604 0072 3033     		adds	r3, r3, #48
 605 0074 DBB2     		uxtb	r3, r3
 606 0076 FB77     		strb	r3, [r7, #31]
 177:.\LCD.c       **** 	fechal[20]=((fecha[2]&0x0F)+48);	
 607              		.loc 1 177 0
 608 0078 1F4B     		ldr	r3, .L29+4
 609 007a 9B78     		ldrb	r3, [r3, #2]	@ zero_extendqisi2
 610 007c 03F00F03 		and	r3, r3, #15
 611 0080 DBB2     		uxtb	r3, r3
 612 0082 3033     		adds	r3, r3, #48
 613 0084 DBB2     		uxtb	r3, r3
 614 0086 87F82030 		strb	r3, [r7, #32]
 178:.\LCD.c       ****     if(lcd==1){
ARM GAS  C:\Users\RECEPC~1\AppData\Local\Temp\cccH9qzv.s 			page 15


 615              		.loc 1 178 0
 616 008a FB79     		ldrb	r3, [r7, #7]	@ zero_extendqisi2
 617 008c 012B     		cmp	r3, #1
 618 008e 17D1     		bne	.L23
 179:.\LCD.c       **** 		for(x=0;x<=24;x++){
 619              		.loc 1 179 0
 620 0090 0023     		movs	r3, #0
 621 0092 87F82730 		strb	r3, [r7, #39]
 622 0096 0EE0     		b	.L24
 623              	.L25:
 180:.\LCD.c       ****         	LCD_1_PutChar(fechal[x]);
 624              		.loc 1 180 0 discriminator 2
 625 0098 97F82730 		ldrb	r3, [r7, #39]	@ zero_extendqisi2
 626 009c 07F12802 		add	r2, r7, #40
 627 00a0 1344     		add	r3, r3, r2
 628 00a2 13F81C3C 		ldrb	r3, [r3, #-28]	@ zero_extendqisi2
 629 00a6 1846     		mov	r0, r3
 630 00a8 FFF7FEFF 		bl	LCD_1_PutChar
 179:.\LCD.c       **** 		for(x=0;x<=24;x++){
 631              		.loc 1 179 0 discriminator 2
 632 00ac 97F82730 		ldrb	r3, [r7, #39]	@ zero_extendqisi2
 633 00b0 0133     		adds	r3, r3, #1
 634 00b2 87F82730 		strb	r3, [r7, #39]
 635              	.L24:
 179:.\LCD.c       **** 		for(x=0;x<=24;x++){
 636              		.loc 1 179 0 is_stmt 0 discriminator 1
 637 00b6 97F82730 		ldrb	r3, [r7, #39]	@ zero_extendqisi2
 638 00ba 182B     		cmp	r3, #24
 639 00bc ECD9     		bls	.L25
 640 00be 16E0     		b	.L22
 641              	.L23:
 181:.\LCD.c       **** 		}
 182:.\LCD.c       ****     }
 183:.\LCD.c       ****     else{
 184:.\LCD.c       **** 		for(x=0;x<=24;x++){
 642              		.loc 1 184 0 is_stmt 1
 643 00c0 0023     		movs	r3, #0
 644 00c2 87F82730 		strb	r3, [r7, #39]
 645 00c6 0EE0     		b	.L27
 646              	.L28:
 185:.\LCD.c       **** 	        LCD_2_PutChar(fechal[x]);
 647              		.loc 1 185 0 discriminator 2
 648 00c8 97F82730 		ldrb	r3, [r7, #39]	@ zero_extendqisi2
 649 00cc 07F12802 		add	r2, r7, #40
 650 00d0 1344     		add	r3, r3, r2
 651 00d2 13F81C3C 		ldrb	r3, [r3, #-28]	@ zero_extendqisi2
 652 00d6 1846     		mov	r0, r3
 653 00d8 FFF7FEFF 		bl	LCD_2_PutChar
 184:.\LCD.c       **** 		for(x=0;x<=24;x++){
 654              		.loc 1 184 0 discriminator 2
 655 00dc 97F82730 		ldrb	r3, [r7, #39]	@ zero_extendqisi2
 656 00e0 0133     		adds	r3, r3, #1
 657 00e2 87F82730 		strb	r3, [r7, #39]
 658              	.L27:
 184:.\LCD.c       **** 		for(x=0;x<=24;x++){
 659              		.loc 1 184 0 is_stmt 0 discriminator 1
 660 00e6 97F82730 		ldrb	r3, [r7, #39]	@ zero_extendqisi2
ARM GAS  C:\Users\RECEPC~1\AppData\Local\Temp\cccH9qzv.s 			page 16


 661 00ea 182B     		cmp	r3, #24
 662 00ec ECD9     		bls	.L28
 663              	.L22:
 186:.\LCD.c       **** 		}
 187:.\LCD.c       ****     }
 188:.\LCD.c       **** }
 664              		.loc 1 188 0 is_stmt 1
 665 00ee 2837     		adds	r7, r7, #40
 666 00f0 BD46     		mov	sp, r7
 667              		@ sp needed
 668 00f2 B0BD     		pop	{r4, r5, r7, pc}
 669              	.L30:
 670              		.align	2
 671              	.L29:
 672 00f4 2C000000 		.word	.LC2
 673 00f8 00000000 		.word	fecha
 674              		.cfi_endproc
 675              	.LFE66:
 676              		.size	Fecha_LCD, .-Fecha_LCD
 677              		.section	.text.write_LCDB,"ax",%progbits
 678              		.align	2
 679              		.global	write_LCDB
 680              		.thumb
 681              		.thumb_func
 682              		.type	write_LCDB, %function
 683              	write_LCDB:
 684              	.LFB67:
 189:.\LCD.c       **** /*
 190:.\LCD.c       **** ***************************************************************************************************
 191:.\LCD.c       **** *                                 void write_LCD(uint8 lcd, uint8 dato, uint8 pos)
 192:.\LCD.c       **** *
 193:.\LCD.c       **** * Description : 
 194:.\LCD.c       **** *               
 195:.\LCD.c       **** *
 196:.\LCD.c       **** * Argument(s) : none
 197:.\LCD.c       **** *
 198:.\LCD.c       **** * Return(s)   : none
 199:.\LCD.c       **** *
 200:.\LCD.c       **** * Caller(s)   : 
 201:.\LCD.c       **** *
 202:.\LCD.c       **** * Note(s)     : none.
 203:.\LCD.c       **** ***************************************************************************************************
 204:.\LCD.c       **** */
 205:.\LCD.c       **** void write_LCDB(uint8 lcd, uint8 dato, uint8 pos){
 685              		.loc 1 205 0
 686              		.cfi_startproc
 687              		@ args = 0, pretend = 0, frame = 8
 688              		@ frame_needed = 1, uses_anonymous_args = 0
 689 0000 80B5     		push	{r7, lr}
 690              		.cfi_def_cfa_offset 8
 691              		.cfi_offset 7, -8
 692              		.cfi_offset 14, -4
 693 0002 82B0     		sub	sp, sp, #8
 694              		.cfi_def_cfa_offset 16
 695 0004 00AF     		add	r7, sp, #0
 696              		.cfi_def_cfa_register 7
 697 0006 1346     		mov	r3, r2
ARM GAS  C:\Users\RECEPC~1\AppData\Local\Temp\cccH9qzv.s 			page 17


 698 0008 0246     		mov	r2, r0
 699 000a FA71     		strb	r2, [r7, #7]
 700 000c 0A46     		mov	r2, r1
 701 000e BA71     		strb	r2, [r7, #6]
 702 0010 7B71     		strb	r3, [r7, #5]
 206:.\LCD.c       ****     if(lcd==1){
 703              		.loc 1 206 0
 704 0012 FB79     		ldrb	r3, [r7, #7]	@ zero_extendqisi2
 705 0014 012B     		cmp	r3, #1
 706 0016 43D1     		bne	.L32
 207:.\LCD.c       ****         LCD_1_PutChar(0xAA);
 707              		.loc 1 207 0
 708 0018 AA20     		movs	r0, #170
 709 001a FFF7FEFF 		bl	LCD_1_PutChar
 208:.\LCD.c       ****         LCD_1_PutChar(0x98);
 710              		.loc 1 208 0
 711 001e 9820     		movs	r0, #152
 712 0020 FFF7FEFF 		bl	LCD_1_PutChar
 209:.\LCD.c       ****         LCD_1_PutChar(0x00);
 713              		.loc 1 209 0
 714 0024 0020     		movs	r0, #0
 715 0026 FFF7FEFF 		bl	LCD_1_PutChar
 210:.\LCD.c       ****         LCD_1_PutChar((0x3F)+(0x19*pos));
 716              		.loc 1 210 0
 717 002a 7B79     		ldrb	r3, [r7, #5]
 718 002c 1A46     		mov	r2, r3
 719 002e 9200     		lsls	r2, r2, #2
 720 0030 1344     		add	r3, r3, r2
 721 0032 1A46     		mov	r2, r3
 722 0034 9100     		lsls	r1, r2, #2
 723 0036 1A46     		mov	r2, r3
 724 0038 0B46     		mov	r3, r1
 725 003a 1344     		add	r3, r3, r2
 726 003c DBB2     		uxtb	r3, r3
 727 003e 3F33     		adds	r3, r3, #63
 728 0040 DBB2     		uxtb	r3, r3
 729 0042 1846     		mov	r0, r3
 730 0044 FFF7FEFF 		bl	LCD_1_PutChar
 211:.\LCD.c       ****         LCD_1_PutChar(0x00);
 731              		.loc 1 211 0
 732 0048 0020     		movs	r0, #0
 733 004a FFF7FEFF 		bl	LCD_1_PutChar
 212:.\LCD.c       ****         LCD_1_PutChar(0x23);
 734              		.loc 1 212 0
 735 004e 2320     		movs	r0, #35
 736 0050 FFF7FEFF 		bl	LCD_1_PutChar
 213:.\LCD.c       ****         LCD_1_PutChar(0x24);
 737              		.loc 1 213 0
 738 0054 2420     		movs	r0, #36
 739 0056 FFF7FEFF 		bl	LCD_1_PutChar
 214:.\LCD.c       ****         LCD_1_PutChar(0xC5);
 740              		.loc 1 214 0
 741 005a C520     		movs	r0, #197
 742 005c FFF7FEFF 		bl	LCD_1_PutChar
 215:.\LCD.c       ****         LCD_1_PutChar(0x02);
 743              		.loc 1 215 0
 744 0060 0220     		movs	r0, #2
ARM GAS  C:\Users\RECEPC~1\AppData\Local\Temp\cccH9qzv.s 			page 18


 745 0062 FFF7FEFF 		bl	LCD_1_PutChar
 216:.\LCD.c       ****         LCD_1_PutChar(0x00);
 746              		.loc 1 216 0
 747 0066 0020     		movs	r0, #0
 748 0068 FFF7FEFF 		bl	LCD_1_PutChar
 217:.\LCD.c       ****         LCD_1_PutChar(0x00);
 749              		.loc 1 217 0
 750 006c 0020     		movs	r0, #0
 751 006e FFF7FEFF 		bl	LCD_1_PutChar
 218:.\LCD.c       ****         LCD_1_PutChar(0xFF);
 752              		.loc 1 218 0
 753 0072 FF20     		movs	r0, #255
 754 0074 FFF7FEFF 		bl	LCD_1_PutChar
 219:.\LCD.c       ****         LCD_1_PutChar(0xFF);
 755              		.loc 1 219 0
 756 0078 FF20     		movs	r0, #255
 757 007a FFF7FEFF 		bl	LCD_1_PutChar
 220:.\LCD.c       ****         LCD_1_PutChar(dato);
 758              		.loc 1 220 0
 759 007e BB79     		ldrb	r3, [r7, #6]	@ zero_extendqisi2
 760 0080 1846     		mov	r0, r3
 761 0082 FFF7FEFF 		bl	LCD_1_PutChar
 221:.\LCD.c       ****         LCD_1_PutChar(0xCC);
 762              		.loc 1 221 0
 763 0086 CC20     		movs	r0, #204
 764 0088 FFF7FEFF 		bl	LCD_1_PutChar
 222:.\LCD.c       ****         LCD_1_PutChar(0x33);
 765              		.loc 1 222 0
 766 008c 3320     		movs	r0, #51
 767 008e FFF7FEFF 		bl	LCD_1_PutChar
 223:.\LCD.c       ****         LCD_1_PutChar(0xC3);
 768              		.loc 1 223 0
 769 0092 C320     		movs	r0, #195
 770 0094 FFF7FEFF 		bl	LCD_1_PutChar
 224:.\LCD.c       ****         LCD_1_PutChar(0x3C);
 771              		.loc 1 224 0
 772 0098 3C20     		movs	r0, #60
 773 009a FFF7FEFF 		bl	LCD_1_PutChar
 774 009e 42E0     		b	.L31
 775              	.L32:
 225:.\LCD.c       ****     }
 226:.\LCD.c       ****     else{
 227:.\LCD.c       ****         LCD_2_PutChar(0xAA);
 776              		.loc 1 227 0
 777 00a0 AA20     		movs	r0, #170
 778 00a2 FFF7FEFF 		bl	LCD_2_PutChar
 228:.\LCD.c       ****         LCD_2_PutChar(0x98);
 779              		.loc 1 228 0
 780 00a6 9820     		movs	r0, #152
 781 00a8 FFF7FEFF 		bl	LCD_2_PutChar
 229:.\LCD.c       ****         LCD_2_PutChar(0x00);
 782              		.loc 1 229 0
 783 00ac 0020     		movs	r0, #0
 784 00ae FFF7FEFF 		bl	LCD_2_PutChar
 230:.\LCD.c       ****         LCD_2_PutChar((0x3F)+(0x19*pos));
 785              		.loc 1 230 0
 786 00b2 7B79     		ldrb	r3, [r7, #5]
ARM GAS  C:\Users\RECEPC~1\AppData\Local\Temp\cccH9qzv.s 			page 19


 787 00b4 1A46     		mov	r2, r3
 788 00b6 9200     		lsls	r2, r2, #2
 789 00b8 1344     		add	r3, r3, r2
 790 00ba 1A46     		mov	r2, r3
 791 00bc 9100     		lsls	r1, r2, #2
 792 00be 1A46     		mov	r2, r3
 793 00c0 0B46     		mov	r3, r1
 794 00c2 1344     		add	r3, r3, r2
 795 00c4 DBB2     		uxtb	r3, r3
 796 00c6 3F33     		adds	r3, r3, #63
 797 00c8 DBB2     		uxtb	r3, r3
 798 00ca 1846     		mov	r0, r3
 799 00cc FFF7FEFF 		bl	LCD_2_PutChar
 231:.\LCD.c       ****         LCD_2_PutChar(0x00);
 800              		.loc 1 231 0
 801 00d0 0020     		movs	r0, #0
 802 00d2 FFF7FEFF 		bl	LCD_2_PutChar
 232:.\LCD.c       ****         LCD_2_PutChar(0x23);
 803              		.loc 1 232 0
 804 00d6 2320     		movs	r0, #35
 805 00d8 FFF7FEFF 		bl	LCD_2_PutChar
 233:.\LCD.c       ****         LCD_2_PutChar(0x24);
 806              		.loc 1 233 0
 807 00dc 2420     		movs	r0, #36
 808 00de FFF7FEFF 		bl	LCD_2_PutChar
 234:.\LCD.c       ****         LCD_2_PutChar(0xC5);
 809              		.loc 1 234 0
 810 00e2 C520     		movs	r0, #197
 811 00e4 FFF7FEFF 		bl	LCD_2_PutChar
 235:.\LCD.c       ****         LCD_2_PutChar(0x02);
 812              		.loc 1 235 0
 813 00e8 0220     		movs	r0, #2
 814 00ea FFF7FEFF 		bl	LCD_2_PutChar
 236:.\LCD.c       ****         LCD_2_PutChar(0x00);
 815              		.loc 1 236 0
 816 00ee 0020     		movs	r0, #0
 817 00f0 FFF7FEFF 		bl	LCD_2_PutChar
 237:.\LCD.c       ****         LCD_2_PutChar(0x00);
 818              		.loc 1 237 0
 819 00f4 0020     		movs	r0, #0
 820 00f6 FFF7FEFF 		bl	LCD_2_PutChar
 238:.\LCD.c       ****         LCD_2_PutChar(0xFF);
 821              		.loc 1 238 0
 822 00fa FF20     		movs	r0, #255
 823 00fc FFF7FEFF 		bl	LCD_2_PutChar
 239:.\LCD.c       ****         LCD_2_PutChar(0xFF);
 824              		.loc 1 239 0
 825 0100 FF20     		movs	r0, #255
 826 0102 FFF7FEFF 		bl	LCD_2_PutChar
 240:.\LCD.c       ****         LCD_2_PutChar(dato);
 827              		.loc 1 240 0
 828 0106 BB79     		ldrb	r3, [r7, #6]	@ zero_extendqisi2
 829 0108 1846     		mov	r0, r3
 830 010a FFF7FEFF 		bl	LCD_2_PutChar
 241:.\LCD.c       ****         LCD_2_PutChar(0xCC);
 831              		.loc 1 241 0
 832 010e CC20     		movs	r0, #204
ARM GAS  C:\Users\RECEPC~1\AppData\Local\Temp\cccH9qzv.s 			page 20


 833 0110 FFF7FEFF 		bl	LCD_2_PutChar
 242:.\LCD.c       ****         LCD_2_PutChar(0x33);
 834              		.loc 1 242 0
 835 0114 3320     		movs	r0, #51
 836 0116 FFF7FEFF 		bl	LCD_2_PutChar
 243:.\LCD.c       ****         LCD_2_PutChar(0xC3);
 837              		.loc 1 243 0
 838 011a C320     		movs	r0, #195
 839 011c FFF7FEFF 		bl	LCD_2_PutChar
 244:.\LCD.c       ****         LCD_2_PutChar(0x3C);    
 840              		.loc 1 244 0
 841 0120 3C20     		movs	r0, #60
 842 0122 FFF7FEFF 		bl	LCD_2_PutChar
 843              	.L31:
 245:.\LCD.c       ****     }
 246:.\LCD.c       **** }
 844              		.loc 1 246 0
 845 0126 0837     		adds	r7, r7, #8
 846 0128 BD46     		mov	sp, r7
 847              		@ sp needed
 848 012a 80BD     		pop	{r7, pc}
 849              		.cfi_endproc
 850              	.LFE67:
 851              		.size	write_LCDB, .-write_LCDB
 852              		.text
 853              	.Letext0:
 854              		.file 2 "c:\\program files (x86)\\cypress\\psoc creator\\3.2\\psoc creator\\import\\gnu\\arm\\4.8.
 855              		.file 3 "c:\\program files (x86)\\cypress\\psoc creator\\3.2\\psoc creator\\import\\gnu\\arm\\4.8.
 856              		.file 4 "Generated_Source\\PSoC5/cytypes.h"
 857              		.file 5 ".\\VariablesG.h"
 858              		.file 6 "Generated_Source\\PSoC5/core_cm3.h"