ARM GAS  C:\Users\RECEPC~1\AppData\Local\Temp\cc3fClzk.s 			page 1


   1              		.syntax unified
   2              		.cpu cortex-m3
   3              		.fpu softvfp
   4              		.eabi_attribute 20, 1
   5              		.eabi_attribute 21, 1
   6              		.eabi_attribute 23, 3
   7              		.eabi_attribute 24, 1
   8              		.eabi_attribute 25, 1
   9              		.eabi_attribute 26, 1
  10              		.eabi_attribute 30, 6
  11              		.eabi_attribute 34, 1
  12              		.eabi_attribute 18, 4
  13              		.thumb
  14              		.file	"Protocolo.c"
  15              		.text
  16              	.Ltext0:
  17              		.cfi_sections	.debug_frame
  18              		.comm	count_teclas1,1,1
  19              		.comm	comas1,1,1
  20              		.comm	comas2,1,1
  21              		.comm	id_coma1,1,1
  22              		.comm	id_teclado1,1,1
  23              		.comm	count_teclas2,1,1
  24              		.comm	id_coma2,1,1
  25              		.comm	id_teclado2,1,1
  26              		.comm	posx1,2,2
  27              		.comm	posy1,2,2
  28              		.comm	sizeletra1,2,2
  29              		.comm	posx2,2,2
  30              		.comm	posy2,2,2
  31              		.comm	sizeletra2,2,2
  32              		.comm	teclas1,1,1
  33              		.comm	teclas2,1,1
  34              		.comm	flujo_LCD1,1,1
  35              		.comm	flujo_LCD2,1,1
  36              		.comm	flujo_LCD3,1,1
  37              		.comm	flujo_LCD4,1,1
  38              		.comm	Buffer_LCD1,30,4
  39              		.comm	Buffer_LCD2,30,4
  40              		.comm	count_protector,1,1
  41              		.comm	count_protector2,1,1
  42              		.comm	password_lcd,9,4
  43              		.comm	imagen_grado1,2,2
  44              		.comm	imagen_grado2,2,2
  45              		.comm	imagen_grado3,2,2
  46              		.comm	imagen_grado4,2,2
  47              		.comm	prox_caso,16,4
  48              		.comm	bloqueo_LCD,3,4
  49              		.comm	ppux10,1,1
  50              		.comm	nombre_pro1,17,4
  51              		.comm	nombre_pro2,17,4
  52              		.comm	nombre_pro3,17,4
  53              		.comm	version,4,4
  54              		.comm	lado1,93,4
  55              		.comm	lado2,93,4
  56              		.comm	lado3,93,4
  57              		.comm	lado4,93,4
ARM GAS  C:\Users\RECEPC~1\AppData\Local\Temp\cc3fClzk.s 			page 2


  58              		.comm	nombre,33,4
  59              		.comm	nit,15,4
  60              		.comm	telefono,20,4
  61              		.comm	direccion,33,4
  62              		.comm	lema1,32,4
  63              		.comm	lema2,32,4
  64              		.comm	id_logo,2,4
  65              		.comm	km,2,4
  66              		.comm	fecha,3,4
  67              		.comm	hora,2,4
  68              		.comm	rventa1,97,4
  69              		.comm	rventa2,97,4
  70              		.comm	rventa3,97,4
  71              		.comm	rventa4,97,4
  72              		.comm	ok_RF,1,1
  73              		.comm	ok_datosRF,1,1
  74              		.comm	rf_mod,200,4
  75              		.comm	buffer_i2c,64,4
  76              		.comm	crc_total,1,1
  77              		.comm	print1,2,4
  78              		.comm	print2,2,4
  79              		.comm	rx_timeout,1,1
  80              		.global	msn_tc
  81              		.data
  82              		.align	2
  83              		.type	msn_tc, %object
  84              		.size	msn_tc, 17
  85              	msn_tc:
  86 0000 544F5441 		.ascii	"TOTALES CORRIENTE"
  86      4C455320 
  86      434F5252 
  86      49454E54 
  86      45
  87              		.global	msn_te
  88 0011 000000   		.align	2
  89              		.type	msn_te, %object
  90              		.size	msn_te, 13
  91              	msn_te:
  92 0014 544F5441 		.ascii	"TOTALES EXTRA"
  92      4C455320 
  92      45585452 
  92      41
  93              		.global	msn_td
  94 0021 000000   		.align	2
  95              		.type	msn_td, %object
  96              		.size	msn_td, 14
  97              	msn_td:
  98 0024 544F5441 		.ascii	"TOTALES DIESEL"
  98      4C455320 
  98      44494553 
  98      454C
  99              		.global	msn_lecact
 100 0032 0000     		.align	2
 101              		.type	msn_lecact, %object
 102              		.size	msn_lecact, 15
 103              	msn_lecact:
 104 0034 4C656374 		.ascii	"Lectura Actual:"
ARM GAS  C:\Users\RECEPC~1\AppData\Local\Temp\cc3fClzk.s 			page 3


 104      75726120 
 104      41637475 
 104      616C3A
 105              		.global	msn_lecaan
 106 0043 00       		.align	2
 107              		.type	msn_lecaan, %object
 108              		.size	msn_lecaan, 17
 109              	msn_lecaan:
 110 0044 4C656374 		.ascii	"Lectura Anterior:"
 110      75726120 
 110      416E7465 
 110      72696F72 
 110      3A
 111              		.global	msn_tventas
 112 0055 000000   		.align	2
 113              		.type	msn_tventas, %object
 114              		.size	msn_tventas, 18
 115              	msn_tventas:
 116 0058 546F7461 		.ascii	"Total de Ventas: $"
 116      6C206465 
 116      2056656E 
 116      7461733A 
 116      2024
 117 006a 0000     		.section	.text.Rx_Surtidor,"ax",%progbits
 118              		.align	2
 119              		.global	Rx_Surtidor
 120              		.thumb
 121              		.thumb_func
 122              		.type	Rx_Surtidor, %function
 123              	Rx_Surtidor:
 124              	.LFB63:
 125              		.file 1 ".\\Protocolo.c"
   1:.\Protocolo.c **** /*
   2:.\Protocolo.c **** ***************************************************************************************************
   3:.\Protocolo.c **** *                                           GRP550/700 CODE
   4:.\Protocolo.c **** 
   5:.\Protocolo.c **** *
   6:.\Protocolo.c **** *                             (c) Copyright 2013; Sistemas Insepet LTDA
   7:.\Protocolo.c **** *
   8:.\Protocolo.c **** *               All rights reserved.  Protected by international copyright laws.
   9:.\Protocolo.c **** *               Knowledge of the source code may NOT be used to develop a similar product.
  10:.\Protocolo.c **** *               Please help us continue to provide the Embedded community with the finest
  11:.\Protocolo.c **** *               software available.  Your honesty is greatly appreciated.
  12:.\Protocolo.c **** ***************************************************************************************************
  13:.\Protocolo.c **** */
  14:.\Protocolo.c **** 
  15:.\Protocolo.c **** /*
  16:.\Protocolo.c **** ***************************************************************************************************
  17:.\Protocolo.c **** *
  18:.\Protocolo.c **** *                                             GRP550/700 CODE
  19:.\Protocolo.c **** *
  20:.\Protocolo.c **** *                                             CYPRESS PSoC5LP
  21:.\Protocolo.c **** *                                                with the
  22:.\Protocolo.c **** *                                            CY8C5969AXI-LP035
  23:.\Protocolo.c **** *
  24:.\Protocolo.c **** * Filename      : Protocolo.c
  25:.\Protocolo.c **** * Version       : V1.00
ARM GAS  C:\Users\RECEPC~1\AppData\Local\Temp\cc3fClzk.s 			page 4


  26:.\Protocolo.c **** * Programmer(s) : 
  27:.\Protocolo.c ****                   
  28:.\Protocolo.c **** ***************************************************************************************************
  29:.\Protocolo.c **** */
  30:.\Protocolo.c **** 
  31:.\Protocolo.c **** 
  32:.\Protocolo.c **** /*
  33:.\Protocolo.c **** ***************************************************************************************************
  34:.\Protocolo.c **** *                                             INCLUDE FILES
  35:.\Protocolo.c **** ***************************************************************************************************
  36:.\Protocolo.c **** */
  37:.\Protocolo.c **** #include <device.h>
  38:.\Protocolo.c **** #include "VariablesG.h"
  39:.\Protocolo.c **** #include "i2c.h"
  40:.\Protocolo.c **** #include "Print.h"
  41:.\Protocolo.c **** 
  42:.\Protocolo.c **** /*
  43:.\Protocolo.c **** ***************************************************************************************************
  44:.\Protocolo.c **** *                                            	MENSAJES
  45:.\Protocolo.c **** ***************************************************************************************************
  46:.\Protocolo.c **** */
  47:.\Protocolo.c **** uint8 rx_timeout;								//0 inicia espera  1 se cumplio el tiempo
  48:.\Protocolo.c **** uint8 msn_tc[17]="TOTALES CORRIENTE";
  49:.\Protocolo.c **** uint8 msn_te[13]="TOTALES EXTRA";
  50:.\Protocolo.c **** uint8 msn_td[14]="TOTALES DIESEL";
  51:.\Protocolo.c **** uint8 msn_lecact[15]="Lectura Actual:";
  52:.\Protocolo.c **** uint8 msn_lecaan[17]="Lectura Anterior:";
  53:.\Protocolo.c **** uint8 msn_tventas[18]="Total de Ventas: $";
  54:.\Protocolo.c **** 
  55:.\Protocolo.c **** /*
  56:.\Protocolo.c **** ***************************************************************************************************
  57:.\Protocolo.c **** *                                        CY_ISR(modo_mux)
  58:.\Protocolo.c **** *
  59:.\Protocolo.c **** * Description : 
  60:.\Protocolo.c **** *               
  61:.\Protocolo.c **** ***************************************************************************************************
  62:.\Protocolo.c **** */
  63:.\Protocolo.c **** CY_ISR(Rx_Surtidor){
 126              		.loc 1 63 0
 127              		.cfi_startproc
 128              		@ args = 0, pretend = 0, frame = 0
 129              		@ frame_needed = 1, uses_anonymous_args = 0
 130 0000 80B5     		push	{r7, lr}
 131              		.cfi_def_cfa_offset 8
 132              		.cfi_offset 7, -8
 133              		.cfi_offset 14, -4
 134 0002 00AF     		add	r7, sp, #0
 135              		.cfi_def_cfa_register 7
  64:.\Protocolo.c ****     Timer_RxSurtidor_ReadStatusRegister();
 136              		.loc 1 64 0
 137 0004 FFF7FEFF 		bl	Timer_RxSurtidor_ReadStatusRegister
  65:.\Protocolo.c **** 	rx_timeout=1;	
 138              		.loc 1 65 0
 139 0008 014B     		ldr	r3, .L2
 140 000a 0122     		movs	r2, #1
 141 000c 1A70     		strb	r2, [r3]
  66:.\Protocolo.c **** }
ARM GAS  C:\Users\RECEPC~1\AppData\Local\Temp\cc3fClzk.s 			page 5


 142              		.loc 1 66 0
 143 000e 80BD     		pop	{r7, pc}
 144              	.L3:
 145              		.align	2
 146              	.L2:
 147 0010 00000000 		.word	rx_timeout
 148              		.cfi_endproc
 149              	.LFE63:
 150              		.size	Rx_Surtidor, .-Rx_Surtidor
 151              		.section	.text.get_estado,"ax",%progbits
 152              		.align	2
 153              		.global	get_estado
 154              		.thumb
 155              		.thumb_func
 156              		.type	get_estado, %function
 157              	get_estado:
 158              	.LFB64:
  67:.\Protocolo.c **** 
  68:.\Protocolo.c **** 
  69:.\Protocolo.c **** /*
  70:.\Protocolo.c **** ***************************************************************************************************
  71:.\Protocolo.c **** *                                         ver_estado( void )
  72:.\Protocolo.c **** *
  73:.\Protocolo.c **** * Description : 
  74:.\Protocolo.c **** *               
  75:.\Protocolo.c **** *
  76:.\Protocolo.c **** * Argument(s) : none
  77:.\Protocolo.c **** *
  78:.\Protocolo.c **** * Return(s)   : none
  79:.\Protocolo.c **** *
  80:.\Protocolo.c **** * Caller(s)   : 
  81:.\Protocolo.c **** *
  82:.\Protocolo.c **** * Note(s)     : none.
  83:.\Protocolo.c **** ***************************************************************************************************
  84:.\Protocolo.c **** */
  85:.\Protocolo.c **** 
  86:.\Protocolo.c **** uint8 get_estado(uint8 dir){
 159              		.loc 1 86 0
 160              		.cfi_startproc
 161              		@ args = 0, pretend = 0, frame = 16
 162              		@ frame_needed = 1, uses_anonymous_args = 0
 163 0000 80B5     		push	{r7, lr}
 164              		.cfi_def_cfa_offset 8
 165              		.cfi_offset 7, -8
 166              		.cfi_offset 14, -4
 167 0002 84B0     		sub	sp, sp, #16
 168              		.cfi_def_cfa_offset 24
 169 0004 00AF     		add	r7, sp, #0
 170              		.cfi_def_cfa_register 7
 171 0006 0346     		mov	r3, r0
 172 0008 FB71     		strb	r3, [r7, #7]
  87:.\Protocolo.c ****     uint8 estado;
  88:.\Protocolo.c ****     Surtidor_ClearRxBuffer();	
 173              		.loc 1 88 0
 174 000a FFF7FEFF 		bl	Surtidor_ClearRxBuffer
  89:.\Protocolo.c ****     Surtidor_PutChar(dir);
 175              		.loc 1 89 0
ARM GAS  C:\Users\RECEPC~1\AppData\Local\Temp\cc3fClzk.s 			page 6


 176 000e FB79     		ldrb	r3, [r7, #7]	@ zero_extendqisi2
 177 0010 1846     		mov	r0, r3
 178 0012 FFF7FEFF 		bl	Surtidor_PutChar
  90:.\Protocolo.c **** 	isr_1_StartEx(Rx_Surtidor);
 179              		.loc 1 90 0
 180 0016 1E48     		ldr	r0, .L9
 181 0018 FFF7FEFF 		bl	isr_1_StartEx
  91:.\Protocolo.c ****     Timer_RxSurtidor_Start();
 182              		.loc 1 91 0
 183 001c FFF7FEFF 		bl	Timer_RxSurtidor_Start
  92:.\Protocolo.c **** 	rx_timeout=0;
 184              		.loc 1 92 0
 185 0020 1C4B     		ldr	r3, .L9+4
 186 0022 0022     		movs	r2, #0
 187 0024 1A70     		strb	r2, [r3]
  93:.\Protocolo.c ****     CyDelay(10);
 188              		.loc 1 93 0
 189 0026 0A20     		movs	r0, #10
 190 0028 FFF7FEFF 		bl	CyDelay
  94:.\Protocolo.c **** 	while(Surtidor_GetRxBufferSize()==0){
 191              		.loc 1 94 0
 192 002c 0BE0     		b	.L5
 193              	.L7:
  95:.\Protocolo.c **** 		if(rx_timeout==1){
 194              		.loc 1 95 0
 195 002e 194B     		ldr	r3, .L9+4
 196 0030 1B78     		ldrb	r3, [r3]	@ zero_extendqisi2
 197 0032 012B     		cmp	r3, #1
 198 0034 07D1     		bne	.L5
  96:.\Protocolo.c **** 			isr_1_Stop();
 199              		.loc 1 96 0
 200 0036 FFF7FEFF 		bl	isr_1_Stop
  97:.\Protocolo.c **** 			Timer_RxSurtidor_Stop();
 201              		.loc 1 97 0
 202 003a FFF7FEFF 		bl	Timer_RxSurtidor_Stop
  98:.\Protocolo.c ****     		Surtidor_ClearRxBuffer();			
 203              		.loc 1 98 0
 204 003e FFF7FEFF 		bl	Surtidor_ClearRxBuffer
  99:.\Protocolo.c **** 			return 0;
 205              		.loc 1 99 0
 206 0042 0023     		movs	r3, #0
 207 0044 20E0     		b	.L6
 208              	.L5:
  94:.\Protocolo.c **** 	while(Surtidor_GetRxBufferSize()==0){
 209              		.loc 1 94 0 discriminator 1
 210 0046 FFF7FEFF 		bl	Surtidor_GetRxBufferSize
 211 004a 0346     		mov	r3, r0
 212 004c 002B     		cmp	r3, #0
 213 004e EED0     		beq	.L7
 100:.\Protocolo.c **** 		}
 101:.\Protocolo.c **** 	}
 102:.\Protocolo.c ****     estado=Surtidor_ReadRxData();
 214              		.loc 1 102 0
 215 0050 FFF7FEFF 		bl	Surtidor_ReadRxData
 216 0054 0346     		mov	r3, r0
 217 0056 FB73     		strb	r3, [r7, #15]
 103:.\Protocolo.c **** 	if((estado&0x0F)==dir){
ARM GAS  C:\Users\RECEPC~1\AppData\Local\Temp\cc3fClzk.s 			page 7


 218              		.loc 1 103 0
 219 0058 FB7B     		ldrb	r3, [r7, #15]	@ zero_extendqisi2
 220 005a 03F00F02 		and	r2, r3, #15
 221 005e FB79     		ldrb	r3, [r7, #7]	@ zero_extendqisi2
 222 0060 9A42     		cmp	r2, r3
 223 0062 0AD1     		bne	.L8
 104:.\Protocolo.c **** 		estado=(estado&0xF0)>>4;
 224              		.loc 1 104 0
 225 0064 FB7B     		ldrb	r3, [r7, #15]	@ zero_extendqisi2
 226 0066 1B09     		lsrs	r3, r3, #4
 227 0068 FB73     		strb	r3, [r7, #15]
 105:.\Protocolo.c **** 	    Surtidor_ClearRxBuffer();
 228              		.loc 1 105 0
 229 006a FFF7FEFF 		bl	Surtidor_ClearRxBuffer
 106:.\Protocolo.c **** 		isr_1_Stop();
 230              		.loc 1 106 0
 231 006e FFF7FEFF 		bl	isr_1_Stop
 107:.\Protocolo.c **** 		Timer_RxSurtidor_Stop();	
 232              		.loc 1 107 0
 233 0072 FFF7FEFF 		bl	Timer_RxSurtidor_Stop
 108:.\Protocolo.c **** 	    return estado;
 234              		.loc 1 108 0
 235 0076 FB7B     		ldrb	r3, [r7, #15]	@ zero_extendqisi2
 236 0078 06E0     		b	.L6
 237              	.L8:
 109:.\Protocolo.c **** 	}
 110:.\Protocolo.c **** 	else{
 111:.\Protocolo.c **** 	    Surtidor_ClearRxBuffer();
 238              		.loc 1 111 0
 239 007a FFF7FEFF 		bl	Surtidor_ClearRxBuffer
 112:.\Protocolo.c **** 		isr_1_Stop();
 240              		.loc 1 112 0
 241 007e FFF7FEFF 		bl	isr_1_Stop
 113:.\Protocolo.c **** 		Timer_RxSurtidor_Stop();	
 242              		.loc 1 113 0
 243 0082 FFF7FEFF 		bl	Timer_RxSurtidor_Stop
 114:.\Protocolo.c **** 	    return 0;	
 244              		.loc 1 114 0
 245 0086 0023     		movs	r3, #0
 246              	.L6:
 115:.\Protocolo.c **** 	}
 116:.\Protocolo.c **** }
 247              		.loc 1 116 0
 248 0088 1846     		mov	r0, r3
 249 008a 1037     		adds	r7, r7, #16
 250 008c BD46     		mov	sp, r7
 251              		@ sp needed
 252 008e 80BD     		pop	{r7, pc}
 253              	.L10:
 254              		.align	2
 255              	.L9:
 256 0090 00000000 		.word	Rx_Surtidor
 257 0094 00000000 		.word	rx_timeout
 258              		.cfi_endproc
 259              	.LFE64:
 260              		.size	get_estado, .-get_estado
 261              		.section	.text.ver_pos,"ax",%progbits
ARM GAS  C:\Users\RECEPC~1\AppData\Local\Temp\cc3fClzk.s 			page 8


 262              		.align	2
 263              		.global	ver_pos
 264              		.thumb
 265              		.thumb_func
 266              		.type	ver_pos, %function
 267              	ver_pos:
 268              	.LFB65:
 117:.\Protocolo.c **** 
 118:.\Protocolo.c **** /*
 119:.\Protocolo.c **** ***************************************************************************************************
 120:.\Protocolo.c **** *                                         ver_pos( void )
 121:.\Protocolo.c **** *
 122:.\Protocolo.c **** * Description : 
 123:.\Protocolo.c **** *               
 124:.\Protocolo.c **** *
 125:.\Protocolo.c **** * Argument(s) : none
 126:.\Protocolo.c **** *
 127:.\Protocolo.c **** * Return(s)   : none
 128:.\Protocolo.c **** *
 129:.\Protocolo.c **** * Caller(s)   : 
 130:.\Protocolo.c **** *
 131:.\Protocolo.c **** * Note(s)     : none.
 132:.\Protocolo.c **** ***************************************************************************************************
 133:.\Protocolo.c **** */
 134:.\Protocolo.c **** uint8 ver_pos (void){
 269              		.loc 1 134 0
 270              		.cfi_startproc
 271              		@ args = 0, pretend = 0, frame = 8
 272              		@ frame_needed = 1, uses_anonymous_args = 0
 273 0000 80B5     		push	{r7, lr}
 274              		.cfi_def_cfa_offset 8
 275              		.cfi_offset 7, -8
 276              		.cfi_offset 14, -4
 277 0002 82B0     		sub	sp, sp, #8
 278              		.cfi_def_cfa_offset 16
 279 0004 00AF     		add	r7, sp, #0
 280              		.cfi_def_cfa_register 7
 135:.\Protocolo.c **** 	uint8 x;
 136:.\Protocolo.c **** 	lado1.dir=0xff;
 281              		.loc 1 136 0
 282 0006 354B     		ldr	r3, .L21
 283 0008 FF22     		movs	r2, #255
 284 000a 1A70     		strb	r2, [r3]
 137:.\Protocolo.c **** 	lado2.dir=0xff;
 285              		.loc 1 137 0
 286 000c 344B     		ldr	r3, .L21+4
 287 000e FF22     		movs	r2, #255
 288 0010 1A70     		strb	r2, [r3]
 138:.\Protocolo.c **** 	lado3.dir=0xff;
 289              		.loc 1 138 0
 290 0012 344B     		ldr	r3, .L21+8
 291 0014 FF22     		movs	r2, #255
 292 0016 1A70     		strb	r2, [r3]
 139:.\Protocolo.c **** 	lado4.dir=0xff;	
 293              		.loc 1 139 0
 294 0018 334B     		ldr	r3, .L21+12
 295 001a FF22     		movs	r2, #255
ARM GAS  C:\Users\RECEPC~1\AppData\Local\Temp\cc3fClzk.s 			page 9


 296 001c 1A70     		strb	r2, [r3]
 140:.\Protocolo.c **** 	CyDelay(5);
 297              		.loc 1 140 0
 298 001e 0520     		movs	r0, #5
 299 0020 FFF7FEFF 		bl	CyDelay
 141:.\Protocolo.c ****     if(get_estado(0)!=0){
 300              		.loc 1 141 0
 301 0024 0020     		movs	r0, #0
 302 0026 FFF7FEFF 		bl	get_estado
 303 002a 0346     		mov	r3, r0
 304 002c 002B     		cmp	r3, #0
 305 002e 02D0     		beq	.L12
 142:.\Protocolo.c **** 		lado4.dir=0;
 306              		.loc 1 142 0
 307 0030 2D4B     		ldr	r3, .L21+12
 308 0032 0022     		movs	r2, #0
 309 0034 1A70     		strb	r2, [r3]
 310              	.L12:
 143:.\Protocolo.c **** 	}	
 144:.\Protocolo.c ****     for(x=1;x<=15;x++){
 311              		.loc 1 144 0
 312 0036 0123     		movs	r3, #1
 313 0038 FB71     		strb	r3, [r7, #7]
 314 003a 31E0     		b	.L13
 315              	.L19:
 145:.\Protocolo.c **** 		CyDelay(5);
 316              		.loc 1 145 0
 317 003c 0520     		movs	r0, #5
 318 003e FFF7FEFF 		bl	CyDelay
 146:.\Protocolo.c ****         if(get_estado(x)!=0){
 319              		.loc 1 146 0
 320 0042 FB79     		ldrb	r3, [r7, #7]	@ zero_extendqisi2
 321 0044 1846     		mov	r0, r3
 322 0046 FFF7FEFF 		bl	get_estado
 323 004a 0346     		mov	r3, r0
 324 004c 002B     		cmp	r3, #0
 325 004e 24D0     		beq	.L14
 147:.\Protocolo.c **** 			if(lado1.dir==0xFF){
 326              		.loc 1 147 0
 327 0050 224B     		ldr	r3, .L21
 328 0052 1B78     		ldrb	r3, [r3]
 329 0054 DBB2     		uxtb	r3, r3
 330 0056 FF2B     		cmp	r3, #255
 331 0058 03D1     		bne	.L15
 148:.\Protocolo.c **** 				lado1.dir=x;
 332              		.loc 1 148 0
 333 005a 204B     		ldr	r3, .L21
 334 005c FA79     		ldrb	r2, [r7, #7]
 335 005e 1A70     		strb	r2, [r3]
 336 0060 1BE0     		b	.L14
 337              	.L15:
 149:.\Protocolo.c **** 			}
 150:.\Protocolo.c **** 			else if(lado2.dir==0xFF){
 338              		.loc 1 150 0
 339 0062 1F4B     		ldr	r3, .L21+4
 340 0064 1B78     		ldrb	r3, [r3]
 341 0066 DBB2     		uxtb	r3, r3
ARM GAS  C:\Users\RECEPC~1\AppData\Local\Temp\cc3fClzk.s 			page 10


 342 0068 FF2B     		cmp	r3, #255
 343 006a 03D1     		bne	.L16
 151:.\Protocolo.c **** 				lado2.dir=x;
 344              		.loc 1 151 0
 345 006c 1C4B     		ldr	r3, .L21+4
 346 006e FA79     		ldrb	r2, [r7, #7]
 347 0070 1A70     		strb	r2, [r3]
 348 0072 12E0     		b	.L14
 349              	.L16:
 152:.\Protocolo.c **** 			}
 153:.\Protocolo.c **** 			else if(lado3.dir==0xFF){
 350              		.loc 1 153 0
 351 0074 1B4B     		ldr	r3, .L21+8
 352 0076 1B78     		ldrb	r3, [r3]
 353 0078 DBB2     		uxtb	r3, r3
 354 007a FF2B     		cmp	r3, #255
 355 007c 03D1     		bne	.L17
 154:.\Protocolo.c **** 				lado3.dir=x;
 356              		.loc 1 154 0
 357 007e 194B     		ldr	r3, .L21+8
 358 0080 FA79     		ldrb	r2, [r7, #7]
 359 0082 1A70     		strb	r2, [r3]
 360 0084 09E0     		b	.L14
 361              	.L17:
 155:.\Protocolo.c **** 			}
 156:.\Protocolo.c **** 			else if(lado4.dir==0xFF){
 362              		.loc 1 156 0
 363 0086 184B     		ldr	r3, .L21+12
 364 0088 1B78     		ldrb	r3, [r3]
 365 008a DBB2     		uxtb	r3, r3
 366 008c FF2B     		cmp	r3, #255
 367 008e 04D1     		bne	.L14
 157:.\Protocolo.c **** 				lado4.dir=x;
 368              		.loc 1 157 0
 369 0090 154B     		ldr	r3, .L21+12
 370 0092 FA79     		ldrb	r2, [r7, #7]
 371 0094 1A70     		strb	r2, [r3]
 158:.\Protocolo.c **** 				return 1;
 372              		.loc 1 158 0
 373 0096 0123     		movs	r3, #1
 374 0098 1CE0     		b	.L18
 375              	.L14:
 144:.\Protocolo.c ****     for(x=1;x<=15;x++){
 376              		.loc 1 144 0
 377 009a FB79     		ldrb	r3, [r7, #7]	@ zero_extendqisi2
 378 009c 0133     		adds	r3, r3, #1
 379 009e FB71     		strb	r3, [r7, #7]
 380              	.L13:
 144:.\Protocolo.c ****     for(x=1;x<=15;x++){
 381              		.loc 1 144 0 is_stmt 0 discriminator 1
 382 00a0 FB79     		ldrb	r3, [r7, #7]	@ zero_extendqisi2
 383 00a2 0F2B     		cmp	r3, #15
 384 00a4 CAD9     		bls	.L19
 159:.\Protocolo.c **** 			}			
 160:.\Protocolo.c **** 		}
 161:.\Protocolo.c **** 	}
 162:.\Protocolo.c **** 	if((lado1.dir!=0xFF)&&(lado2.dir!=0xFF)&&(lado3.dir!=0xFF)&&(lado4.dir!=0xFF)){
ARM GAS  C:\Users\RECEPC~1\AppData\Local\Temp\cc3fClzk.s 			page 11


 385              		.loc 1 162 0 is_stmt 1
 386 00a6 0D4B     		ldr	r3, .L21
 387 00a8 1B78     		ldrb	r3, [r3]
 388 00aa DBB2     		uxtb	r3, r3
 389 00ac FF2B     		cmp	r3, #255
 390 00ae 10D0     		beq	.L20
 391              		.loc 1 162 0 is_stmt 0 discriminator 1
 392 00b0 0B4B     		ldr	r3, .L21+4
 393 00b2 1B78     		ldrb	r3, [r3]
 394 00b4 DBB2     		uxtb	r3, r3
 395 00b6 FF2B     		cmp	r3, #255
 396 00b8 0BD0     		beq	.L20
 397 00ba 0A4B     		ldr	r3, .L21+8
 398 00bc 1B78     		ldrb	r3, [r3]
 399 00be DBB2     		uxtb	r3, r3
 400 00c0 FF2B     		cmp	r3, #255
 401 00c2 06D0     		beq	.L20
 402 00c4 084B     		ldr	r3, .L21+12
 403 00c6 1B78     		ldrb	r3, [r3]
 404 00c8 DBB2     		uxtb	r3, r3
 405 00ca FF2B     		cmp	r3, #255
 406 00cc 01D0     		beq	.L20
 163:.\Protocolo.c **** 		return 1;
 407              		.loc 1 163 0 is_stmt 1
 408 00ce 0123     		movs	r3, #1
 409 00d0 00E0     		b	.L18
 410              	.L20:
 164:.\Protocolo.c **** 	}
 165:.\Protocolo.c **** 	else{
 166:.\Protocolo.c **** 		return 0;
 411              		.loc 1 166 0
 412 00d2 0023     		movs	r3, #0
 413              	.L18:
 167:.\Protocolo.c **** 	}
 168:.\Protocolo.c **** }
 414              		.loc 1 168 0
 415 00d4 1846     		mov	r0, r3
 416 00d6 0837     		adds	r7, r7, #8
 417 00d8 BD46     		mov	sp, r7
 418              		@ sp needed
 419 00da 80BD     		pop	{r7, pc}
 420              	.L22:
 421              		.align	2
 422              	.L21:
 423 00dc 00000000 		.word	lado1
 424 00e0 00000000 		.word	lado2
 425 00e4 00000000 		.word	lado3
 426 00e8 00000000 		.word	lado4
 427              		.cfi_endproc
 428              	.LFE65:
 429              		.size	ver_pos, .-ver_pos
 430              		.section	.text.ver_error,"ax",%progbits
 431              		.align	2
 432              		.global	ver_error
 433              		.thumb
 434              		.thumb_func
 435              		.type	ver_error, %function
ARM GAS  C:\Users\RECEPC~1\AppData\Local\Temp\cc3fClzk.s 			page 12


 436              	ver_error:
 437              	.LFB66:
 169:.\Protocolo.c **** 
 170:.\Protocolo.c **** /*
 171:.\Protocolo.c **** ***************************************************************************************************
 172:.\Protocolo.c **** *                                         void ver_error(uint8 val)
 173:.\Protocolo.c **** *
 174:.\Protocolo.c **** * Description : 
 175:.\Protocolo.c **** *               
 176:.\Protocolo.c **** *
 177:.\Protocolo.c **** * Argument(s) : none
 178:.\Protocolo.c **** *
 179:.\Protocolo.c **** * Return(s)   : none
 180:.\Protocolo.c **** *
 181:.\Protocolo.c **** * Caller(s)   : 
 182:.\Protocolo.c **** *
 183:.\Protocolo.c **** * Note(s)     : none.
 184:.\Protocolo.c **** ***************************************************************************************************
 185:.\Protocolo.c **** */
 186:.\Protocolo.c **** void ver_error(uint8 val){
 438              		.loc 1 186 0
 439              		.cfi_startproc
 440              		@ args = 0, pretend = 0, frame = 16
 441              		@ frame_needed = 1, uses_anonymous_args = 0
 442 0000 80B5     		push	{r7, lr}
 443              		.cfi_def_cfa_offset 8
 444              		.cfi_offset 7, -8
 445              		.cfi_offset 14, -4
 446 0002 84B0     		sub	sp, sp, #16
 447              		.cfi_def_cfa_offset 24
 448 0004 00AF     		add	r7, sp, #0
 449              		.cfi_def_cfa_register 7
 450 0006 0346     		mov	r3, r0
 451 0008 FB71     		strb	r3, [r7, #7]
 187:.\Protocolo.c ****     uint8 estado;
 188:.\Protocolo.c ****     Surtidor_PutChar(val);
 452              		.loc 1 188 0
 453 000a FB79     		ldrb	r3, [r7, #7]	@ zero_extendqisi2
 454 000c 1846     		mov	r0, r3
 455 000e FFF7FEFF 		bl	Surtidor_PutChar
 189:.\Protocolo.c ****     CyDelay(200);
 456              		.loc 1 189 0
 457 0012 C820     		movs	r0, #200
 458 0014 FFF7FEFF 		bl	CyDelay
 190:.\Protocolo.c ****     if(Surtidor_GetRxBufferSize()>=1){
 459              		.loc 1 190 0
 460 0018 FFF7FEFF 		bl	Surtidor_GetRxBufferSize
 461 001c 0346     		mov	r3, r0
 462 001e 002B     		cmp	r3, #0
 463 0020 06D0     		beq	.L23
 191:.\Protocolo.c ****        estado=(Surtidor_ReadRxData()&0xF0)>>4;
 464              		.loc 1 191 0
 465 0022 FFF7FEFF 		bl	Surtidor_ReadRxData
 466 0026 0346     		mov	r3, r0
 467 0028 1B09     		lsrs	r3, r3, #4
 468 002a FB73     		strb	r3, [r7, #15]
 192:.\Protocolo.c ****        Surtidor_ClearRxBuffer();
ARM GAS  C:\Users\RECEPC~1\AppData\Local\Temp\cc3fClzk.s 			page 13


 469              		.loc 1 192 0
 470 002c FFF7FEFF 		bl	Surtidor_ClearRxBuffer
 471              	.L23:
 193:.\Protocolo.c ****        if(estado==0){
 194:.\Protocolo.c **** 
 195:.\Protocolo.c ****        }
 196:.\Protocolo.c ****     }    
 197:.\Protocolo.c **** }
 472              		.loc 1 197 0
 473 0030 1037     		adds	r7, r7, #16
 474 0032 BD46     		mov	sp, r7
 475              		@ sp needed
 476 0034 80BD     		pop	{r7, pc}
 477              		.cfi_endproc
 478              	.LFE66:
 479              		.size	ver_error, .-ver_error
 480 0036 00BF     		.section	.rodata
 481              		.align	2
 482              	.LC0:
 483 0000 FF       		.byte	-1
 484 0001 E9       		.byte	-23
 485 0002 FE       		.byte	-2
 486 0003 E0       		.byte	-32
 487 0004 E1       		.byte	-31
 488 0005 E0       		.byte	-32
 489 0006 FB       		.byte	-5
 490 0007 EE       		.byte	-18
 491 0008 F0       		.byte	-16
 492 0009 000000   		.section	.text.estado_ex,"ax",%progbits
 493              		.align	2
 494              		.global	estado_ex
 495              		.thumb
 496              		.thumb_func
 497              		.type	estado_ex, %function
 498              	estado_ex:
 499              	.LFB67:
 198:.\Protocolo.c **** 
 199:.\Protocolo.c **** /*
 200:.\Protocolo.c **** ***************************************************************************************************
 201:.\Protocolo.c **** *                                         estado_ex(uint8 val)
 202:.\Protocolo.c **** *
 203:.\Protocolo.c **** * Description : 
 204:.\Protocolo.c **** *               
 205:.\Protocolo.c **** *
 206:.\Protocolo.c **** * Argument(s) : none
 207:.\Protocolo.c **** *
 208:.\Protocolo.c **** * Return(s)   : none
 209:.\Protocolo.c **** *
 210:.\Protocolo.c **** * Caller(s)   : 
 211:.\Protocolo.c **** *
 212:.\Protocolo.c **** * Note(s)     : none.
 213:.\Protocolo.c **** ***************************************************************************************************
 214:.\Protocolo.c **** */
 215:.\Protocolo.c **** uint8 estado_ex(uint8 val){
 500              		.loc 1 215 0
 501              		.cfi_startproc
 502              		@ args = 0, pretend = 0, frame = 40
ARM GAS  C:\Users\RECEPC~1\AppData\Local\Temp\cc3fClzk.s 			page 14


 503              		@ frame_needed = 1, uses_anonymous_args = 0
 504 0000 90B5     		push	{r4, r7, lr}
 505              		.cfi_def_cfa_offset 12
 506              		.cfi_offset 4, -12
 507              		.cfi_offset 7, -8
 508              		.cfi_offset 14, -4
 509 0002 8BB0     		sub	sp, sp, #44
 510              		.cfi_def_cfa_offset 56
 511 0004 00AF     		add	r7, sp, #0
 512              		.cfi_def_cfa_register 7
 513 0006 0346     		mov	r3, r0
 514 0008 FB71     		strb	r3, [r7, #7]
 216:.\Protocolo.c ****     uint8 rx_extend[19],x,comand_exten[9]={0xFF,0xE9,0xFE,0xE0,0xE1,0xE0,0xFB,0xEE,0xF0};
 515              		.loc 1 216 0
 516 000a 594A     		ldr	r2, .L43
 517 000c 07F10803 		add	r3, r7, #8
 518 0010 1068     		ldr	r0, [r2]	@ unaligned
 519 0012 5168     		ldr	r1, [r2, #4]	@ unaligned
 520 0014 03C3     		stmia	r3!, {r0, r1}
 521 0016 127A     		ldrb	r2, [r2, #8]
 522 0018 1A70     		strb	r2, [r3]
 217:.\Protocolo.c **** 	Surtidor_ClearRxBuffer();
 523              		.loc 1 217 0
 524 001a FFF7FEFF 		bl	Surtidor_ClearRxBuffer
 218:.\Protocolo.c ****     Surtidor_PutChar(0x20|val);
 525              		.loc 1 218 0
 526 001e FB79     		ldrb	r3, [r7, #7]
 527 0020 43F02003 		orr	r3, r3, #32
 528 0024 DBB2     		uxtb	r3, r3
 529 0026 1846     		mov	r0, r3
 530 0028 FFF7FEFF 		bl	Surtidor_PutChar
 219:.\Protocolo.c **** 	isr_1_StartEx(Rx_Surtidor);
 531              		.loc 1 219 0
 532 002c 5148     		ldr	r0, .L43+4
 533 002e FFF7FEFF 		bl	isr_1_StartEx
 220:.\Protocolo.c ****     Timer_RxSurtidor_Start();	
 534              		.loc 1 220 0
 535 0032 FFF7FEFF 		bl	Timer_RxSurtidor_Start
 221:.\Protocolo.c ****     rx_timeout=0;
 536              		.loc 1 221 0
 537 0036 504B     		ldr	r3, .L43+8
 538 0038 0022     		movs	r2, #0
 539 003a 1A70     		strb	r2, [r3]
 222:.\Protocolo.c **** 	while(Surtidor_GetRxBufferSize()==0){
 540              		.loc 1 222 0
 541 003c 0BE0     		b	.L26
 542              	.L28:
 223:.\Protocolo.c **** 		if(rx_timeout==1){
 543              		.loc 1 223 0
 544 003e 4E4B     		ldr	r3, .L43+8
 545 0040 1B78     		ldrb	r3, [r3]	@ zero_extendqisi2
 546 0042 012B     		cmp	r3, #1
 547 0044 07D1     		bne	.L26
 224:.\Protocolo.c **** 			isr_1_Stop();
 548              		.loc 1 224 0
 549 0046 FFF7FEFF 		bl	isr_1_Stop
 225:.\Protocolo.c **** 			Timer_RxSurtidor_Stop();
ARM GAS  C:\Users\RECEPC~1\AppData\Local\Temp\cc3fClzk.s 			page 15


 550              		.loc 1 225 0
 551 004a FFF7FEFF 		bl	Timer_RxSurtidor_Stop
 226:.\Protocolo.c ****     		Surtidor_ClearRxBuffer();			
 552              		.loc 1 226 0
 553 004e FFF7FEFF 		bl	Surtidor_ClearRxBuffer
 227:.\Protocolo.c **** 			return 0;
 554              		.loc 1 227 0
 555 0052 0023     		movs	r3, #0
 556 0054 88E0     		b	.L41
 557              	.L26:
 222:.\Protocolo.c **** 	while(Surtidor_GetRxBufferSize()==0){
 558              		.loc 1 222 0 discriminator 1
 559 0056 FFF7FEFF 		bl	Surtidor_GetRxBufferSize
 560 005a 0346     		mov	r3, r0
 561 005c 002B     		cmp	r3, #0
 562 005e EED0     		beq	.L28
 228:.\Protocolo.c **** 		}
 229:.\Protocolo.c **** 	}
 230:.\Protocolo.c **** 	isr_1_Stop();
 563              		.loc 1 230 0
 564 0060 FFF7FEFF 		bl	isr_1_Stop
 231:.\Protocolo.c **** 	Timer_RxSurtidor_Stop();	
 565              		.loc 1 231 0
 566 0064 FFF7FEFF 		bl	Timer_RxSurtidor_Stop
 232:.\Protocolo.c ****     if(Surtidor_ReadRxData()==(0xD0|val)){
 567              		.loc 1 232 0
 568 0068 FFF7FEFF 		bl	Surtidor_ReadRxData
 569 006c 0346     		mov	r3, r0
 570 006e 1A46     		mov	r2, r3
 571 0070 FB79     		ldrb	r3, [r7, #7]
 572 0072 63F02F03 		orn	r3, r3, #47
 573 0076 DBB2     		uxtb	r3, r3
 574 0078 9A42     		cmp	r2, r3
 575 007a 74D1     		bne	.L29
 233:.\Protocolo.c ****         Surtidor_ClearRxBuffer();
 576              		.loc 1 233 0
 577 007c FFF7FEFF 		bl	Surtidor_ClearRxBuffer
 234:.\Protocolo.c **** 		CyDelay(5);
 578              		.loc 1 234 0
 579 0080 0520     		movs	r0, #5
 580 0082 FFF7FEFF 		bl	CyDelay
 235:.\Protocolo.c ****         for(x=0;x<=8;x++){
 581              		.loc 1 235 0
 582 0086 0023     		movs	r3, #0
 583 0088 87F82730 		strb	r3, [r7, #39]
 584 008c 0EE0     		b	.L30
 585              	.L31:
 236:.\Protocolo.c ****            Surtidor_PutChar(comand_exten[x]); 
 586              		.loc 1 236 0 discriminator 2
 587 008e 97F82730 		ldrb	r3, [r7, #39]	@ zero_extendqisi2
 588 0092 07F12802 		add	r2, r7, #40
 589 0096 1344     		add	r3, r3, r2
 590 0098 13F8203C 		ldrb	r3, [r3, #-32]	@ zero_extendqisi2
 591 009c 1846     		mov	r0, r3
 592 009e FFF7FEFF 		bl	Surtidor_PutChar
 235:.\Protocolo.c ****         for(x=0;x<=8;x++){
 593              		.loc 1 235 0 discriminator 2
ARM GAS  C:\Users\RECEPC~1\AppData\Local\Temp\cc3fClzk.s 			page 16


 594 00a2 97F82730 		ldrb	r3, [r7, #39]	@ zero_extendqisi2
 595 00a6 0133     		adds	r3, r3, #1
 596 00a8 87F82730 		strb	r3, [r7, #39]
 597              	.L30:
 235:.\Protocolo.c ****         for(x=0;x<=8;x++){
 598              		.loc 1 235 0 is_stmt 0 discriminator 1
 599 00ac 97F82730 		ldrb	r3, [r7, #39]	@ zero_extendqisi2
 600 00b0 082B     		cmp	r3, #8
 601 00b2 ECD9     		bls	.L31
 237:.\Protocolo.c ****         }
 238:.\Protocolo.c **** 		isr_1_StartEx(Rx_Surtidor);
 602              		.loc 1 238 0 is_stmt 1
 603 00b4 2F48     		ldr	r0, .L43+4
 604 00b6 FFF7FEFF 		bl	isr_1_StartEx
 239:.\Protocolo.c **** 	    Timer_RxSurtidor_Start();	
 605              		.loc 1 239 0
 606 00ba FFF7FEFF 		bl	Timer_RxSurtidor_Start
 240:.\Protocolo.c **** 	    rx_timeout=0;
 607              		.loc 1 240 0
 608 00be 2E4B     		ldr	r3, .L43+8
 609 00c0 0022     		movs	r2, #0
 610 00c2 1A70     		strb	r2, [r3]
 241:.\Protocolo.c **** 		while(Surtidor_GetRxBufferSize()!=19){
 611              		.loc 1 241 0
 612 00c4 0BE0     		b	.L32
 613              	.L33:
 242:.\Protocolo.c **** 			if(rx_timeout==1){
 614              		.loc 1 242 0
 615 00c6 2C4B     		ldr	r3, .L43+8
 616 00c8 1B78     		ldrb	r3, [r3]	@ zero_extendqisi2
 617 00ca 012B     		cmp	r3, #1
 618 00cc 07D1     		bne	.L32
 243:.\Protocolo.c **** 				isr_1_Stop();
 619              		.loc 1 243 0
 620 00ce FFF7FEFF 		bl	isr_1_Stop
 244:.\Protocolo.c **** 				Timer_RxSurtidor_Stop();
 621              		.loc 1 244 0
 622 00d2 FFF7FEFF 		bl	Timer_RxSurtidor_Stop
 245:.\Protocolo.c **** 	    		Surtidor_ClearRxBuffer();			
 623              		.loc 1 245 0
 624 00d6 FFF7FEFF 		bl	Surtidor_ClearRxBuffer
 246:.\Protocolo.c **** 				return 0;
 625              		.loc 1 246 0
 626 00da 0023     		movs	r3, #0
 627 00dc 44E0     		b	.L41
 628              	.L32:
 241:.\Protocolo.c **** 		while(Surtidor_GetRxBufferSize()!=19){
 629              		.loc 1 241 0 discriminator 1
 630 00de FFF7FEFF 		bl	Surtidor_GetRxBufferSize
 631 00e2 0346     		mov	r3, r0
 632 00e4 132B     		cmp	r3, #19
 633 00e6 EED1     		bne	.L33
 247:.\Protocolo.c **** 			}
 248:.\Protocolo.c **** 		}       
 249:.\Protocolo.c **** 		isr_1_Stop();
 634              		.loc 1 249 0
 635 00e8 FFF7FEFF 		bl	isr_1_Stop
ARM GAS  C:\Users\RECEPC~1\AppData\Local\Temp\cc3fClzk.s 			page 17


 250:.\Protocolo.c **** 		Timer_RxSurtidor_Stop();		
 636              		.loc 1 250 0
 637 00ec FFF7FEFF 		bl	Timer_RxSurtidor_Stop
 251:.\Protocolo.c ****         for(x=0;x<=18;x++){
 638              		.loc 1 251 0
 639 00f0 0023     		movs	r3, #0
 640 00f2 87F82730 		strb	r3, [r7, #39]
 641 00f6 0FE0     		b	.L34
 642              	.L35:
 252:.\Protocolo.c ****            rx_extend[x]=Surtidor_ReadRxData(); 
 643              		.loc 1 252 0 discriminator 2
 644 00f8 97F82740 		ldrb	r4, [r7, #39]	@ zero_extendqisi2
 645 00fc FFF7FEFF 		bl	Surtidor_ReadRxData
 646 0100 0346     		mov	r3, r0
 647 0102 1A46     		mov	r2, r3
 648 0104 07F12803 		add	r3, r7, #40
 649 0108 2344     		add	r3, r3, r4
 650 010a 03F8142C 		strb	r2, [r3, #-20]
 251:.\Protocolo.c ****         for(x=0;x<=18;x++){
 651              		.loc 1 251 0 discriminator 2
 652 010e 97F82730 		ldrb	r3, [r7, #39]	@ zero_extendqisi2
 653 0112 0133     		adds	r3, r3, #1
 654 0114 87F82730 		strb	r3, [r7, #39]
 655              	.L34:
 251:.\Protocolo.c ****         for(x=0;x<=18;x++){
 656              		.loc 1 251 0 is_stmt 0 discriminator 1
 657 0118 97F82730 		ldrb	r3, [r7, #39]	@ zero_extendqisi2
 658 011c 122B     		cmp	r3, #18
 659 011e EBD9     		bls	.L35
 253:.\Protocolo.c ****         }
 254:.\Protocolo.c ****         Surtidor_ClearRxBuffer();
 660              		.loc 1 254 0 is_stmt 1
 661 0120 FFF7FEFF 		bl	Surtidor_ClearRxBuffer
 255:.\Protocolo.c ****         if((rx_extend[0]==0xBA)&&(rx_extend[17]==0x8D)&&(rx_extend[18]==0x8A)&&(rx_extend[12]==0xB1
 662              		.loc 1 255 0
 663 0124 3B7D     		ldrb	r3, [r7, #20]	@ zero_extendqisi2
 664 0126 BA2B     		cmp	r3, #186
 665 0128 1BD1     		bne	.L36
 666              		.loc 1 255 0 is_stmt 0 discriminator 1
 667 012a 97F82530 		ldrb	r3, [r7, #37]	@ zero_extendqisi2
 668 012e 8D2B     		cmp	r3, #141
 669 0130 17D1     		bne	.L36
 670 0132 97F82630 		ldrb	r3, [r7, #38]	@ zero_extendqisi2
 671 0136 8A2B     		cmp	r3, #138
 672 0138 13D1     		bne	.L36
 673 013a 97F82030 		ldrb	r3, [r7, #32]	@ zero_extendqisi2
 674 013e B12B     		cmp	r3, #177
 675 0140 0FD1     		bne	.L36
 256:.\Protocolo.c ****             switch(rx_extend[14]){
 676              		.loc 1 256 0 is_stmt 1
 677 0142 97F82230 		ldrb	r3, [r7, #34]	@ zero_extendqisi2
 678 0146 B22B     		cmp	r3, #178
 679 0148 05D0     		beq	.L38
 680 014a B32B     		cmp	r3, #179
 681 014c 05D0     		beq	.L39
 682 014e B12B     		cmp	r3, #177
 683 0150 05D1     		bne	.L42
ARM GAS  C:\Users\RECEPC~1\AppData\Local\Temp\cc3fClzk.s 			page 18


 257:.\Protocolo.c ****                 case 0xB1:
 258:.\Protocolo.c ****                     return 1;
 684              		.loc 1 258 0
 685 0152 0123     		movs	r3, #1
 686 0154 08E0     		b	.L41
 687              	.L38:
 259:.\Protocolo.c ****                 break;
 260:.\Protocolo.c ****                 case 0xB2:
 261:.\Protocolo.c ****                     return 2;
 688              		.loc 1 261 0
 689 0156 0223     		movs	r3, #2
 690 0158 06E0     		b	.L41
 691              	.L39:
 262:.\Protocolo.c ****                 break;
 263:.\Protocolo.c ****                 case 0xB3:
 264:.\Protocolo.c ****                     return 3;
 692              		.loc 1 264 0
 693 015a 0323     		movs	r3, #3
 694 015c 04E0     		b	.L41
 695              	.L42:
 265:.\Protocolo.c ****                 break;
 266:.\Protocolo.c ****                 default:
 267:.\Protocolo.c ****                 	return 0;
 696              		.loc 1 267 0
 697 015e 0023     		movs	r3, #0
 698 0160 02E0     		b	.L41
 699              	.L36:
 268:.\Protocolo.c **** 				break;
 269:.\Protocolo.c ****             }
 270:.\Protocolo.c ****         }
 271:.\Protocolo.c ****         else{
 272:.\Protocolo.c ****             return 0;
 700              		.loc 1 272 0
 701 0162 0023     		movs	r3, #0
 702 0164 00E0     		b	.L41
 703              	.L29:
 273:.\Protocolo.c ****         }
 274:.\Protocolo.c ****     }
 275:.\Protocolo.c ****     else{
 276:.\Protocolo.c ****         return 0;
 704              		.loc 1 276 0
 705 0166 0023     		movs	r3, #0
 706              	.L41:
 277:.\Protocolo.c ****     }
 278:.\Protocolo.c **** }
 707              		.loc 1 278 0
 708 0168 1846     		mov	r0, r3
 709 016a 2C37     		adds	r7, r7, #44
 710 016c BD46     		mov	sp, r7
 711              		@ sp needed
 712 016e 90BD     		pop	{r4, r7, pc}
 713              	.L44:
 714              		.align	2
 715              	.L43:
 716 0170 00000000 		.word	.LC0
 717 0174 00000000 		.word	Rx_Surtidor
 718 0178 00000000 		.word	rx_timeout
ARM GAS  C:\Users\RECEPC~1\AppData\Local\Temp\cc3fClzk.s 			page 19


 719              		.cfi_endproc
 720              	.LFE67:
 721              		.size	estado_ex, .-estado_ex
 722              		.section	.text.detener,"ax",%progbits
 723              		.align	2
 724              		.global	detener
 725              		.thumb
 726              		.thumb_func
 727              		.type	detener, %function
 728              	detener:
 729              	.LFB68:
 279:.\Protocolo.c **** 
 280:.\Protocolo.c **** /*
 281:.\Protocolo.c **** ***************************************************************************************************
 282:.\Protocolo.c **** *                                         void detener(uint8 val)
 283:.\Protocolo.c **** *
 284:.\Protocolo.c **** * Description : 
 285:.\Protocolo.c **** *               
 286:.\Protocolo.c **** *
 287:.\Protocolo.c **** * Argument(s) : none
 288:.\Protocolo.c **** *
 289:.\Protocolo.c **** * Return(s)   : none
 290:.\Protocolo.c **** *
 291:.\Protocolo.c **** * Caller(s)   : 
 292:.\Protocolo.c **** *
 293:.\Protocolo.c **** * Note(s)     : none.
 294:.\Protocolo.c **** ***************************************************************************************************
 295:.\Protocolo.c **** */
 296:.\Protocolo.c **** void detener(uint8 val){
 730              		.loc 1 296 0
 731              		.cfi_startproc
 732              		@ args = 0, pretend = 0, frame = 8
 733              		@ frame_needed = 1, uses_anonymous_args = 0
 734 0000 80B5     		push	{r7, lr}
 735              		.cfi_def_cfa_offset 8
 736              		.cfi_offset 7, -8
 737              		.cfi_offset 14, -4
 738 0002 82B0     		sub	sp, sp, #8
 739              		.cfi_def_cfa_offset 16
 740 0004 00AF     		add	r7, sp, #0
 741              		.cfi_def_cfa_register 7
 742 0006 0346     		mov	r3, r0
 743 0008 FB71     		strb	r3, [r7, #7]
 297:.\Protocolo.c ****     Surtidor_PutChar(0x30|val);
 744              		.loc 1 297 0
 745 000a FB79     		ldrb	r3, [r7, #7]
 746 000c 43F03003 		orr	r3, r3, #48
 747 0010 DBB2     		uxtb	r3, r3
 748 0012 1846     		mov	r0, r3
 749 0014 FFF7FEFF 		bl	Surtidor_PutChar
 298:.\Protocolo.c ****     CyDelay(200);
 750              		.loc 1 298 0
 751 0018 C820     		movs	r0, #200
 752 001a FFF7FEFF 		bl	CyDelay
 299:.\Protocolo.c **** }
 753              		.loc 1 299 0
 754 001e 0837     		adds	r7, r7, #8
ARM GAS  C:\Users\RECEPC~1\AppData\Local\Temp\cc3fClzk.s 			page 20


 755 0020 BD46     		mov	sp, r7
 756              		@ sp needed
 757 0022 80BD     		pop	{r7, pc}
 758              		.cfi_endproc
 759              	.LFE68:
 760              		.size	detener, .-detener
 761              		.section	.text.venta,"ax",%progbits
 762              		.align	2
 763              		.global	venta
 764              		.thumb
 765              		.thumb_func
 766              		.type	venta, %function
 767              	venta:
 768              	.LFB69:
 300:.\Protocolo.c **** 
 301:.\Protocolo.c **** /*
 302:.\Protocolo.c **** ***************************************************************************************************
 303:.\Protocolo.c **** *                                         void venta(uint8 val)
 304:.\Protocolo.c **** *
 305:.\Protocolo.c **** * Description : 
 306:.\Protocolo.c **** *               
 307:.\Protocolo.c **** *
 308:.\Protocolo.c **** * Argument(s) : none
 309:.\Protocolo.c **** *
 310:.\Protocolo.c **** * Return(s)   : none
 311:.\Protocolo.c **** *
 312:.\Protocolo.c **** * Caller(s)   : 
 313:.\Protocolo.c **** *
 314:.\Protocolo.c **** * Note(s)     : none.
 315:.\Protocolo.c **** ***************************************************************************************************
 316:.\Protocolo.c **** */
 317:.\Protocolo.c **** uint8 venta(uint8 dir){
 769              		.loc 1 317 0
 770              		.cfi_startproc
 771              		@ args = 0, pretend = 0, frame = 16
 772              		@ frame_needed = 1, uses_anonymous_args = 0
 773 0000 80B5     		push	{r7, lr}
 774              		.cfi_def_cfa_offset 8
 775              		.cfi_offset 7, -8
 776              		.cfi_offset 14, -4
 777 0002 84B0     		sub	sp, sp, #16
 778              		.cfi_def_cfa_offset 24
 779 0004 00AF     		add	r7, sp, #0
 780              		.cfi_def_cfa_register 7
 781 0006 0346     		mov	r3, r0
 782 0008 FB71     		strb	r3, [r7, #7]
 318:.\Protocolo.c **** 	uint8 x;
 319:.\Protocolo.c **** 	Surtidor_ClearRxBuffer();
 783              		.loc 1 319 0
 784 000a FFF7FEFF 		bl	Surtidor_ClearRxBuffer
 320:.\Protocolo.c **** 	Surtidor_PutChar(0x40|dir);
 785              		.loc 1 320 0
 786 000e FB79     		ldrb	r3, [r7, #7]
 787 0010 43F04003 		orr	r3, r3, #64
 788 0014 DBB2     		uxtb	r3, r3
 789 0016 1846     		mov	r0, r3
 790 0018 FFF7FEFF 		bl	Surtidor_PutChar
ARM GAS  C:\Users\RECEPC~1\AppData\Local\Temp\cc3fClzk.s 			page 21


 321:.\Protocolo.c ****     CyDelay(350);
 791              		.loc 1 321 0
 792 001c 4FF4AF70 		mov	r0, #350
 793 0020 FFF7FEFF 		bl	CyDelay
 322:.\Protocolo.c **** 	if((version[1]!=7)&&(Surtidor_GetRxBufferSize()==33)){
 794              		.loc 1 322 0
 795 0024 A54B     		ldr	r3, .L108
 796 0026 5B78     		ldrb	r3, [r3, #1]
 797 0028 DBB2     		uxtb	r3, r3
 798 002a 072B     		cmp	r3, #7
 799 002c 00F07081 		beq	.L47
 800              		.loc 1 322 0 is_stmt 0 discriminator 1
 801 0030 FFF7FEFF 		bl	Surtidor_GetRxBufferSize
 802 0034 0346     		mov	r3, r0
 803 0036 212B     		cmp	r3, #33
 804 0038 40F06A81 		bne	.L47
 323:.\Protocolo.c **** 		if((Surtidor_rxBuffer[0]==0xFF)&&(Surtidor_rxBuffer[2]==0xF8)&&(Surtidor_rxBuffer[32]==0xF0)){
 805              		.loc 1 323 0 is_stmt 1
 806 003c A04B     		ldr	r3, .L108+4
 807 003e 1B78     		ldrb	r3, [r3]
 808 0040 DBB2     		uxtb	r3, r3
 809 0042 FF2B     		cmp	r3, #255
 810 0044 40F06281 		bne	.L48
 811              		.loc 1 323 0 is_stmt 0 discriminator 1
 812 0048 9D4B     		ldr	r3, .L108+4
 813 004a 9B78     		ldrb	r3, [r3, #2]
 814 004c DBB2     		uxtb	r3, r3
 815 004e F82B     		cmp	r3, #248
 816 0050 40F05C81 		bne	.L48
 817 0054 9A4B     		ldr	r3, .L108+4
 818 0056 93F82030 		ldrb	r3, [r3, #32]
 819 005a DBB2     		uxtb	r3, r3
 820 005c F02B     		cmp	r3, #240
 821 005e 40F05581 		bne	.L48
 324:.\Protocolo.c **** 			if(dir==lado1.dir){
 822              		.loc 1 324 0 is_stmt 1
 823 0062 984B     		ldr	r3, .L108+8
 824 0064 1B78     		ldrb	r3, [r3]
 825 0066 DBB2     		uxtb	r3, r3
 826 0068 FA79     		ldrb	r2, [r7, #7]	@ zero_extendqisi2
 827 006a 9A42     		cmp	r2, r3
 828 006c 49D1     		bne	.L49
 325:.\Protocolo.c **** 				rventa1.producto=(Surtidor_rxBuffer[9]&0x0F)+1;
 829              		.loc 1 325 0
 830 006e 944B     		ldr	r3, .L108+4
 831 0070 5B7A     		ldrb	r3, [r3, #9]
 832 0072 DBB2     		uxtb	r3, r3
 833 0074 03F00F03 		and	r3, r3, #15
 834 0078 DBB2     		uxtb	r3, r3
 835 007a 0133     		adds	r3, r3, #1
 836 007c DAB2     		uxtb	r2, r3
 837 007e 924B     		ldr	r3, .L108+12
 838 0080 5A76     		strb	r2, [r3, #25]
 326:.\Protocolo.c **** 				for(x=0;x<=3;x++){
 839              		.loc 1 326 0
 840 0082 0023     		movs	r3, #0
 841 0084 FB73     		strb	r3, [r7, #15]
ARM GAS  C:\Users\RECEPC~1\AppData\Local\Temp\cc3fClzk.s 			page 22


 842 0086 0EE0     		b	.L50
 843              	.L51:
 327:.\Protocolo.c **** 					rventa1.ppu[x]=(Surtidor_rxBuffer[x+12]&0x0F);
 844              		.loc 1 327 0 discriminator 2
 845 0088 FB7B     		ldrb	r3, [r7, #15]	@ zero_extendqisi2
 846 008a FA7B     		ldrb	r2, [r7, #15]	@ zero_extendqisi2
 847 008c 0C32     		adds	r2, r2, #12
 848 008e 8C49     		ldr	r1, .L108+4
 849 0090 8A5C     		ldrb	r2, [r1, r2]
 850 0092 D2B2     		uxtb	r2, r2
 851 0094 02F00F02 		and	r2, r2, #15
 852 0098 D2B2     		uxtb	r2, r2
 853 009a 8B49     		ldr	r1, .L108+12
 854 009c 0B44     		add	r3, r3, r1
 855 009e 9A70     		strb	r2, [r3, #2]
 326:.\Protocolo.c **** 				for(x=0;x<=3;x++){
 856              		.loc 1 326 0 discriminator 2
 857 00a0 FB7B     		ldrb	r3, [r7, #15]	@ zero_extendqisi2
 858 00a2 0133     		adds	r3, r3, #1
 859 00a4 FB73     		strb	r3, [r7, #15]
 860              	.L50:
 326:.\Protocolo.c **** 				for(x=0;x<=3;x++){
 861              		.loc 1 326 0 is_stmt 0 discriminator 1
 862 00a6 FB7B     		ldrb	r3, [r7, #15]	@ zero_extendqisi2
 863 00a8 032B     		cmp	r3, #3
 864 00aa EDD9     		bls	.L51
 328:.\Protocolo.c **** 				}
 329:.\Protocolo.c **** 				for(x=0;x<=5;x++){
 865              		.loc 1 329 0 is_stmt 1
 866 00ac 0023     		movs	r3, #0
 867 00ae FB73     		strb	r3, [r7, #15]
 868 00b0 0EE0     		b	.L52
 869              	.L53:
 330:.\Protocolo.c **** 					rventa1.volumen[x]=(Surtidor_rxBuffer[x+17]&0x0F);
 870              		.loc 1 330 0 discriminator 2
 871 00b2 FB7B     		ldrb	r3, [r7, #15]	@ zero_extendqisi2
 872 00b4 FA7B     		ldrb	r2, [r7, #15]	@ zero_extendqisi2
 873 00b6 1132     		adds	r2, r2, #17
 874 00b8 8149     		ldr	r1, .L108+4
 875 00ba 8A5C     		ldrb	r2, [r1, r2]
 876 00bc D2B2     		uxtb	r2, r2
 877 00be 02F00F02 		and	r2, r2, #15
 878 00c2 D2B2     		uxtb	r2, r2
 879 00c4 8049     		ldr	r1, .L108+12
 880 00c6 0B44     		add	r3, r3, r1
 881 00c8 1A74     		strb	r2, [r3, #16]
 329:.\Protocolo.c **** 				for(x=0;x<=5;x++){
 882              		.loc 1 329 0 discriminator 2
 883 00ca FB7B     		ldrb	r3, [r7, #15]	@ zero_extendqisi2
 884 00cc 0133     		adds	r3, r3, #1
 885 00ce FB73     		strb	r3, [r7, #15]
 886              	.L52:
 329:.\Protocolo.c **** 				for(x=0;x<=5;x++){
 887              		.loc 1 329 0 is_stmt 0 discriminator 1
 888 00d0 FB7B     		ldrb	r3, [r7, #15]	@ zero_extendqisi2
 889 00d2 052B     		cmp	r3, #5
 890 00d4 EDD9     		bls	.L53
ARM GAS  C:\Users\RECEPC~1\AppData\Local\Temp\cc3fClzk.s 			page 23


 331:.\Protocolo.c **** 				}			
 332:.\Protocolo.c **** 				for(x=0;x<=5;x++){
 891              		.loc 1 332 0 is_stmt 1
 892 00d6 0023     		movs	r3, #0
 893 00d8 FB73     		strb	r3, [r7, #15]
 894 00da 0EE0     		b	.L54
 895              	.L55:
 333:.\Protocolo.c **** 					rventa1.dinero[x]=(Surtidor_rxBuffer[x+24]&0x0F);
 896              		.loc 1 333 0 discriminator 2
 897 00dc FB7B     		ldrb	r3, [r7, #15]	@ zero_extendqisi2
 898 00de FA7B     		ldrb	r2, [r7, #15]	@ zero_extendqisi2
 899 00e0 1832     		adds	r2, r2, #24
 900 00e2 7749     		ldr	r1, .L108+4
 901 00e4 8A5C     		ldrb	r2, [r1, r2]
 902 00e6 D2B2     		uxtb	r2, r2
 903 00e8 02F00F02 		and	r2, r2, #15
 904 00ec D2B2     		uxtb	r2, r2
 905 00ee 7649     		ldr	r1, .L108+12
 906 00f0 0B44     		add	r3, r3, r1
 907 00f2 DA71     		strb	r2, [r3, #7]
 332:.\Protocolo.c **** 				for(x=0;x<=5;x++){
 908              		.loc 1 332 0 discriminator 2
 909 00f4 FB7B     		ldrb	r3, [r7, #15]	@ zero_extendqisi2
 910 00f6 0133     		adds	r3, r3, #1
 911 00f8 FB73     		strb	r3, [r7, #15]
 912              	.L54:
 332:.\Protocolo.c **** 				for(x=0;x<=5;x++){
 913              		.loc 1 332 0 is_stmt 0 discriminator 1
 914 00fa FB7B     		ldrb	r3, [r7, #15]	@ zero_extendqisi2
 915 00fc 052B     		cmp	r3, #5
 916 00fe EDD9     		bls	.L55
 917 0100 02E1     		b	.L56
 918              	.L49:
 334:.\Protocolo.c **** 				}
 335:.\Protocolo.c **** 			}
 336:.\Protocolo.c **** 			else if(dir==lado2.dir){
 919              		.loc 1 336 0 is_stmt 1
 920 0102 724B     		ldr	r3, .L108+16
 921 0104 1B78     		ldrb	r3, [r3]
 922 0106 DBB2     		uxtb	r3, r3
 923 0108 FA79     		ldrb	r2, [r7, #7]	@ zero_extendqisi2
 924 010a 9A42     		cmp	r2, r3
 925 010c 49D1     		bne	.L57
 337:.\Protocolo.c **** 				rventa2.producto=(Surtidor_rxBuffer[9]&0x0F)+1;
 926              		.loc 1 337 0
 927 010e 6C4B     		ldr	r3, .L108+4
 928 0110 5B7A     		ldrb	r3, [r3, #9]
 929 0112 DBB2     		uxtb	r3, r3
 930 0114 03F00F03 		and	r3, r3, #15
 931 0118 DBB2     		uxtb	r3, r3
 932 011a 0133     		adds	r3, r3, #1
 933 011c DAB2     		uxtb	r2, r3
 934 011e 6C4B     		ldr	r3, .L108+20
 935 0120 5A76     		strb	r2, [r3, #25]
 338:.\Protocolo.c **** 				for(x=0;x<=3;x++){
 936              		.loc 1 338 0
 937 0122 0023     		movs	r3, #0
ARM GAS  C:\Users\RECEPC~1\AppData\Local\Temp\cc3fClzk.s 			page 24


 938 0124 FB73     		strb	r3, [r7, #15]
 939 0126 0EE0     		b	.L58
 940              	.L59:
 339:.\Protocolo.c **** 					rventa2.ppu[x]=(Surtidor_rxBuffer[x+12]&0x0F);
 941              		.loc 1 339 0 discriminator 2
 942 0128 FB7B     		ldrb	r3, [r7, #15]	@ zero_extendqisi2
 943 012a FA7B     		ldrb	r2, [r7, #15]	@ zero_extendqisi2
 944 012c 0C32     		adds	r2, r2, #12
 945 012e 6449     		ldr	r1, .L108+4
 946 0130 8A5C     		ldrb	r2, [r1, r2]
 947 0132 D2B2     		uxtb	r2, r2
 948 0134 02F00F02 		and	r2, r2, #15
 949 0138 D2B2     		uxtb	r2, r2
 950 013a 6549     		ldr	r1, .L108+20
 951 013c 0B44     		add	r3, r3, r1
 952 013e 9A70     		strb	r2, [r3, #2]
 338:.\Protocolo.c **** 				for(x=0;x<=3;x++){
 953              		.loc 1 338 0 discriminator 2
 954 0140 FB7B     		ldrb	r3, [r7, #15]	@ zero_extendqisi2
 955 0142 0133     		adds	r3, r3, #1
 956 0144 FB73     		strb	r3, [r7, #15]
 957              	.L58:
 338:.\Protocolo.c **** 				for(x=0;x<=3;x++){
 958              		.loc 1 338 0 is_stmt 0 discriminator 1
 959 0146 FB7B     		ldrb	r3, [r7, #15]	@ zero_extendqisi2
 960 0148 032B     		cmp	r3, #3
 961 014a EDD9     		bls	.L59
 340:.\Protocolo.c **** 				}
 341:.\Protocolo.c **** 				for(x=0;x<=5;x++){
 962              		.loc 1 341 0 is_stmt 1
 963 014c 0023     		movs	r3, #0
 964 014e FB73     		strb	r3, [r7, #15]
 965 0150 0EE0     		b	.L60
 966              	.L61:
 342:.\Protocolo.c **** 					rventa2.volumen[x]=(Surtidor_rxBuffer[x+17]&0x0F);
 967              		.loc 1 342 0 discriminator 2
 968 0152 FB7B     		ldrb	r3, [r7, #15]	@ zero_extendqisi2
 969 0154 FA7B     		ldrb	r2, [r7, #15]	@ zero_extendqisi2
 970 0156 1132     		adds	r2, r2, #17
 971 0158 5949     		ldr	r1, .L108+4
 972 015a 8A5C     		ldrb	r2, [r1, r2]
 973 015c D2B2     		uxtb	r2, r2
 974 015e 02F00F02 		and	r2, r2, #15
 975 0162 D2B2     		uxtb	r2, r2
 976 0164 5A49     		ldr	r1, .L108+20
 977 0166 0B44     		add	r3, r3, r1
 978 0168 1A74     		strb	r2, [r3, #16]
 341:.\Protocolo.c **** 				for(x=0;x<=5;x++){
 979              		.loc 1 341 0 discriminator 2
 980 016a FB7B     		ldrb	r3, [r7, #15]	@ zero_extendqisi2
 981 016c 0133     		adds	r3, r3, #1
 982 016e FB73     		strb	r3, [r7, #15]
 983              	.L60:
 341:.\Protocolo.c **** 				for(x=0;x<=5;x++){
 984              		.loc 1 341 0 is_stmt 0 discriminator 1
 985 0170 FB7B     		ldrb	r3, [r7, #15]	@ zero_extendqisi2
 986 0172 052B     		cmp	r3, #5
ARM GAS  C:\Users\RECEPC~1\AppData\Local\Temp\cc3fClzk.s 			page 25


 987 0174 EDD9     		bls	.L61
 343:.\Protocolo.c **** 				}			
 344:.\Protocolo.c **** 				for(x=0;x<=5;x++){
 988              		.loc 1 344 0 is_stmt 1
 989 0176 0023     		movs	r3, #0
 990 0178 FB73     		strb	r3, [r7, #15]
 991 017a 0EE0     		b	.L62
 992              	.L63:
 345:.\Protocolo.c **** 					rventa2.dinero[x]=(Surtidor_rxBuffer[x+24]&0x0F);
 993              		.loc 1 345 0 discriminator 2
 994 017c FB7B     		ldrb	r3, [r7, #15]	@ zero_extendqisi2
 995 017e FA7B     		ldrb	r2, [r7, #15]	@ zero_extendqisi2
 996 0180 1832     		adds	r2, r2, #24
 997 0182 4F49     		ldr	r1, .L108+4
 998 0184 8A5C     		ldrb	r2, [r1, r2]
 999 0186 D2B2     		uxtb	r2, r2
 1000 0188 02F00F02 		and	r2, r2, #15
 1001 018c D2B2     		uxtb	r2, r2
 1002 018e 5049     		ldr	r1, .L108+20
 1003 0190 0B44     		add	r3, r3, r1
 1004 0192 DA71     		strb	r2, [r3, #7]
 344:.\Protocolo.c **** 				for(x=0;x<=5;x++){
 1005              		.loc 1 344 0 discriminator 2
 1006 0194 FB7B     		ldrb	r3, [r7, #15]	@ zero_extendqisi2
 1007 0196 0133     		adds	r3, r3, #1
 1008 0198 FB73     		strb	r3, [r7, #15]
 1009              	.L62:
 344:.\Protocolo.c **** 				for(x=0;x<=5;x++){
 1010              		.loc 1 344 0 is_stmt 0 discriminator 1
 1011 019a FB7B     		ldrb	r3, [r7, #15]	@ zero_extendqisi2
 1012 019c 052B     		cmp	r3, #5
 1013 019e EDD9     		bls	.L63
 1014 01a0 B2E0     		b	.L56
 1015              	.L57:
 346:.\Protocolo.c **** 				}			
 347:.\Protocolo.c **** 			}
 348:.\Protocolo.c **** 			else if(dir==lado3.dir){
 1016              		.loc 1 348 0 is_stmt 1
 1017 01a2 4C4B     		ldr	r3, .L108+24
 1018 01a4 1B78     		ldrb	r3, [r3]
 1019 01a6 DBB2     		uxtb	r3, r3
 1020 01a8 FA79     		ldrb	r2, [r7, #7]	@ zero_extendqisi2
 1021 01aa 9A42     		cmp	r2, r3
 1022 01ac 49D1     		bne	.L64
 349:.\Protocolo.c **** 				rventa3.producto=(Surtidor_rxBuffer[9]&0x0F)+1;
 1023              		.loc 1 349 0
 1024 01ae 444B     		ldr	r3, .L108+4
 1025 01b0 5B7A     		ldrb	r3, [r3, #9]
 1026 01b2 DBB2     		uxtb	r3, r3
 1027 01b4 03F00F03 		and	r3, r3, #15
 1028 01b8 DBB2     		uxtb	r3, r3
 1029 01ba 0133     		adds	r3, r3, #1
 1030 01bc DAB2     		uxtb	r2, r3
 1031 01be 464B     		ldr	r3, .L108+28
 1032 01c0 5A76     		strb	r2, [r3, #25]
 350:.\Protocolo.c **** 				for(x=0;x<=3;x++){
 1033              		.loc 1 350 0
ARM GAS  C:\Users\RECEPC~1\AppData\Local\Temp\cc3fClzk.s 			page 26


 1034 01c2 0023     		movs	r3, #0
 1035 01c4 FB73     		strb	r3, [r7, #15]
 1036 01c6 0EE0     		b	.L65
 1037              	.L66:
 351:.\Protocolo.c **** 					rventa3.ppu[x]=(Surtidor_rxBuffer[x+12]&0x0F);
 1038              		.loc 1 351 0 discriminator 2
 1039 01c8 FB7B     		ldrb	r3, [r7, #15]	@ zero_extendqisi2
 1040 01ca FA7B     		ldrb	r2, [r7, #15]	@ zero_extendqisi2
 1041 01cc 0C32     		adds	r2, r2, #12
 1042 01ce 3C49     		ldr	r1, .L108+4
 1043 01d0 8A5C     		ldrb	r2, [r1, r2]
 1044 01d2 D2B2     		uxtb	r2, r2
 1045 01d4 02F00F02 		and	r2, r2, #15
 1046 01d8 D2B2     		uxtb	r2, r2
 1047 01da 3F49     		ldr	r1, .L108+28
 1048 01dc 0B44     		add	r3, r3, r1
 1049 01de 9A70     		strb	r2, [r3, #2]
 350:.\Protocolo.c **** 				for(x=0;x<=3;x++){
 1050              		.loc 1 350 0 discriminator 2
 1051 01e0 FB7B     		ldrb	r3, [r7, #15]	@ zero_extendqisi2
 1052 01e2 0133     		adds	r3, r3, #1
 1053 01e4 FB73     		strb	r3, [r7, #15]
 1054              	.L65:
 350:.\Protocolo.c **** 				for(x=0;x<=3;x++){
 1055              		.loc 1 350 0 is_stmt 0 discriminator 1
 1056 01e6 FB7B     		ldrb	r3, [r7, #15]	@ zero_extendqisi2
 1057 01e8 032B     		cmp	r3, #3
 1058 01ea EDD9     		bls	.L66
 352:.\Protocolo.c **** 				}
 353:.\Protocolo.c **** 				for(x=0;x<=5;x++){
 1059              		.loc 1 353 0 is_stmt 1
 1060 01ec 0023     		movs	r3, #0
 1061 01ee FB73     		strb	r3, [r7, #15]
 1062 01f0 0EE0     		b	.L67
 1063              	.L68:
 354:.\Protocolo.c **** 					rventa3.volumen[x]=(Surtidor_rxBuffer[x+17]&0x0F);
 1064              		.loc 1 354 0 discriminator 2
 1065 01f2 FB7B     		ldrb	r3, [r7, #15]	@ zero_extendqisi2
 1066 01f4 FA7B     		ldrb	r2, [r7, #15]	@ zero_extendqisi2
 1067 01f6 1132     		adds	r2, r2, #17
 1068 01f8 3149     		ldr	r1, .L108+4
 1069 01fa 8A5C     		ldrb	r2, [r1, r2]
 1070 01fc D2B2     		uxtb	r2, r2
 1071 01fe 02F00F02 		and	r2, r2, #15
 1072 0202 D2B2     		uxtb	r2, r2
 1073 0204 3449     		ldr	r1, .L108+28
 1074 0206 0B44     		add	r3, r3, r1
 1075 0208 1A74     		strb	r2, [r3, #16]
 353:.\Protocolo.c **** 				for(x=0;x<=5;x++){
 1076              		.loc 1 353 0 discriminator 2
 1077 020a FB7B     		ldrb	r3, [r7, #15]	@ zero_extendqisi2
 1078 020c 0133     		adds	r3, r3, #1
 1079 020e FB73     		strb	r3, [r7, #15]
 1080              	.L67:
 353:.\Protocolo.c **** 				for(x=0;x<=5;x++){
 1081              		.loc 1 353 0 is_stmt 0 discriminator 1
 1082 0210 FB7B     		ldrb	r3, [r7, #15]	@ zero_extendqisi2
ARM GAS  C:\Users\RECEPC~1\AppData\Local\Temp\cc3fClzk.s 			page 27


 1083 0212 052B     		cmp	r3, #5
 1084 0214 EDD9     		bls	.L68
 355:.\Protocolo.c **** 				}			
 356:.\Protocolo.c **** 				for(x=0;x<=5;x++){
 1085              		.loc 1 356 0 is_stmt 1
 1086 0216 0023     		movs	r3, #0
 1087 0218 FB73     		strb	r3, [r7, #15]
 1088 021a 0EE0     		b	.L69
 1089              	.L70:
 357:.\Protocolo.c **** 					rventa3.dinero[x]=(Surtidor_rxBuffer[x+24]&0x0F);
 1090              		.loc 1 357 0 discriminator 2
 1091 021c FB7B     		ldrb	r3, [r7, #15]	@ zero_extendqisi2
 1092 021e FA7B     		ldrb	r2, [r7, #15]	@ zero_extendqisi2
 1093 0220 1832     		adds	r2, r2, #24
 1094 0222 2749     		ldr	r1, .L108+4
 1095 0224 8A5C     		ldrb	r2, [r1, r2]
 1096 0226 D2B2     		uxtb	r2, r2
 1097 0228 02F00F02 		and	r2, r2, #15
 1098 022c D2B2     		uxtb	r2, r2
 1099 022e 2A49     		ldr	r1, .L108+28
 1100 0230 0B44     		add	r3, r3, r1
 1101 0232 DA71     		strb	r2, [r3, #7]
 356:.\Protocolo.c **** 				for(x=0;x<=5;x++){
 1102              		.loc 1 356 0 discriminator 2
 1103 0234 FB7B     		ldrb	r3, [r7, #15]	@ zero_extendqisi2
 1104 0236 0133     		adds	r3, r3, #1
 1105 0238 FB73     		strb	r3, [r7, #15]
 1106              	.L69:
 356:.\Protocolo.c **** 				for(x=0;x<=5;x++){
 1107              		.loc 1 356 0 is_stmt 0 discriminator 1
 1108 023a FB7B     		ldrb	r3, [r7, #15]	@ zero_extendqisi2
 1109 023c 052B     		cmp	r3, #5
 1110 023e EDD9     		bls	.L70
 1111 0240 62E0     		b	.L56
 1112              	.L64:
 358:.\Protocolo.c **** 				}			
 359:.\Protocolo.c **** 			}
 360:.\Protocolo.c **** 			else if(dir==lado4.dir){
 1113              		.loc 1 360 0 is_stmt 1
 1114 0242 264B     		ldr	r3, .L108+32
 1115 0244 1B78     		ldrb	r3, [r3]
 1116 0246 DBB2     		uxtb	r3, r3
 1117 0248 FA79     		ldrb	r2, [r7, #7]	@ zero_extendqisi2
 1118 024a 9A42     		cmp	r2, r3
 1119 024c 5CD1     		bne	.L56
 361:.\Protocolo.c **** 				rventa4.producto=(Surtidor_rxBuffer[9]&0x0F)+1;
 1120              		.loc 1 361 0
 1121 024e 1C4B     		ldr	r3, .L108+4
 1122 0250 5B7A     		ldrb	r3, [r3, #9]
 1123 0252 DBB2     		uxtb	r3, r3
 1124 0254 03F00F03 		and	r3, r3, #15
 1125 0258 DBB2     		uxtb	r3, r3
 1126 025a 0133     		adds	r3, r3, #1
 1127 025c DAB2     		uxtb	r2, r3
 1128 025e 204B     		ldr	r3, .L108+36
 1129 0260 5A76     		strb	r2, [r3, #25]
 362:.\Protocolo.c **** 				for(x=0;x<=3;x++){
ARM GAS  C:\Users\RECEPC~1\AppData\Local\Temp\cc3fClzk.s 			page 28


 1130              		.loc 1 362 0
 1131 0262 0023     		movs	r3, #0
 1132 0264 FB73     		strb	r3, [r7, #15]
 1133 0266 0EE0     		b	.L71
 1134              	.L72:
 363:.\Protocolo.c **** 					rventa4.ppu[x]=(Surtidor_rxBuffer[x+12]&0x0F);
 1135              		.loc 1 363 0 discriminator 2
 1136 0268 FB7B     		ldrb	r3, [r7, #15]	@ zero_extendqisi2
 1137 026a FA7B     		ldrb	r2, [r7, #15]	@ zero_extendqisi2
 1138 026c 0C32     		adds	r2, r2, #12
 1139 026e 1449     		ldr	r1, .L108+4
 1140 0270 8A5C     		ldrb	r2, [r1, r2]
 1141 0272 D2B2     		uxtb	r2, r2
 1142 0274 02F00F02 		and	r2, r2, #15
 1143 0278 D2B2     		uxtb	r2, r2
 1144 027a 1949     		ldr	r1, .L108+36
 1145 027c 0B44     		add	r3, r3, r1
 1146 027e 9A70     		strb	r2, [r3, #2]
 362:.\Protocolo.c **** 				for(x=0;x<=3;x++){
 1147              		.loc 1 362 0 discriminator 2
 1148 0280 FB7B     		ldrb	r3, [r7, #15]	@ zero_extendqisi2
 1149 0282 0133     		adds	r3, r3, #1
 1150 0284 FB73     		strb	r3, [r7, #15]
 1151              	.L71:
 362:.\Protocolo.c **** 				for(x=0;x<=3;x++){
 1152              		.loc 1 362 0 is_stmt 0 discriminator 1
 1153 0286 FB7B     		ldrb	r3, [r7, #15]	@ zero_extendqisi2
 1154 0288 032B     		cmp	r3, #3
 1155 028a EDD9     		bls	.L72
 364:.\Protocolo.c **** 				}
 365:.\Protocolo.c **** 				for(x=0;x<=5;x++){
 1156              		.loc 1 365 0 is_stmt 1
 1157 028c 0023     		movs	r3, #0
 1158 028e FB73     		strb	r3, [r7, #15]
 1159 0290 0EE0     		b	.L73
 1160              	.L74:
 366:.\Protocolo.c **** 					rventa4.volumen[x]=(Surtidor_rxBuffer[x+17]&0x0F);
 1161              		.loc 1 366 0 discriminator 2
 1162 0292 FB7B     		ldrb	r3, [r7, #15]	@ zero_extendqisi2
 1163 0294 FA7B     		ldrb	r2, [r7, #15]	@ zero_extendqisi2
 1164 0296 1132     		adds	r2, r2, #17
 1165 0298 0949     		ldr	r1, .L108+4
 1166 029a 8A5C     		ldrb	r2, [r1, r2]
 1167 029c D2B2     		uxtb	r2, r2
 1168 029e 02F00F02 		and	r2, r2, #15
 1169 02a2 D2B2     		uxtb	r2, r2
 1170 02a4 0E49     		ldr	r1, .L108+36
 1171 02a6 0B44     		add	r3, r3, r1
 1172 02a8 1A74     		strb	r2, [r3, #16]
 365:.\Protocolo.c **** 				for(x=0;x<=5;x++){
 1173              		.loc 1 365 0 discriminator 2
 1174 02aa FB7B     		ldrb	r3, [r7, #15]	@ zero_extendqisi2
 1175 02ac 0133     		adds	r3, r3, #1
 1176 02ae FB73     		strb	r3, [r7, #15]
 1177              	.L73:
 365:.\Protocolo.c **** 				for(x=0;x<=5;x++){
 1178              		.loc 1 365 0 is_stmt 0 discriminator 1
ARM GAS  C:\Users\RECEPC~1\AppData\Local\Temp\cc3fClzk.s 			page 29


 1179 02b0 FB7B     		ldrb	r3, [r7, #15]	@ zero_extendqisi2
 1180 02b2 052B     		cmp	r3, #5
 1181 02b4 EDD9     		bls	.L74
 367:.\Protocolo.c **** 				}			
 368:.\Protocolo.c **** 				for(x=0;x<=5;x++){
 1182              		.loc 1 368 0 is_stmt 1
 1183 02b6 0023     		movs	r3, #0
 1184 02b8 FB73     		strb	r3, [r7, #15]
 1185 02ba 22E0     		b	.L75
 1186              	.L109:
 1187              		.align	2
 1188              	.L108:
 1189 02bc 00000000 		.word	version
 1190 02c0 00000000 		.word	Surtidor_rxBuffer
 1191 02c4 00000000 		.word	lado1
 1192 02c8 00000000 		.word	rventa1
 1193 02cc 00000000 		.word	lado2
 1194 02d0 00000000 		.word	rventa2
 1195 02d4 00000000 		.word	lado3
 1196 02d8 00000000 		.word	rventa3
 1197 02dc 00000000 		.word	lado4
 1198 02e0 00000000 		.word	rventa4
 1199              	.L76:
 369:.\Protocolo.c **** 					rventa4.dinero[x]=(Surtidor_rxBuffer[x+24]&0x0F);
 1200              		.loc 1 369 0 discriminator 2
 1201 02e4 FB7B     		ldrb	r3, [r7, #15]	@ zero_extendqisi2
 1202 02e6 FA7B     		ldrb	r2, [r7, #15]	@ zero_extendqisi2
 1203 02e8 1832     		adds	r2, r2, #24
 1204 02ea A549     		ldr	r1, .L110
 1205 02ec 8A5C     		ldrb	r2, [r1, r2]
 1206 02ee D2B2     		uxtb	r2, r2
 1207 02f0 02F00F02 		and	r2, r2, #15
 1208 02f4 D2B2     		uxtb	r2, r2
 1209 02f6 A349     		ldr	r1, .L110+4
 1210 02f8 0B44     		add	r3, r3, r1
 1211 02fa DA71     		strb	r2, [r3, #7]
 368:.\Protocolo.c **** 				for(x=0;x<=5;x++){
 1212              		.loc 1 368 0 discriminator 2
 1213 02fc FB7B     		ldrb	r3, [r7, #15]	@ zero_extendqisi2
 1214 02fe 0133     		adds	r3, r3, #1
 1215 0300 FB73     		strb	r3, [r7, #15]
 1216              	.L75:
 368:.\Protocolo.c **** 				for(x=0;x<=5;x++){
 1217              		.loc 1 368 0 is_stmt 0 discriminator 1
 1218 0302 FB7B     		ldrb	r3, [r7, #15]	@ zero_extendqisi2
 1219 0304 052B     		cmp	r3, #5
 1220 0306 EDD9     		bls	.L76
 1221              	.L56:
 370:.\Protocolo.c **** 				}			
 371:.\Protocolo.c **** 			}			
 372:.\Protocolo.c **** 			return 1;
 1222              		.loc 1 372 0 is_stmt 1
 1223 0308 0123     		movs	r3, #1
 1224 030a 79E1     		b	.L77
 1225              	.L48:
 373:.\Protocolo.c **** 		}
 374:.\Protocolo.c **** 		else{
ARM GAS  C:\Users\RECEPC~1\AppData\Local\Temp\cc3fClzk.s 			page 30


 375:.\Protocolo.c **** 			return 0;
 1226              		.loc 1 375 0
 1227 030c 0023     		movs	r3, #0
 1228 030e 77E1     		b	.L77
 1229              	.L47:
 376:.\Protocolo.c **** 		}
 377:.\Protocolo.c **** 	}
 378:.\Protocolo.c **** 	else if((version[1]==7)&&(Surtidor_GetRxBufferSize()==39)){
 1230              		.loc 1 378 0
 1231 0310 9D4B     		ldr	r3, .L110+8
 1232 0312 5B78     		ldrb	r3, [r3, #1]
 1233 0314 DBB2     		uxtb	r3, r3
 1234 0316 072B     		cmp	r3, #7
 1235 0318 40F07181 		bne	.L78
 1236              		.loc 1 378 0 is_stmt 0 discriminator 1
 1237 031c FFF7FEFF 		bl	Surtidor_GetRxBufferSize
 1238 0320 0346     		mov	r3, r0
 1239 0322 272B     		cmp	r3, #39
 1240 0324 40F06B81 		bne	.L78
 379:.\Protocolo.c **** 		if((Surtidor_rxBuffer[0]==0xFF)&&(Surtidor_rxBuffer[2]==0xF8)&&(Surtidor_rxBuffer[38]==0xF0)){
 1241              		.loc 1 379 0 is_stmt 1
 1242 0328 954B     		ldr	r3, .L110
 1243 032a 1B78     		ldrb	r3, [r3]
 1244 032c DBB2     		uxtb	r3, r3
 1245 032e FF2B     		cmp	r3, #255
 1246 0330 40F06381 		bne	.L79
 1247              		.loc 1 379 0 is_stmt 0 discriminator 1
 1248 0334 924B     		ldr	r3, .L110
 1249 0336 9B78     		ldrb	r3, [r3, #2]
 1250 0338 DBB2     		uxtb	r3, r3
 1251 033a F82B     		cmp	r3, #248
 1252 033c 40F05D81 		bne	.L79
 1253 0340 8F4B     		ldr	r3, .L110
 1254 0342 93F82630 		ldrb	r3, [r3, #38]
 1255 0346 DBB2     		uxtb	r3, r3
 1256 0348 F02B     		cmp	r3, #240
 1257 034a 40F05681 		bne	.L79
 380:.\Protocolo.c **** 			if(dir==lado1.dir){
 1258              		.loc 1 380 0 is_stmt 1
 1259 034e 8F4B     		ldr	r3, .L110+12
 1260 0350 1B78     		ldrb	r3, [r3]
 1261 0352 DBB2     		uxtb	r3, r3
 1262 0354 FA79     		ldrb	r2, [r7, #7]	@ zero_extendqisi2
 1263 0356 9A42     		cmp	r2, r3
 1264 0358 49D1     		bne	.L80
 381:.\Protocolo.c **** 				rventa1.producto=(Surtidor_rxBuffer[9]&0x0F)+1;
 1265              		.loc 1 381 0
 1266 035a 894B     		ldr	r3, .L110
 1267 035c 5B7A     		ldrb	r3, [r3, #9]
 1268 035e DBB2     		uxtb	r3, r3
 1269 0360 03F00F03 		and	r3, r3, #15
 1270 0364 DBB2     		uxtb	r3, r3
 1271 0366 0133     		adds	r3, r3, #1
 1272 0368 DAB2     		uxtb	r2, r3
 1273 036a 894B     		ldr	r3, .L110+16
 1274 036c 5A76     		strb	r2, [r3, #25]
 382:.\Protocolo.c **** 				for(x=0;x<=5;x++){
ARM GAS  C:\Users\RECEPC~1\AppData\Local\Temp\cc3fClzk.s 			page 31


 1275              		.loc 1 382 0
 1276 036e 0023     		movs	r3, #0
 1277 0370 FB73     		strb	r3, [r7, #15]
 1278 0372 0EE0     		b	.L81
 1279              	.L82:
 383:.\Protocolo.c **** 					rventa1.ppu[x]=(Surtidor_rxBuffer[x+12]&0x0F);
 1280              		.loc 1 383 0 discriminator 2
 1281 0374 FB7B     		ldrb	r3, [r7, #15]	@ zero_extendqisi2
 1282 0376 FA7B     		ldrb	r2, [r7, #15]	@ zero_extendqisi2
 1283 0378 0C32     		adds	r2, r2, #12
 1284 037a 8149     		ldr	r1, .L110
 1285 037c 8A5C     		ldrb	r2, [r1, r2]
 1286 037e D2B2     		uxtb	r2, r2
 1287 0380 02F00F02 		and	r2, r2, #15
 1288 0384 D2B2     		uxtb	r2, r2
 1289 0386 8249     		ldr	r1, .L110+16
 1290 0388 0B44     		add	r3, r3, r1
 1291 038a 9A70     		strb	r2, [r3, #2]
 382:.\Protocolo.c **** 				for(x=0;x<=5;x++){
 1292              		.loc 1 382 0 discriminator 2
 1293 038c FB7B     		ldrb	r3, [r7, #15]	@ zero_extendqisi2
 1294 038e 0133     		adds	r3, r3, #1
 1295 0390 FB73     		strb	r3, [r7, #15]
 1296              	.L81:
 382:.\Protocolo.c **** 				for(x=0;x<=5;x++){
 1297              		.loc 1 382 0 is_stmt 0 discriminator 1
 1298 0392 FB7B     		ldrb	r3, [r7, #15]	@ zero_extendqisi2
 1299 0394 052B     		cmp	r3, #5
 1300 0396 EDD9     		bls	.L82
 384:.\Protocolo.c **** 				}
 385:.\Protocolo.c **** 				for(x=0;x<=7;x++){
 1301              		.loc 1 385 0 is_stmt 1
 1302 0398 0023     		movs	r3, #0
 1303 039a FB73     		strb	r3, [r7, #15]
 1304 039c 0EE0     		b	.L83
 1305              	.L84:
 386:.\Protocolo.c **** 					rventa1.volumen[x]=(Surtidor_rxBuffer[x+19]&0x0F);
 1306              		.loc 1 386 0 discriminator 2
 1307 039e FB7B     		ldrb	r3, [r7, #15]	@ zero_extendqisi2
 1308 03a0 FA7B     		ldrb	r2, [r7, #15]	@ zero_extendqisi2
 1309 03a2 1332     		adds	r2, r2, #19
 1310 03a4 7649     		ldr	r1, .L110
 1311 03a6 8A5C     		ldrb	r2, [r1, r2]
 1312 03a8 D2B2     		uxtb	r2, r2
 1313 03aa 02F00F02 		and	r2, r2, #15
 1314 03ae D2B2     		uxtb	r2, r2
 1315 03b0 7749     		ldr	r1, .L110+16
 1316 03b2 0B44     		add	r3, r3, r1
 1317 03b4 1A74     		strb	r2, [r3, #16]
 385:.\Protocolo.c **** 				for(x=0;x<=7;x++){
 1318              		.loc 1 385 0 discriminator 2
 1319 03b6 FB7B     		ldrb	r3, [r7, #15]	@ zero_extendqisi2
 1320 03b8 0133     		adds	r3, r3, #1
 1321 03ba FB73     		strb	r3, [r7, #15]
 1322              	.L83:
 385:.\Protocolo.c **** 				for(x=0;x<=7;x++){
 1323              		.loc 1 385 0 is_stmt 0 discriminator 1
ARM GAS  C:\Users\RECEPC~1\AppData\Local\Temp\cc3fClzk.s 			page 32


 1324 03bc FB7B     		ldrb	r3, [r7, #15]	@ zero_extendqisi2
 1325 03be 072B     		cmp	r3, #7
 1326 03c0 EDD9     		bls	.L84
 387:.\Protocolo.c **** 				}			
 388:.\Protocolo.c **** 				for(x=0;x<=7;x++){
 1327              		.loc 1 388 0 is_stmt 1
 1328 03c2 0023     		movs	r3, #0
 1329 03c4 FB73     		strb	r3, [r7, #15]
 1330 03c6 0EE0     		b	.L85
 1331              	.L86:
 389:.\Protocolo.c **** 					rventa1.dinero[x]=(Surtidor_rxBuffer[x+28]&0x0F);
 1332              		.loc 1 389 0 discriminator 2
 1333 03c8 FB7B     		ldrb	r3, [r7, #15]	@ zero_extendqisi2
 1334 03ca FA7B     		ldrb	r2, [r7, #15]	@ zero_extendqisi2
 1335 03cc 1C32     		adds	r2, r2, #28
 1336 03ce 6C49     		ldr	r1, .L110
 1337 03d0 8A5C     		ldrb	r2, [r1, r2]
 1338 03d2 D2B2     		uxtb	r2, r2
 1339 03d4 02F00F02 		and	r2, r2, #15
 1340 03d8 D2B2     		uxtb	r2, r2
 1341 03da 6D49     		ldr	r1, .L110+16
 1342 03dc 0B44     		add	r3, r3, r1
 1343 03de DA71     		strb	r2, [r3, #7]
 388:.\Protocolo.c **** 				for(x=0;x<=7;x++){
 1344              		.loc 1 388 0 discriminator 2
 1345 03e0 FB7B     		ldrb	r3, [r7, #15]	@ zero_extendqisi2
 1346 03e2 0133     		adds	r3, r3, #1
 1347 03e4 FB73     		strb	r3, [r7, #15]
 1348              	.L85:
 388:.\Protocolo.c **** 				for(x=0;x<=7;x++){
 1349              		.loc 1 388 0 is_stmt 0 discriminator 1
 1350 03e6 FB7B     		ldrb	r3, [r7, #15]	@ zero_extendqisi2
 1351 03e8 072B     		cmp	r3, #7
 1352 03ea EDD9     		bls	.L86
 1353 03ec 03E1     		b	.L87
 1354              	.L80:
 390:.\Protocolo.c **** 				}
 391:.\Protocolo.c **** 			}
 392:.\Protocolo.c **** 			else if(dir==lado2.dir){
 1355              		.loc 1 392 0 is_stmt 1
 1356 03ee 694B     		ldr	r3, .L110+20
 1357 03f0 1B78     		ldrb	r3, [r3]
 1358 03f2 DBB2     		uxtb	r3, r3
 1359 03f4 FA79     		ldrb	r2, [r7, #7]	@ zero_extendqisi2
 1360 03f6 9A42     		cmp	r2, r3
 1361 03f8 49D1     		bne	.L88
 393:.\Protocolo.c **** 				rventa2.producto=(Surtidor_rxBuffer[9]&0x0F)+1;
 1362              		.loc 1 393 0
 1363 03fa 614B     		ldr	r3, .L110
 1364 03fc 5B7A     		ldrb	r3, [r3, #9]
 1365 03fe DBB2     		uxtb	r3, r3
 1366 0400 03F00F03 		and	r3, r3, #15
 1367 0404 DBB2     		uxtb	r3, r3
 1368 0406 0133     		adds	r3, r3, #1
 1369 0408 DAB2     		uxtb	r2, r3
 1370 040a 634B     		ldr	r3, .L110+24
 1371 040c 5A76     		strb	r2, [r3, #25]
ARM GAS  C:\Users\RECEPC~1\AppData\Local\Temp\cc3fClzk.s 			page 33


 394:.\Protocolo.c **** 				for(x=0;x<=5;x++){
 1372              		.loc 1 394 0
 1373 040e 0023     		movs	r3, #0
 1374 0410 FB73     		strb	r3, [r7, #15]
 1375 0412 0EE0     		b	.L89
 1376              	.L90:
 395:.\Protocolo.c **** 					rventa2.ppu[x]=(Surtidor_rxBuffer[x+12]&0x0F);
 1377              		.loc 1 395 0 discriminator 2
 1378 0414 FB7B     		ldrb	r3, [r7, #15]	@ zero_extendqisi2
 1379 0416 FA7B     		ldrb	r2, [r7, #15]	@ zero_extendqisi2
 1380 0418 0C32     		adds	r2, r2, #12
 1381 041a 5949     		ldr	r1, .L110
 1382 041c 8A5C     		ldrb	r2, [r1, r2]
 1383 041e D2B2     		uxtb	r2, r2
 1384 0420 02F00F02 		and	r2, r2, #15
 1385 0424 D2B2     		uxtb	r2, r2
 1386 0426 5C49     		ldr	r1, .L110+24
 1387 0428 0B44     		add	r3, r3, r1
 1388 042a 9A70     		strb	r2, [r3, #2]
 394:.\Protocolo.c **** 				for(x=0;x<=5;x++){
 1389              		.loc 1 394 0 discriminator 2
 1390 042c FB7B     		ldrb	r3, [r7, #15]	@ zero_extendqisi2
 1391 042e 0133     		adds	r3, r3, #1
 1392 0430 FB73     		strb	r3, [r7, #15]
 1393              	.L89:
 394:.\Protocolo.c **** 				for(x=0;x<=5;x++){
 1394              		.loc 1 394 0 is_stmt 0 discriminator 1
 1395 0432 FB7B     		ldrb	r3, [r7, #15]	@ zero_extendqisi2
 1396 0434 052B     		cmp	r3, #5
 1397 0436 EDD9     		bls	.L90
 396:.\Protocolo.c **** 				}
 397:.\Protocolo.c **** 				for(x=0;x<=7;x++){
 1398              		.loc 1 397 0 is_stmt 1
 1399 0438 0023     		movs	r3, #0
 1400 043a FB73     		strb	r3, [r7, #15]
 1401 043c 0EE0     		b	.L91
 1402              	.L92:
 398:.\Protocolo.c **** 					rventa2.volumen[x]=(Surtidor_rxBuffer[x+19]&0x0F);
 1403              		.loc 1 398 0 discriminator 2
 1404 043e FB7B     		ldrb	r3, [r7, #15]	@ zero_extendqisi2
 1405 0440 FA7B     		ldrb	r2, [r7, #15]	@ zero_extendqisi2
 1406 0442 1332     		adds	r2, r2, #19
 1407 0444 4E49     		ldr	r1, .L110
 1408 0446 8A5C     		ldrb	r2, [r1, r2]
 1409 0448 D2B2     		uxtb	r2, r2
 1410 044a 02F00F02 		and	r2, r2, #15
 1411 044e D2B2     		uxtb	r2, r2
 1412 0450 5149     		ldr	r1, .L110+24
 1413 0452 0B44     		add	r3, r3, r1
 1414 0454 1A74     		strb	r2, [r3, #16]
 397:.\Protocolo.c **** 				for(x=0;x<=7;x++){
 1415              		.loc 1 397 0 discriminator 2
 1416 0456 FB7B     		ldrb	r3, [r7, #15]	@ zero_extendqisi2
 1417 0458 0133     		adds	r3, r3, #1
 1418 045a FB73     		strb	r3, [r7, #15]
 1419              	.L91:
 397:.\Protocolo.c **** 				for(x=0;x<=7;x++){
ARM GAS  C:\Users\RECEPC~1\AppData\Local\Temp\cc3fClzk.s 			page 34


 1420              		.loc 1 397 0 is_stmt 0 discriminator 1
 1421 045c FB7B     		ldrb	r3, [r7, #15]	@ zero_extendqisi2
 1422 045e 072B     		cmp	r3, #7
 1423 0460 EDD9     		bls	.L92
 399:.\Protocolo.c **** 				}			
 400:.\Protocolo.c **** 				for(x=0;x<=7;x++){
 1424              		.loc 1 400 0 is_stmt 1
 1425 0462 0023     		movs	r3, #0
 1426 0464 FB73     		strb	r3, [r7, #15]
 1427 0466 0EE0     		b	.L93
 1428              	.L94:
 401:.\Protocolo.c **** 					rventa2.dinero[x]=(Surtidor_rxBuffer[x+28]&0x0F);
 1429              		.loc 1 401 0 discriminator 2
 1430 0468 FB7B     		ldrb	r3, [r7, #15]	@ zero_extendqisi2
 1431 046a FA7B     		ldrb	r2, [r7, #15]	@ zero_extendqisi2
 1432 046c 1C32     		adds	r2, r2, #28
 1433 046e 4449     		ldr	r1, .L110
 1434 0470 8A5C     		ldrb	r2, [r1, r2]
 1435 0472 D2B2     		uxtb	r2, r2
 1436 0474 02F00F02 		and	r2, r2, #15
 1437 0478 D2B2     		uxtb	r2, r2
 1438 047a 4749     		ldr	r1, .L110+24
 1439 047c 0B44     		add	r3, r3, r1
 1440 047e DA71     		strb	r2, [r3, #7]
 400:.\Protocolo.c **** 				for(x=0;x<=7;x++){
 1441              		.loc 1 400 0 discriminator 2
 1442 0480 FB7B     		ldrb	r3, [r7, #15]	@ zero_extendqisi2
 1443 0482 0133     		adds	r3, r3, #1
 1444 0484 FB73     		strb	r3, [r7, #15]
 1445              	.L93:
 400:.\Protocolo.c **** 				for(x=0;x<=7;x++){
 1446              		.loc 1 400 0 is_stmt 0 discriminator 1
 1447 0486 FB7B     		ldrb	r3, [r7, #15]	@ zero_extendqisi2
 1448 0488 072B     		cmp	r3, #7
 1449 048a EDD9     		bls	.L94
 1450 048c B3E0     		b	.L87
 1451              	.L88:
 402:.\Protocolo.c **** 				}			
 403:.\Protocolo.c **** 			}
 404:.\Protocolo.c **** 			else if(dir==lado3.dir){
 1452              		.loc 1 404 0 is_stmt 1
 1453 048e 434B     		ldr	r3, .L110+28
 1454 0490 1B78     		ldrb	r3, [r3]
 1455 0492 DBB2     		uxtb	r3, r3
 1456 0494 FA79     		ldrb	r2, [r7, #7]	@ zero_extendqisi2
 1457 0496 9A42     		cmp	r2, r3
 1458 0498 49D1     		bne	.L95
 405:.\Protocolo.c **** 				rventa3.producto=(Surtidor_rxBuffer[9]&0x0F)+1;
 1459              		.loc 1 405 0
 1460 049a 394B     		ldr	r3, .L110
 1461 049c 5B7A     		ldrb	r3, [r3, #9]
 1462 049e DBB2     		uxtb	r3, r3
 1463 04a0 03F00F03 		and	r3, r3, #15
 1464 04a4 DBB2     		uxtb	r3, r3
 1465 04a6 0133     		adds	r3, r3, #1
 1466 04a8 DAB2     		uxtb	r2, r3
 1467 04aa 3D4B     		ldr	r3, .L110+32
ARM GAS  C:\Users\RECEPC~1\AppData\Local\Temp\cc3fClzk.s 			page 35


 1468 04ac 5A76     		strb	r2, [r3, #25]
 406:.\Protocolo.c **** 				for(x=0;x<=5;x++){
 1469              		.loc 1 406 0
 1470 04ae 0023     		movs	r3, #0
 1471 04b0 FB73     		strb	r3, [r7, #15]
 1472 04b2 0EE0     		b	.L96
 1473              	.L97:
 407:.\Protocolo.c **** 					rventa3.ppu[x]=(Surtidor_rxBuffer[x+12]&0x0F);
 1474              		.loc 1 407 0 discriminator 2
 1475 04b4 FB7B     		ldrb	r3, [r7, #15]	@ zero_extendqisi2
 1476 04b6 FA7B     		ldrb	r2, [r7, #15]	@ zero_extendqisi2
 1477 04b8 0C32     		adds	r2, r2, #12
 1478 04ba 3149     		ldr	r1, .L110
 1479 04bc 8A5C     		ldrb	r2, [r1, r2]
 1480 04be D2B2     		uxtb	r2, r2
 1481 04c0 02F00F02 		and	r2, r2, #15
 1482 04c4 D2B2     		uxtb	r2, r2
 1483 04c6 3649     		ldr	r1, .L110+32
 1484 04c8 0B44     		add	r3, r3, r1
 1485 04ca 9A70     		strb	r2, [r3, #2]
 406:.\Protocolo.c **** 				for(x=0;x<=5;x++){
 1486              		.loc 1 406 0 discriminator 2
 1487 04cc FB7B     		ldrb	r3, [r7, #15]	@ zero_extendqisi2
 1488 04ce 0133     		adds	r3, r3, #1
 1489 04d0 FB73     		strb	r3, [r7, #15]
 1490              	.L96:
 406:.\Protocolo.c **** 				for(x=0;x<=5;x++){
 1491              		.loc 1 406 0 is_stmt 0 discriminator 1
 1492 04d2 FB7B     		ldrb	r3, [r7, #15]	@ zero_extendqisi2
 1493 04d4 052B     		cmp	r3, #5
 1494 04d6 EDD9     		bls	.L97
 408:.\Protocolo.c **** 				}
 409:.\Protocolo.c **** 				for(x=0;x<=7;x++){
 1495              		.loc 1 409 0 is_stmt 1
 1496 04d8 0023     		movs	r3, #0
 1497 04da FB73     		strb	r3, [r7, #15]
 1498 04dc 0EE0     		b	.L98
 1499              	.L99:
 410:.\Protocolo.c **** 					rventa3.volumen[x]=(Surtidor_rxBuffer[x+19]&0x0F);
 1500              		.loc 1 410 0 discriminator 2
 1501 04de FB7B     		ldrb	r3, [r7, #15]	@ zero_extendqisi2
 1502 04e0 FA7B     		ldrb	r2, [r7, #15]	@ zero_extendqisi2
 1503 04e2 1332     		adds	r2, r2, #19
 1504 04e4 2649     		ldr	r1, .L110
 1505 04e6 8A5C     		ldrb	r2, [r1, r2]
 1506 04e8 D2B2     		uxtb	r2, r2
 1507 04ea 02F00F02 		and	r2, r2, #15
 1508 04ee D2B2     		uxtb	r2, r2
 1509 04f0 2B49     		ldr	r1, .L110+32
 1510 04f2 0B44     		add	r3, r3, r1
 1511 04f4 1A74     		strb	r2, [r3, #16]
 409:.\Protocolo.c **** 				for(x=0;x<=7;x++){
 1512              		.loc 1 409 0 discriminator 2
 1513 04f6 FB7B     		ldrb	r3, [r7, #15]	@ zero_extendqisi2
 1514 04f8 0133     		adds	r3, r3, #1
 1515 04fa FB73     		strb	r3, [r7, #15]
 1516              	.L98:
ARM GAS  C:\Users\RECEPC~1\AppData\Local\Temp\cc3fClzk.s 			page 36


 409:.\Protocolo.c **** 				for(x=0;x<=7;x++){
 1517              		.loc 1 409 0 is_stmt 0 discriminator 1
 1518 04fc FB7B     		ldrb	r3, [r7, #15]	@ zero_extendqisi2
 1519 04fe 072B     		cmp	r3, #7
 1520 0500 EDD9     		bls	.L99
 411:.\Protocolo.c **** 				}			
 412:.\Protocolo.c **** 				for(x=0;x<=7;x++){
 1521              		.loc 1 412 0 is_stmt 1
 1522 0502 0023     		movs	r3, #0
 1523 0504 FB73     		strb	r3, [r7, #15]
 1524 0506 0EE0     		b	.L100
 1525              	.L101:
 413:.\Protocolo.c **** 					rventa3.dinero[x]=(Surtidor_rxBuffer[x+28]&0x0F);
 1526              		.loc 1 413 0 discriminator 2
 1527 0508 FB7B     		ldrb	r3, [r7, #15]	@ zero_extendqisi2
 1528 050a FA7B     		ldrb	r2, [r7, #15]	@ zero_extendqisi2
 1529 050c 1C32     		adds	r2, r2, #28
 1530 050e 1C49     		ldr	r1, .L110
 1531 0510 8A5C     		ldrb	r2, [r1, r2]
 1532 0512 D2B2     		uxtb	r2, r2
 1533 0514 02F00F02 		and	r2, r2, #15
 1534 0518 D2B2     		uxtb	r2, r2
 1535 051a 2149     		ldr	r1, .L110+32
 1536 051c 0B44     		add	r3, r3, r1
 1537 051e DA71     		strb	r2, [r3, #7]
 412:.\Protocolo.c **** 				for(x=0;x<=7;x++){
 1538              		.loc 1 412 0 discriminator 2
 1539 0520 FB7B     		ldrb	r3, [r7, #15]	@ zero_extendqisi2
 1540 0522 0133     		adds	r3, r3, #1
 1541 0524 FB73     		strb	r3, [r7, #15]
 1542              	.L100:
 412:.\Protocolo.c **** 				for(x=0;x<=7;x++){
 1543              		.loc 1 412 0 is_stmt 0 discriminator 1
 1544 0526 FB7B     		ldrb	r3, [r7, #15]	@ zero_extendqisi2
 1545 0528 072B     		cmp	r3, #7
 1546 052a EDD9     		bls	.L101
 1547 052c 63E0     		b	.L87
 1548              	.L95:
 414:.\Protocolo.c **** 				}			
 415:.\Protocolo.c **** 			}
 416:.\Protocolo.c **** 			else if(dir==lado4.dir){
 1549              		.loc 1 416 0 is_stmt 1
 1550 052e 1D4B     		ldr	r3, .L110+36
 1551 0530 1B78     		ldrb	r3, [r3]
 1552 0532 DBB2     		uxtb	r3, r3
 1553 0534 FA79     		ldrb	r2, [r7, #7]	@ zero_extendqisi2
 1554 0536 9A42     		cmp	r2, r3
 1555 0538 5DD1     		bne	.L87
 417:.\Protocolo.c **** 				rventa4.producto=(Surtidor_rxBuffer[9]&0x0F)+1;
 1556              		.loc 1 417 0
 1557 053a 114B     		ldr	r3, .L110
 1558 053c 5B7A     		ldrb	r3, [r3, #9]
 1559 053e DBB2     		uxtb	r3, r3
 1560 0540 03F00F03 		and	r3, r3, #15
 1561 0544 DBB2     		uxtb	r3, r3
 1562 0546 0133     		adds	r3, r3, #1
 1563 0548 DAB2     		uxtb	r2, r3
ARM GAS  C:\Users\RECEPC~1\AppData\Local\Temp\cc3fClzk.s 			page 37


 1564 054a 0E4B     		ldr	r3, .L110+4
 1565 054c 5A76     		strb	r2, [r3, #25]
 418:.\Protocolo.c **** 				for(x=0;x<=5;x++){
 1566              		.loc 1 418 0
 1567 054e 0023     		movs	r3, #0
 1568 0550 FB73     		strb	r3, [r7, #15]
 1569 0552 0EE0     		b	.L102
 1570              	.L103:
 419:.\Protocolo.c **** 					rventa4.ppu[x]=(Surtidor_rxBuffer[x+12]&0x0F);
 1571              		.loc 1 419 0 discriminator 2
 1572 0554 FB7B     		ldrb	r3, [r7, #15]	@ zero_extendqisi2
 1573 0556 FA7B     		ldrb	r2, [r7, #15]	@ zero_extendqisi2
 1574 0558 0C32     		adds	r2, r2, #12
 1575 055a 0949     		ldr	r1, .L110
 1576 055c 8A5C     		ldrb	r2, [r1, r2]
 1577 055e D2B2     		uxtb	r2, r2
 1578 0560 02F00F02 		and	r2, r2, #15
 1579 0564 D2B2     		uxtb	r2, r2
 1580 0566 0749     		ldr	r1, .L110+4
 1581 0568 0B44     		add	r3, r3, r1
 1582 056a 9A70     		strb	r2, [r3, #2]
 418:.\Protocolo.c **** 				for(x=0;x<=5;x++){
 1583              		.loc 1 418 0 discriminator 2
 1584 056c FB7B     		ldrb	r3, [r7, #15]	@ zero_extendqisi2
 1585 056e 0133     		adds	r3, r3, #1
 1586 0570 FB73     		strb	r3, [r7, #15]
 1587              	.L102:
 418:.\Protocolo.c **** 				for(x=0;x<=5;x++){
 1588              		.loc 1 418 0 is_stmt 0 discriminator 1
 1589 0572 FB7B     		ldrb	r3, [r7, #15]	@ zero_extendqisi2
 1590 0574 052B     		cmp	r3, #5
 1591 0576 EDD9     		bls	.L103
 420:.\Protocolo.c **** 				}
 421:.\Protocolo.c **** 				for(x=0;x<=7;x++){
 1592              		.loc 1 421 0 is_stmt 1
 1593 0578 0023     		movs	r3, #0
 1594 057a FB73     		strb	r3, [r7, #15]
 1595 057c 23E0     		b	.L104
 1596              	.L111:
 1597 057e 00BF     		.align	2
 1598              	.L110:
 1599 0580 00000000 		.word	Surtidor_rxBuffer
 1600 0584 00000000 		.word	rventa4
 1601 0588 00000000 		.word	version
 1602 058c 00000000 		.word	lado1
 1603 0590 00000000 		.word	rventa1
 1604 0594 00000000 		.word	lado2
 1605 0598 00000000 		.word	rventa2
 1606 059c 00000000 		.word	lado3
 1607 05a0 00000000 		.word	rventa3
 1608 05a4 00000000 		.word	lado4
 1609              	.L105:
 422:.\Protocolo.c **** 					rventa4.volumen[x]=(Surtidor_rxBuffer[x+19]&0x0F);
 1610              		.loc 1 422 0 discriminator 2
 1611 05a8 FB7B     		ldrb	r3, [r7, #15]	@ zero_extendqisi2
 1612 05aa FA7B     		ldrb	r2, [r7, #15]	@ zero_extendqisi2
 1613 05ac 1332     		adds	r2, r2, #19
ARM GAS  C:\Users\RECEPC~1\AppData\Local\Temp\cc3fClzk.s 			page 38


 1614 05ae 1649     		ldr	r1, .L112
 1615 05b0 8A5C     		ldrb	r2, [r1, r2]
 1616 05b2 D2B2     		uxtb	r2, r2
 1617 05b4 02F00F02 		and	r2, r2, #15
 1618 05b8 D2B2     		uxtb	r2, r2
 1619 05ba 1449     		ldr	r1, .L112+4
 1620 05bc 0B44     		add	r3, r3, r1
 1621 05be 1A74     		strb	r2, [r3, #16]
 421:.\Protocolo.c **** 				for(x=0;x<=7;x++){
 1622              		.loc 1 421 0 discriminator 2
 1623 05c0 FB7B     		ldrb	r3, [r7, #15]	@ zero_extendqisi2
 1624 05c2 0133     		adds	r3, r3, #1
 1625 05c4 FB73     		strb	r3, [r7, #15]
 1626              	.L104:
 421:.\Protocolo.c **** 				for(x=0;x<=7;x++){
 1627              		.loc 1 421 0 is_stmt 0 discriminator 1
 1628 05c6 FB7B     		ldrb	r3, [r7, #15]	@ zero_extendqisi2
 1629 05c8 072B     		cmp	r3, #7
 1630 05ca EDD9     		bls	.L105
 423:.\Protocolo.c **** 				}			
 424:.\Protocolo.c **** 				for(x=0;x<=7;x++){
 1631              		.loc 1 424 0 is_stmt 1
 1632 05cc 0023     		movs	r3, #0
 1633 05ce FB73     		strb	r3, [r7, #15]
 1634 05d0 0EE0     		b	.L106
 1635              	.L107:
 425:.\Protocolo.c **** 					rventa4.dinero[x]=(Surtidor_rxBuffer[x+28]&0x0F);
 1636              		.loc 1 425 0 discriminator 2
 1637 05d2 FB7B     		ldrb	r3, [r7, #15]	@ zero_extendqisi2
 1638 05d4 FA7B     		ldrb	r2, [r7, #15]	@ zero_extendqisi2
 1639 05d6 1C32     		adds	r2, r2, #28
 1640 05d8 0B49     		ldr	r1, .L112
 1641 05da 8A5C     		ldrb	r2, [r1, r2]
 1642 05dc D2B2     		uxtb	r2, r2
 1643 05de 02F00F02 		and	r2, r2, #15
 1644 05e2 D2B2     		uxtb	r2, r2
 1645 05e4 0949     		ldr	r1, .L112+4
 1646 05e6 0B44     		add	r3, r3, r1
 1647 05e8 DA71     		strb	r2, [r3, #7]
 424:.\Protocolo.c **** 				for(x=0;x<=7;x++){
 1648              		.loc 1 424 0 discriminator 2
 1649 05ea FB7B     		ldrb	r3, [r7, #15]	@ zero_extendqisi2
 1650 05ec 0133     		adds	r3, r3, #1
 1651 05ee FB73     		strb	r3, [r7, #15]
 1652              	.L106:
 424:.\Protocolo.c **** 				for(x=0;x<=7;x++){
 1653              		.loc 1 424 0 is_stmt 0 discriminator 1
 1654 05f0 FB7B     		ldrb	r3, [r7, #15]	@ zero_extendqisi2
 1655 05f2 072B     		cmp	r3, #7
 1656 05f4 EDD9     		bls	.L107
 1657              	.L87:
 426:.\Protocolo.c **** 				}			
 427:.\Protocolo.c **** 			}			
 428:.\Protocolo.c **** 			return 1;
 1658              		.loc 1 428 0 is_stmt 1
 1659 05f6 0123     		movs	r3, #1
 1660 05f8 02E0     		b	.L77
ARM GAS  C:\Users\RECEPC~1\AppData\Local\Temp\cc3fClzk.s 			page 39


 1661              	.L79:
 429:.\Protocolo.c **** 		}
 430:.\Protocolo.c **** 		else{
 431:.\Protocolo.c **** 			return 0;
 1662              		.loc 1 431 0
 1663 05fa 0023     		movs	r3, #0
 1664 05fc 00E0     		b	.L77
 1665              	.L78:
 432:.\Protocolo.c **** 		}
 433:.\Protocolo.c **** 	}
 434:.\Protocolo.c **** 	return 0;
 1666              		.loc 1 434 0
 1667 05fe 0023     		movs	r3, #0
 1668              	.L77:
 435:.\Protocolo.c **** }
 1669              		.loc 1 435 0
 1670 0600 1846     		mov	r0, r3
 1671 0602 1037     		adds	r7, r7, #16
 1672 0604 BD46     		mov	sp, r7
 1673              		@ sp needed
 1674 0606 80BD     		pop	{r7, pc}
 1675              	.L113:
 1676              		.align	2
 1677              	.L112:
 1678 0608 00000000 		.word	Surtidor_rxBuffer
 1679 060c 00000000 		.word	rventa4
 1680              		.cfi_endproc
 1681              	.LFE69:
 1682              		.size	venta, .-venta
 1683              		.section	.text.programar,"ax",%progbits
 1684              		.align	2
 1685              		.global	programar
 1686              		.thumb
 1687              		.thumb_func
 1688              		.type	programar, %function
 1689              	programar:
 1690              	.LFB70:
 436:.\Protocolo.c **** 
 437:.\Protocolo.c **** /*
 438:.\Protocolo.c **** ***************************************************************************************************
 439:.\Protocolo.c **** *                                         uint8 programar(uint8 dir)
 440:.\Protocolo.c **** *
 441:.\Protocolo.c **** * Description : 
 442:.\Protocolo.c **** *               
 443:.\Protocolo.c **** *
 444:.\Protocolo.c **** * Argument(s) : none
 445:.\Protocolo.c **** *
 446:.\Protocolo.c **** * Return(s)   : none
 447:.\Protocolo.c **** *
 448:.\Protocolo.c **** * Caller(s)   : 
 449:.\Protocolo.c **** *
 450:.\Protocolo.c **** * Note(s)     : none.
 451:.\Protocolo.c **** ***************************************************************************************************
 452:.\Protocolo.c **** */
 453:.\Protocolo.c **** uint8 programar(uint8 dir, uint8 grado, uint8 *valor, uint8 preset){
 1691              		.loc 1 453 0
 1692              		.cfi_startproc
ARM GAS  C:\Users\RECEPC~1\AppData\Local\Temp\cc3fClzk.s 			page 40


 1693              		@ args = 0, pretend = 0, frame = 32
 1694              		@ frame_needed = 1, uses_anonymous_args = 0
 1695 0000 80B5     		push	{r7, lr}
 1696              		.cfi_def_cfa_offset 8
 1697              		.cfi_offset 7, -8
 1698              		.cfi_offset 14, -4
 1699 0002 88B0     		sub	sp, sp, #32
 1700              		.cfi_def_cfa_offset 40
 1701 0004 00AF     		add	r7, sp, #0
 1702              		.cfi_def_cfa_register 7
 1703 0006 3A60     		str	r2, [r7]
 1704 0008 0246     		mov	r2, r0
 1705 000a FA71     		strb	r2, [r7, #7]
 1706 000c 0A46     		mov	r2, r1
 1707 000e BA71     		strb	r2, [r7, #6]
 1708 0010 7B71     		strb	r3, [r7, #5]
 454:.\Protocolo.c **** 	uint8 buffer[18]={0,0,0,0,0,0,0,0,0,0,0,0,0,0,0,0,0,0},size,temp,i,decimal;
 1709              		.loc 1 454 0
 1710 0012 07F10803 		add	r3, r7, #8
 1711 0016 0022     		movs	r2, #0
 1712 0018 1A60     		str	r2, [r3]
 1713 001a 0433     		adds	r3, r3, #4
 1714 001c 0022     		movs	r2, #0
 1715 001e 1A60     		str	r2, [r3]
 1716 0020 0433     		adds	r3, r3, #4
 1717 0022 0022     		movs	r2, #0
 1718 0024 1A60     		str	r2, [r3]
 1719 0026 0433     		adds	r3, r3, #4
 1720 0028 0022     		movs	r2, #0
 1721 002a 1A60     		str	r2, [r3]
 1722 002c 0433     		adds	r3, r3, #4
 1723 002e 0022     		movs	r2, #0
 1724 0030 1A80     		strh	r2, [r3]	@ movhi
 1725 0032 0233     		adds	r3, r3, #2
 455:.\Protocolo.c **** 	temp=4;
 1726              		.loc 1 455 0
 1727 0034 0423     		movs	r3, #4
 1728 0036 BB77     		strb	r3, [r7, #30]
 456:.\Protocolo.c **** 	if(preset==3){
 1729              		.loc 1 456 0
 1730 0038 7B79     		ldrb	r3, [r7, #5]	@ zero_extendqisi2
 1731 003a 032B     		cmp	r3, #3
 1732 003c 01D1     		bne	.L115
 457:.\Protocolo.c **** 		preset=2;
 1733              		.loc 1 457 0
 1734 003e 0223     		movs	r3, #2
 1735 0040 7B71     		strb	r3, [r7, #5]
 1736              	.L115:
 458:.\Protocolo.c **** 	}
 459:.\Protocolo.c **** 	if(((version[1]==5)||(version[1]==6))&&(preset==1)){
 1737              		.loc 1 459 0
 1738 0042 B34B     		ldr	r3, .L158
 1739 0044 5B78     		ldrb	r3, [r3, #1]
 1740 0046 DBB2     		uxtb	r3, r3
 1741 0048 052B     		cmp	r3, #5
 1742 004a 04D0     		beq	.L116
 1743              		.loc 1 459 0 is_stmt 0 discriminator 2
ARM GAS  C:\Users\RECEPC~1\AppData\Local\Temp\cc3fClzk.s 			page 41


 1744 004c B04B     		ldr	r3, .L158
 1745 004e 5B78     		ldrb	r3, [r3, #1]
 1746 0050 DBB2     		uxtb	r3, r3
 1747 0052 062B     		cmp	r3, #6
 1748 0054 04D1     		bne	.L117
 1749              	.L116:
 1750              		.loc 1 459 0 discriminator 1
 1751 0056 7B79     		ldrb	r3, [r7, #5]	@ zero_extendqisi2
 1752 0058 012B     		cmp	r3, #1
 1753 005a 01D1     		bne	.L117
 460:.\Protocolo.c **** 		temp=3;
 1754              		.loc 1 460 0 is_stmt 1
 1755 005c 0323     		movs	r3, #3
 1756 005e BB77     		strb	r3, [r7, #30]
 1757              	.L117:
 461:.\Protocolo.c **** 	}
 462:.\Protocolo.c **** 	if((version[1]==5)&&(preset==2)){
 1758              		.loc 1 462 0
 1759 0060 AB4B     		ldr	r3, .L158
 1760 0062 5B78     		ldrb	r3, [r3, #1]
 1761 0064 DBB2     		uxtb	r3, r3
 1762 0066 052B     		cmp	r3, #5
 1763 0068 04D1     		bne	.L118
 1764              		.loc 1 462 0 is_stmt 0 discriminator 1
 1765 006a 7B79     		ldrb	r3, [r7, #5]	@ zero_extendqisi2
 1766 006c 022B     		cmp	r3, #2
 1767 006e 01D1     		bne	.L118
 463:.\Protocolo.c **** 		temp=5;
 1768              		.loc 1 463 0 is_stmt 1
 1769 0070 0523     		movs	r3, #5
 1770 0072 BB77     		strb	r3, [r7, #30]
 1771              	.L118:
 464:.\Protocolo.c **** 	}
 465:.\Protocolo.c **** 	if((version[1]==7)&&(preset==1)){
 1772              		.loc 1 465 0
 1773 0074 A64B     		ldr	r3, .L158
 1774 0076 5B78     		ldrb	r3, [r3, #1]
 1775 0078 DBB2     		uxtb	r3, r3
 1776 007a 072B     		cmp	r3, #7
 1777 007c 04D1     		bne	.L119
 1778              		.loc 1 465 0 is_stmt 0 discriminator 1
 1779 007e 7B79     		ldrb	r3, [r7, #5]	@ zero_extendqisi2
 1780 0080 012B     		cmp	r3, #1
 1781 0082 01D1     		bne	.L119
 466:.\Protocolo.c **** 		temp=0;
 1782              		.loc 1 466 0 is_stmt 1
 1783 0084 0023     		movs	r3, #0
 1784 0086 BB77     		strb	r3, [r7, #30]
 1785              	.L119:
 467:.\Protocolo.c **** 	}
 468:.\Protocolo.c **** 	if((version[1]==7)&&(preset==2)){
 1786              		.loc 1 468 0
 1787 0088 A14B     		ldr	r3, .L158
 1788 008a 5B78     		ldrb	r3, [r3, #1]
 1789 008c DBB2     		uxtb	r3, r3
 1790 008e 072B     		cmp	r3, #7
 1791 0090 04D1     		bne	.L120
ARM GAS  C:\Users\RECEPC~1\AppData\Local\Temp\cc3fClzk.s 			page 42


 1792              		.loc 1 468 0 is_stmt 0 discriminator 1
 1793 0092 7B79     		ldrb	r3, [r7, #5]	@ zero_extendqisi2
 1794 0094 022B     		cmp	r3, #2
 1795 0096 01D1     		bne	.L120
 469:.\Protocolo.c **** 		temp=2;
 1796              		.loc 1 469 0 is_stmt 1
 1797 0098 0223     		movs	r3, #2
 1798 009a BB77     		strb	r3, [r7, #30]
 1799              	.L120:
 470:.\Protocolo.c **** 	}	
 471:.\Protocolo.c **** 	decimal=0;
 1800              		.loc 1 471 0
 1801 009c 0023     		movs	r3, #0
 1802 009e 3B77     		strb	r3, [r7, #28]
 472:.\Protocolo.c **** 	for(i=1;i<=7;i++){
 1803              		.loc 1 472 0
 1804 00a0 0123     		movs	r3, #1
 1805 00a2 7B77     		strb	r3, [r7, #29]
 1806 00a4 0AE0     		b	.L121
 1807              	.L123:
 473:.\Protocolo.c **** 		if(valor[i]=='.'){
 1808              		.loc 1 473 0
 1809 00a6 7B7F     		ldrb	r3, [r7, #29]	@ zero_extendqisi2
 1810 00a8 3A68     		ldr	r2, [r7]
 1811 00aa 1344     		add	r3, r3, r2
 1812 00ac 1B78     		ldrb	r3, [r3]	@ zero_extendqisi2
 1813 00ae 2E2B     		cmp	r3, #46
 1814 00b0 01D1     		bne	.L122
 474:.\Protocolo.c **** 			decimal=i;	
 1815              		.loc 1 474 0
 1816 00b2 7B7F     		ldrb	r3, [r7, #29]
 1817 00b4 3B77     		strb	r3, [r7, #28]
 1818              	.L122:
 472:.\Protocolo.c **** 	for(i=1;i<=7;i++){
 1819              		.loc 1 472 0
 1820 00b6 7B7F     		ldrb	r3, [r7, #29]	@ zero_extendqisi2
 1821 00b8 0133     		adds	r3, r3, #1
 1822 00ba 7B77     		strb	r3, [r7, #29]
 1823              	.L121:
 472:.\Protocolo.c **** 	for(i=1;i<=7;i++){
 1824              		.loc 1 472 0 is_stmt 0 discriminator 1
 1825 00bc 7B7F     		ldrb	r3, [r7, #29]	@ zero_extendqisi2
 1826 00be 072B     		cmp	r3, #7
 1827 00c0 F1D9     		bls	.L123
 475:.\Protocolo.c **** 		}
 476:.\Protocolo.c **** 	}
 477:.\Protocolo.c **** 	if(decimal>4){
 1828              		.loc 1 477 0 is_stmt 1
 1829 00c2 3B7F     		ldrb	r3, [r7, #28]	@ zero_extendqisi2
 1830 00c4 042B     		cmp	r3, #4
 1831 00c6 01D9     		bls	.L124
 478:.\Protocolo.c **** 		return 0;
 1832              		.loc 1 478 0
 1833 00c8 0023     		movs	r3, #0
 1834 00ca CFE3     		b	.L157
 1835              	.L124:
 479:.\Protocolo.c **** 	}
ARM GAS  C:\Users\RECEPC~1\AppData\Local\Temp\cc3fClzk.s 			page 43


 480:.\Protocolo.c **** 	if(version[1]!=7){		
 1836              		.loc 1 480 0
 1837 00cc 904B     		ldr	r3, .L158
 1838 00ce 5B78     		ldrb	r3, [r3, #1]
 1839 00d0 DBB2     		uxtb	r3, r3
 1840 00d2 072B     		cmp	r3, #7
 1841 00d4 00F00582 		beq	.L126
 481:.\Protocolo.c **** 		buffer[0]=0xFF;
 1842              		.loc 1 481 0
 1843 00d8 FF23     		movs	r3, #255
 1844 00da 3B72     		strb	r3, [r7, #8]
 482:.\Protocolo.c **** 		buffer[1]=(0xE0|temp);
 1845              		.loc 1 482 0
 1846 00dc BB7F     		ldrb	r3, [r7, #30]
 1847 00de 63F01F03 		orn	r3, r3, #31
 1848 00e2 DBB2     		uxtb	r3, r3
 1849 00e4 7B72     		strb	r3, [r7, #9]
 483:.\Protocolo.c **** 		buffer[2]=(0xF0|preset);
 1850              		.loc 1 483 0
 1851 00e6 7B79     		ldrb	r3, [r7, #5]
 1852 00e8 63F00F03 		orn	r3, r3, #15
 1853 00ec DBB2     		uxtb	r3, r3
 1854 00ee BB72     		strb	r3, [r7, #10]
 484:.\Protocolo.c **** 		buffer[3]=0xF4;
 1855              		.loc 1 484 0
 1856 00f0 F423     		movs	r3, #244
 1857 00f2 FB72     		strb	r3, [r7, #11]
 485:.\Protocolo.c **** 		buffer[4]=0xF8;	
 1858              		.loc 1 485 0
 1859 00f4 F823     		movs	r3, #248
 1860 00f6 3B73     		strb	r3, [r7, #12]
 486:.\Protocolo.c **** 		buffer[5]=(valor[1]|0xE0);
 1861              		.loc 1 486 0
 1862 00f8 3B68     		ldr	r3, [r7]
 1863 00fa 0133     		adds	r3, r3, #1
 1864 00fc 1B78     		ldrb	r3, [r3]	@ zero_extendqisi2
 1865 00fe 63F01F03 		orn	r3, r3, #31
 1866 0102 DBB2     		uxtb	r3, r3
 1867 0104 7B73     		strb	r3, [r7, #13]
 487:.\Protocolo.c **** 		buffer[6]=(valor[2]|0xE0);
 1868              		.loc 1 487 0
 1869 0106 3B68     		ldr	r3, [r7]
 1870 0108 0233     		adds	r3, r3, #2
 1871 010a 1B78     		ldrb	r3, [r3]	@ zero_extendqisi2
 1872 010c 63F01F03 		orn	r3, r3, #31
 1873 0110 DBB2     		uxtb	r3, r3
 1874 0112 BB73     		strb	r3, [r7, #14]
 488:.\Protocolo.c **** 		buffer[7]=(valor[3]|0xE0);
 1875              		.loc 1 488 0
 1876 0114 3B68     		ldr	r3, [r7]
 1877 0116 0333     		adds	r3, r3, #3
 1878 0118 1B78     		ldrb	r3, [r3]	@ zero_extendqisi2
 1879 011a 63F01F03 		orn	r3, r3, #31
 1880 011e DBB2     		uxtb	r3, r3
 1881 0120 FB73     		strb	r3, [r7, #15]
 489:.\Protocolo.c **** 		buffer[8]=(valor[4]|0xE0);
 1882              		.loc 1 489 0
ARM GAS  C:\Users\RECEPC~1\AppData\Local\Temp\cc3fClzk.s 			page 44


 1883 0122 3B68     		ldr	r3, [r7]
 1884 0124 0433     		adds	r3, r3, #4
 1885 0126 1B78     		ldrb	r3, [r3]	@ zero_extendqisi2
 1886 0128 63F01F03 		orn	r3, r3, #31
 1887 012c DBB2     		uxtb	r3, r3
 1888 012e 3B74     		strb	r3, [r7, #16]
 490:.\Protocolo.c **** 		buffer[9]=(valor[5]|0xE0);
 1889              		.loc 1 490 0
 1890 0130 3B68     		ldr	r3, [r7]
 1891 0132 0533     		adds	r3, r3, #5
 1892 0134 1B78     		ldrb	r3, [r3]	@ zero_extendqisi2
 1893 0136 63F01F03 		orn	r3, r3, #31
 1894 013a DBB2     		uxtb	r3, r3
 1895 013c 7B74     		strb	r3, [r7, #17]
 491:.\Protocolo.c **** 		buffer[10]=(valor[6]|0xE0);
 1896              		.loc 1 491 0
 1897 013e 3B68     		ldr	r3, [r7]
 1898 0140 0633     		adds	r3, r3, #6
 1899 0142 1B78     		ldrb	r3, [r3]	@ zero_extendqisi2
 1900 0144 63F01F03 		orn	r3, r3, #31
 1901 0148 DBB2     		uxtb	r3, r3
 1902 014a BB74     		strb	r3, [r7, #18]
 492:.\Protocolo.c **** 		if(version[2]==2){
 1903              		.loc 1 492 0
 1904 014c 704B     		ldr	r3, .L158
 1905 014e 9B78     		ldrb	r3, [r3, #2]
 1906 0150 DBB2     		uxtb	r3, r3
 1907 0152 022B     		cmp	r3, #2
 1908 0154 40F0A580 		bne	.L127
 493:.\Protocolo.c **** 			if(decimal==4){
 1909              		.loc 1 493 0
 1910 0158 3B7F     		ldrb	r3, [r7, #28]	@ zero_extendqisi2
 1911 015a 042B     		cmp	r3, #4
 1912 015c 29D1     		bne	.L128
 494:.\Protocolo.c **** 				buffer[5]=(valor[2]|0xE0);
 1913              		.loc 1 494 0
 1914 015e 3B68     		ldr	r3, [r7]
 1915 0160 0233     		adds	r3, r3, #2
 1916 0162 1B78     		ldrb	r3, [r3]	@ zero_extendqisi2
 1917 0164 63F01F03 		orn	r3, r3, #31
 1918 0168 DBB2     		uxtb	r3, r3
 1919 016a 7B73     		strb	r3, [r7, #13]
 495:.\Protocolo.c **** 				buffer[6]=(valor[3]|0xE0);
 1920              		.loc 1 495 0
 1921 016c 3B68     		ldr	r3, [r7]
 1922 016e 0333     		adds	r3, r3, #3
 1923 0170 1B78     		ldrb	r3, [r3]	@ zero_extendqisi2
 1924 0172 63F01F03 		orn	r3, r3, #31
 1925 0176 DBB2     		uxtb	r3, r3
 1926 0178 BB73     		strb	r3, [r7, #14]
 496:.\Protocolo.c **** 				buffer[7]=(valor[5]|0xE0);
 1927              		.loc 1 496 0
 1928 017a 3B68     		ldr	r3, [r7]
 1929 017c 0533     		adds	r3, r3, #5
 1930 017e 1B78     		ldrb	r3, [r3]	@ zero_extendqisi2
 1931 0180 63F01F03 		orn	r3, r3, #31
 1932 0184 DBB2     		uxtb	r3, r3
ARM GAS  C:\Users\RECEPC~1\AppData\Local\Temp\cc3fClzk.s 			page 45


 1933 0186 FB73     		strb	r3, [r7, #15]
 497:.\Protocolo.c **** 				buffer[8]=(valor[6]|0xE0);
 1934              		.loc 1 497 0
 1935 0188 3B68     		ldr	r3, [r7]
 1936 018a 0633     		adds	r3, r3, #6
 1937 018c 1B78     		ldrb	r3, [r3]	@ zero_extendqisi2
 1938 018e 63F01F03 		orn	r3, r3, #31
 1939 0192 DBB2     		uxtb	r3, r3
 1940 0194 3B74     		strb	r3, [r7, #16]
 498:.\Protocolo.c **** 				buffer[9]=(valor[7]|0xE0);
 1941              		.loc 1 498 0
 1942 0196 3B68     		ldr	r3, [r7]
 1943 0198 0733     		adds	r3, r3, #7
 1944 019a 1B78     		ldrb	r3, [r3]	@ zero_extendqisi2
 1945 019c 63F01F03 		orn	r3, r3, #31
 1946 01a0 DBB2     		uxtb	r3, r3
 1947 01a2 7B74     		strb	r3, [r7, #17]
 499:.\Protocolo.c **** 				buffer[10]=(valor[8]|0xE0);
 1948              		.loc 1 499 0
 1949 01a4 3B68     		ldr	r3, [r7]
 1950 01a6 0833     		adds	r3, r3, #8
 1951 01a8 1B78     		ldrb	r3, [r3]	@ zero_extendqisi2
 1952 01aa 63F01F03 		orn	r3, r3, #31
 1953 01ae DBB2     		uxtb	r3, r3
 1954 01b0 BB74     		strb	r3, [r7, #18]
 1955              	.L128:
 500:.\Protocolo.c **** 			}
 501:.\Protocolo.c **** 			if(decimal==3){
 1956              		.loc 1 501 0
 1957 01b2 3B7F     		ldrb	r3, [r7, #28]	@ zero_extendqisi2
 1958 01b4 032B     		cmp	r3, #3
 1959 01b6 29D1     		bne	.L129
 502:.\Protocolo.c **** 				buffer[5]=(valor[1]|0xE0);
 1960              		.loc 1 502 0
 1961 01b8 3B68     		ldr	r3, [r7]
 1962 01ba 0133     		adds	r3, r3, #1
 1963 01bc 1B78     		ldrb	r3, [r3]	@ zero_extendqisi2
 1964 01be 63F01F03 		orn	r3, r3, #31
 1965 01c2 DBB2     		uxtb	r3, r3
 1966 01c4 7B73     		strb	r3, [r7, #13]
 503:.\Protocolo.c **** 				buffer[6]=(valor[2]|0xE0);
 1967              		.loc 1 503 0
 1968 01c6 3B68     		ldr	r3, [r7]
 1969 01c8 0233     		adds	r3, r3, #2
 1970 01ca 1B78     		ldrb	r3, [r3]	@ zero_extendqisi2
 1971 01cc 63F01F03 		orn	r3, r3, #31
 1972 01d0 DBB2     		uxtb	r3, r3
 1973 01d2 BB73     		strb	r3, [r7, #14]
 504:.\Protocolo.c **** 				buffer[7]=(valor[4]|0xE0);
 1974              		.loc 1 504 0
 1975 01d4 3B68     		ldr	r3, [r7]
 1976 01d6 0433     		adds	r3, r3, #4
 1977 01d8 1B78     		ldrb	r3, [r3]	@ zero_extendqisi2
 1978 01da 63F01F03 		orn	r3, r3, #31
 1979 01de DBB2     		uxtb	r3, r3
 1980 01e0 FB73     		strb	r3, [r7, #15]
 505:.\Protocolo.c **** 				buffer[8]=(valor[5]|0xE0);
ARM GAS  C:\Users\RECEPC~1\AppData\Local\Temp\cc3fClzk.s 			page 46


 1981              		.loc 1 505 0
 1982 01e2 3B68     		ldr	r3, [r7]
 1983 01e4 0533     		adds	r3, r3, #5
 1984 01e6 1B78     		ldrb	r3, [r3]	@ zero_extendqisi2
 1985 01e8 63F01F03 		orn	r3, r3, #31
 1986 01ec DBB2     		uxtb	r3, r3
 1987 01ee 3B74     		strb	r3, [r7, #16]
 506:.\Protocolo.c **** 				buffer[9]=(valor[6]|0xE0);
 1988              		.loc 1 506 0
 1989 01f0 3B68     		ldr	r3, [r7]
 1990 01f2 0633     		adds	r3, r3, #6
 1991 01f4 1B78     		ldrb	r3, [r3]	@ zero_extendqisi2
 1992 01f6 63F01F03 		orn	r3, r3, #31
 1993 01fa DBB2     		uxtb	r3, r3
 1994 01fc 7B74     		strb	r3, [r7, #17]
 507:.\Protocolo.c **** 				buffer[10]=(valor[7]|0xE0);
 1995              		.loc 1 507 0
 1996 01fe 3B68     		ldr	r3, [r7]
 1997 0200 0733     		adds	r3, r3, #7
 1998 0202 1B78     		ldrb	r3, [r3]	@ zero_extendqisi2
 1999 0204 63F01F03 		orn	r3, r3, #31
 2000 0208 DBB2     		uxtb	r3, r3
 2001 020a BB74     		strb	r3, [r7, #18]
 2002              	.L129:
 508:.\Protocolo.c **** 			}
 509:.\Protocolo.c **** 			if(decimal==2){
 2003              		.loc 1 509 0
 2004 020c 3B7F     		ldrb	r3, [r7, #28]	@ zero_extendqisi2
 2005 020e 022B     		cmp	r3, #2
 2006 0210 24D1     		bne	.L130
 510:.\Protocolo.c **** 				buffer[5]=0xE0;
 2007              		.loc 1 510 0
 2008 0212 E023     		movs	r3, #224
 2009 0214 7B73     		strb	r3, [r7, #13]
 511:.\Protocolo.c **** 				buffer[6]=(valor[1]|0xE0);
 2010              		.loc 1 511 0
 2011 0216 3B68     		ldr	r3, [r7]
 2012 0218 0133     		adds	r3, r3, #1
 2013 021a 1B78     		ldrb	r3, [r3]	@ zero_extendqisi2
 2014 021c 63F01F03 		orn	r3, r3, #31
 2015 0220 DBB2     		uxtb	r3, r3
 2016 0222 BB73     		strb	r3, [r7, #14]
 512:.\Protocolo.c **** 				buffer[7]=(valor[3]|0xE0);
 2017              		.loc 1 512 0
 2018 0224 3B68     		ldr	r3, [r7]
 2019 0226 0333     		adds	r3, r3, #3
 2020 0228 1B78     		ldrb	r3, [r3]	@ zero_extendqisi2
 2021 022a 63F01F03 		orn	r3, r3, #31
 2022 022e DBB2     		uxtb	r3, r3
 2023 0230 FB73     		strb	r3, [r7, #15]
 513:.\Protocolo.c **** 				buffer[8]=(valor[4]|0xE0);
 2024              		.loc 1 513 0
 2025 0232 3B68     		ldr	r3, [r7]
 2026 0234 0433     		adds	r3, r3, #4
 2027 0236 1B78     		ldrb	r3, [r3]	@ zero_extendqisi2
 2028 0238 63F01F03 		orn	r3, r3, #31
 2029 023c DBB2     		uxtb	r3, r3
ARM GAS  C:\Users\RECEPC~1\AppData\Local\Temp\cc3fClzk.s 			page 47


 2030 023e 3B74     		strb	r3, [r7, #16]
 514:.\Protocolo.c **** 				buffer[9]=(valor[5]|0xE0);	
 2031              		.loc 1 514 0
 2032 0240 3B68     		ldr	r3, [r7]
 2033 0242 0533     		adds	r3, r3, #5
 2034 0244 1B78     		ldrb	r3, [r3]	@ zero_extendqisi2
 2035 0246 63F01F03 		orn	r3, r3, #31
 2036 024a DBB2     		uxtb	r3, r3
 2037 024c 7B74     		strb	r3, [r7, #17]
 515:.\Protocolo.c **** 				buffer[10]=(valor[6]|0xE0);
 2038              		.loc 1 515 0
 2039 024e 3B68     		ldr	r3, [r7]
 2040 0250 0633     		adds	r3, r3, #6
 2041 0252 1B78     		ldrb	r3, [r3]	@ zero_extendqisi2
 2042 0254 63F01F03 		orn	r3, r3, #31
 2043 0258 DBB2     		uxtb	r3, r3
 2044 025a BB74     		strb	r3, [r7, #18]
 2045              	.L130:
 516:.\Protocolo.c **** 			}
 517:.\Protocolo.c **** 			if(decimal==0){
 2046              		.loc 1 517 0
 2047 025c 3B7F     		ldrb	r3, [r7, #28]	@ zero_extendqisi2
 2048 025e 002B     		cmp	r3, #0
 2049 0260 1FD1     		bne	.L127
 518:.\Protocolo.c **** 				buffer[5]=0xE0;
 2050              		.loc 1 518 0
 2051 0262 E023     		movs	r3, #224
 2052 0264 7B73     		strb	r3, [r7, #13]
 519:.\Protocolo.c **** 				buffer[6]=0xE0;
 2053              		.loc 1 519 0
 2054 0266 E023     		movs	r3, #224
 2055 0268 BB73     		strb	r3, [r7, #14]
 520:.\Protocolo.c **** 				buffer[7]=(valor[1]|0xE0);
 2056              		.loc 1 520 0
 2057 026a 3B68     		ldr	r3, [r7]
 2058 026c 0133     		adds	r3, r3, #1
 2059 026e 1B78     		ldrb	r3, [r3]	@ zero_extendqisi2
 2060 0270 63F01F03 		orn	r3, r3, #31
 2061 0274 DBB2     		uxtb	r3, r3
 2062 0276 FB73     		strb	r3, [r7, #15]
 521:.\Protocolo.c **** 				buffer[8]=(valor[2]|0xE0);
 2063              		.loc 1 521 0
 2064 0278 3B68     		ldr	r3, [r7]
 2065 027a 0233     		adds	r3, r3, #2
 2066 027c 1B78     		ldrb	r3, [r3]	@ zero_extendqisi2
 2067 027e 63F01F03 		orn	r3, r3, #31
 2068 0282 DBB2     		uxtb	r3, r3
 2069 0284 3B74     		strb	r3, [r7, #16]
 522:.\Protocolo.c **** 				buffer[9]=(valor[3]|0xE0);
 2070              		.loc 1 522 0
 2071 0286 3B68     		ldr	r3, [r7]
 2072 0288 0333     		adds	r3, r3, #3
 2073 028a 1B78     		ldrb	r3, [r3]	@ zero_extendqisi2
 2074 028c 63F01F03 		orn	r3, r3, #31
 2075 0290 DBB2     		uxtb	r3, r3
 2076 0292 7B74     		strb	r3, [r7, #17]
 523:.\Protocolo.c **** 				buffer[10]=(valor[4]|0xE0);
ARM GAS  C:\Users\RECEPC~1\AppData\Local\Temp\cc3fClzk.s 			page 48


 2077              		.loc 1 523 0
 2078 0294 3B68     		ldr	r3, [r7]
 2079 0296 0433     		adds	r3, r3, #4
 2080 0298 1B78     		ldrb	r3, [r3]	@ zero_extendqisi2
 2081 029a 63F01F03 		orn	r3, r3, #31
 2082 029e DBB2     		uxtb	r3, r3
 2083 02a0 BB74     		strb	r3, [r7, #18]
 2084              	.L127:
 524:.\Protocolo.c **** 			}			
 525:.\Protocolo.c **** 		}
 526:.\Protocolo.c **** 		buffer[11]=0xFB;
 2085              		.loc 1 526 0
 2086 02a2 FB23     		movs	r3, #251
 2087 02a4 FB74     		strb	r3, [r7, #19]
 527:.\Protocolo.c **** 		buffer[12]=0;
 2088              		.loc 1 527 0
 2089 02a6 0023     		movs	r3, #0
 2090 02a8 3B75     		strb	r3, [r7, #20]
 528:.\Protocolo.c **** 		for(i=0;i<=11;i++){
 2091              		.loc 1 528 0
 2092 02aa 0023     		movs	r3, #0
 2093 02ac 7B77     		strb	r3, [r7, #29]
 2094 02ae 0FE0     		b	.L131
 2095              	.L132:
 529:.\Protocolo.c **** 			buffer[12]+=(buffer[i]&0x0F);	
 2096              		.loc 1 529 0 discriminator 2
 2097 02b0 3A7D     		ldrb	r2, [r7, #20]	@ zero_extendqisi2
 2098 02b2 7B7F     		ldrb	r3, [r7, #29]	@ zero_extendqisi2
 2099 02b4 07F12001 		add	r1, r7, #32
 2100 02b8 0B44     		add	r3, r3, r1
 2101 02ba 13F8183C 		ldrb	r3, [r3, #-24]	@ zero_extendqisi2
 2102 02be 03F00F03 		and	r3, r3, #15
 2103 02c2 DBB2     		uxtb	r3, r3
 2104 02c4 1344     		add	r3, r3, r2
 2105 02c6 DBB2     		uxtb	r3, r3
 2106 02c8 3B75     		strb	r3, [r7, #20]
 528:.\Protocolo.c **** 		for(i=0;i<=11;i++){
 2107              		.loc 1 528 0 discriminator 2
 2108 02ca 7B7F     		ldrb	r3, [r7, #29]	@ zero_extendqisi2
 2109 02cc 0133     		adds	r3, r3, #1
 2110 02ce 7B77     		strb	r3, [r7, #29]
 2111              	.L131:
 528:.\Protocolo.c **** 		for(i=0;i<=11;i++){
 2112              		.loc 1 528 0 is_stmt 0 discriminator 1
 2113 02d0 7B7F     		ldrb	r3, [r7, #29]	@ zero_extendqisi2
 2114 02d2 0B2B     		cmp	r3, #11
 2115 02d4 ECD9     		bls	.L132
 530:.\Protocolo.c **** 		}
 531:.\Protocolo.c **** 		buffer[12]=(((~buffer[12])+1)&0x0F)|0xE0;
 2116              		.loc 1 531 0 is_stmt 1
 2117 02d6 3B7D     		ldrb	r3, [r7, #20]	@ zero_extendqisi2
 2118 02d8 5B42     		negs	r3, r3
 2119 02da DBB2     		uxtb	r3, r3
 2120 02dc DBB2     		uxtb	r3, r3
 2121 02de 03F00F03 		and	r3, r3, #15
 2122 02e2 DBB2     		uxtb	r3, r3
 2123 02e4 63F01F03 		orn	r3, r3, #31
ARM GAS  C:\Users\RECEPC~1\AppData\Local\Temp\cc3fClzk.s 			page 49


 2124 02e8 DBB2     		uxtb	r3, r3
 2125 02ea DBB2     		uxtb	r3, r3
 2126 02ec 3B75     		strb	r3, [r7, #20]
 532:.\Protocolo.c **** 		buffer[13]=0xF0;
 2127              		.loc 1 532 0
 2128 02ee F023     		movs	r3, #240
 2129 02f0 7B75     		strb	r3, [r7, #21]
 533:.\Protocolo.c **** 		size=13;
 2130              		.loc 1 533 0
 2131 02f2 0D23     		movs	r3, #13
 2132 02f4 FB77     		strb	r3, [r7, #31]
 534:.\Protocolo.c **** 		if(version[1]==5){
 2133              		.loc 1 534 0
 2134 02f6 064B     		ldr	r3, .L158
 2135 02f8 5B78     		ldrb	r3, [r3, #1]
 2136 02fa DBB2     		uxtb	r3, r3
 2137 02fc 052B     		cmp	r3, #5
 2138 02fe 2CD1     		bne	.L133
 535:.\Protocolo.c **** 			buffer[10]=0xFB;
 2139              		.loc 1 535 0
 2140 0300 FB23     		movs	r3, #251
 2141 0302 BB74     		strb	r3, [r7, #18]
 536:.\Protocolo.c **** 			buffer[11]=0;
 2142              		.loc 1 536 0
 2143 0304 0023     		movs	r3, #0
 2144 0306 FB74     		strb	r3, [r7, #19]
 537:.\Protocolo.c **** 			for(i=0;i<=10;i++){
 2145              		.loc 1 537 0
 2146 0308 0023     		movs	r3, #0
 2147 030a 7B77     		strb	r3, [r7, #29]
 2148 030c 12E0     		b	.L134
 2149              	.L159:
 2150 030e 00BF     		.align	2
 2151              	.L158:
 2152 0310 00000000 		.word	version
 2153              	.L135:
 538:.\Protocolo.c **** 				buffer[11]+=(buffer[i]&0x0F);	
 2154              		.loc 1 538 0 discriminator 2
 2155 0314 FA7C     		ldrb	r2, [r7, #19]	@ zero_extendqisi2
 2156 0316 7B7F     		ldrb	r3, [r7, #29]	@ zero_extendqisi2
 2157 0318 07F12001 		add	r1, r7, #32
 2158 031c 0B44     		add	r3, r3, r1
 2159 031e 13F8183C 		ldrb	r3, [r3, #-24]	@ zero_extendqisi2
 2160 0322 03F00F03 		and	r3, r3, #15
 2161 0326 DBB2     		uxtb	r3, r3
 2162 0328 1344     		add	r3, r3, r2
 2163 032a DBB2     		uxtb	r3, r3
 2164 032c FB74     		strb	r3, [r7, #19]
 537:.\Protocolo.c **** 			for(i=0;i<=10;i++){
 2165              		.loc 1 537 0 discriminator 2
 2166 032e 7B7F     		ldrb	r3, [r7, #29]	@ zero_extendqisi2
 2167 0330 0133     		adds	r3, r3, #1
 2168 0332 7B77     		strb	r3, [r7, #29]
 2169              	.L134:
 537:.\Protocolo.c **** 			for(i=0;i<=10;i++){
 2170              		.loc 1 537 0 is_stmt 0 discriminator 1
 2171 0334 7B7F     		ldrb	r3, [r7, #29]	@ zero_extendqisi2
ARM GAS  C:\Users\RECEPC~1\AppData\Local\Temp\cc3fClzk.s 			page 50


 2172 0336 0A2B     		cmp	r3, #10
 2173 0338 ECD9     		bls	.L135
 539:.\Protocolo.c **** 			}
 540:.\Protocolo.c **** 			buffer[11]=(((~buffer[11])+1)&0x0F)|0xE0;
 2174              		.loc 1 540 0 is_stmt 1
 2175 033a FB7C     		ldrb	r3, [r7, #19]	@ zero_extendqisi2
 2176 033c 5B42     		negs	r3, r3
 2177 033e DBB2     		uxtb	r3, r3
 2178 0340 DBB2     		uxtb	r3, r3
 2179 0342 03F00F03 		and	r3, r3, #15
 2180 0346 DBB2     		uxtb	r3, r3
 2181 0348 63F01F03 		orn	r3, r3, #31
 2182 034c DBB2     		uxtb	r3, r3
 2183 034e DBB2     		uxtb	r3, r3
 2184 0350 FB74     		strb	r3, [r7, #19]
 541:.\Protocolo.c **** 			buffer[12]=0xF0;
 2185              		.loc 1 541 0
 2186 0352 F023     		movs	r3, #240
 2187 0354 3B75     		strb	r3, [r7, #20]
 542:.\Protocolo.c **** 			size=12;		
 2188              		.loc 1 542 0
 2189 0356 0C23     		movs	r3, #12
 2190 0358 FB77     		strb	r3, [r7, #31]
 2191              	.L133:
 543:.\Protocolo.c **** 		}
 544:.\Protocolo.c **** 		if(preset==1){
 2192              		.loc 1 544 0
 2193 035a 7B79     		ldrb	r3, [r7, #5]	@ zero_extendqisi2
 2194 035c 012B     		cmp	r3, #1
 2195 035e 40F0C080 		bne	.L126
 545:.\Protocolo.c **** 			buffer[4]=0xF6;
 2196              		.loc 1 545 0
 2197 0362 F623     		movs	r3, #246
 2198 0364 3B73     		strb	r3, [r7, #12]
 546:.\Protocolo.c **** 			buffer[5]=(0xE0|(grado-1));
 2199              		.loc 1 546 0
 2200 0366 BB79     		ldrb	r3, [r7, #6]
 2201 0368 013B     		subs	r3, r3, #1
 2202 036a DBB2     		uxtb	r3, r3
 2203 036c DBB2     		uxtb	r3, r3
 2204 036e 63F01F03 		orn	r3, r3, #31
 2205 0372 DBB2     		uxtb	r3, r3
 2206 0374 DBB2     		uxtb	r3, r3
 2207 0376 7B73     		strb	r3, [r7, #13]
 547:.\Protocolo.c **** 			buffer[6]=0xF8;
 2208              		.loc 1 547 0
 2209 0378 F823     		movs	r3, #248
 2210 037a BB73     		strb	r3, [r7, #14]
 548:.\Protocolo.c **** 			if(decimal==4){
 2211              		.loc 1 548 0
 2212 037c 3B7F     		ldrb	r3, [r7, #28]	@ zero_extendqisi2
 2213 037e 042B     		cmp	r3, #4
 2214 0380 22D1     		bne	.L136
 549:.\Protocolo.c **** 				buffer[7]=(valor[2]|0xE0);
 2215              		.loc 1 549 0
 2216 0382 3B68     		ldr	r3, [r7]
 2217 0384 0233     		adds	r3, r3, #2
ARM GAS  C:\Users\RECEPC~1\AppData\Local\Temp\cc3fClzk.s 			page 51


 2218 0386 1B78     		ldrb	r3, [r3]	@ zero_extendqisi2
 2219 0388 63F01F03 		orn	r3, r3, #31
 2220 038c DBB2     		uxtb	r3, r3
 2221 038e FB73     		strb	r3, [r7, #15]
 550:.\Protocolo.c **** 				buffer[8]=(valor[3]|0xE0);
 2222              		.loc 1 550 0
 2223 0390 3B68     		ldr	r3, [r7]
 2224 0392 0333     		adds	r3, r3, #3
 2225 0394 1B78     		ldrb	r3, [r3]	@ zero_extendqisi2
 2226 0396 63F01F03 		orn	r3, r3, #31
 2227 039a DBB2     		uxtb	r3, r3
 2228 039c 3B74     		strb	r3, [r7, #16]
 551:.\Protocolo.c **** 				buffer[9]=(valor[5]|0xE0);
 2229              		.loc 1 551 0
 2230 039e 3B68     		ldr	r3, [r7]
 2231 03a0 0533     		adds	r3, r3, #5
 2232 03a2 1B78     		ldrb	r3, [r3]	@ zero_extendqisi2
 2233 03a4 63F01F03 		orn	r3, r3, #31
 2234 03a8 DBB2     		uxtb	r3, r3
 2235 03aa 7B74     		strb	r3, [r7, #17]
 552:.\Protocolo.c **** 				buffer[10]=(valor[6]|0xE0);
 2236              		.loc 1 552 0
 2237 03ac 3B68     		ldr	r3, [r7]
 2238 03ae 0633     		adds	r3, r3, #6
 2239 03b0 1B78     		ldrb	r3, [r3]	@ zero_extendqisi2
 2240 03b2 63F01F03 		orn	r3, r3, #31
 2241 03b6 DBB2     		uxtb	r3, r3
 2242 03b8 BB74     		strb	r3, [r7, #18]
 553:.\Protocolo.c **** 				buffer[11]=(valor[7]|0xE0);
 2243              		.loc 1 553 0
 2244 03ba 3B68     		ldr	r3, [r7]
 2245 03bc 0733     		adds	r3, r3, #7
 2246 03be 1B78     		ldrb	r3, [r3]	@ zero_extendqisi2
 2247 03c0 63F01F03 		orn	r3, r3, #31
 2248 03c4 DBB2     		uxtb	r3, r3
 2249 03c6 FB74     		strb	r3, [r7, #19]
 2250              	.L136:
 554:.\Protocolo.c **** 			}
 555:.\Protocolo.c **** 			if(decimal==3){
 2251              		.loc 1 555 0
 2252 03c8 3B7F     		ldrb	r3, [r7, #28]	@ zero_extendqisi2
 2253 03ca 032B     		cmp	r3, #3
 2254 03cc 22D1     		bne	.L137
 556:.\Protocolo.c **** 				buffer[7]=(valor[1]|0xE0);
 2255              		.loc 1 556 0
 2256 03ce 3B68     		ldr	r3, [r7]
 2257 03d0 0133     		adds	r3, r3, #1
 2258 03d2 1B78     		ldrb	r3, [r3]	@ zero_extendqisi2
 2259 03d4 63F01F03 		orn	r3, r3, #31
 2260 03d8 DBB2     		uxtb	r3, r3
 2261 03da FB73     		strb	r3, [r7, #15]
 557:.\Protocolo.c **** 				buffer[8]=(valor[2]|0xE0);
 2262              		.loc 1 557 0
 2263 03dc 3B68     		ldr	r3, [r7]
 2264 03de 0233     		adds	r3, r3, #2
 2265 03e0 1B78     		ldrb	r3, [r3]	@ zero_extendqisi2
 2266 03e2 63F01F03 		orn	r3, r3, #31
ARM GAS  C:\Users\RECEPC~1\AppData\Local\Temp\cc3fClzk.s 			page 52


 2267 03e6 DBB2     		uxtb	r3, r3
 2268 03e8 3B74     		strb	r3, [r7, #16]
 558:.\Protocolo.c **** 				buffer[9]=(valor[4]|0xE0);
 2269              		.loc 1 558 0
 2270 03ea 3B68     		ldr	r3, [r7]
 2271 03ec 0433     		adds	r3, r3, #4
 2272 03ee 1B78     		ldrb	r3, [r3]	@ zero_extendqisi2
 2273 03f0 63F01F03 		orn	r3, r3, #31
 2274 03f4 DBB2     		uxtb	r3, r3
 2275 03f6 7B74     		strb	r3, [r7, #17]
 559:.\Protocolo.c **** 				buffer[10]=(valor[5]|0xE0);
 2276              		.loc 1 559 0
 2277 03f8 3B68     		ldr	r3, [r7]
 2278 03fa 0533     		adds	r3, r3, #5
 2279 03fc 1B78     		ldrb	r3, [r3]	@ zero_extendqisi2
 2280 03fe 63F01F03 		orn	r3, r3, #31
 2281 0402 DBB2     		uxtb	r3, r3
 2282 0404 BB74     		strb	r3, [r7, #18]
 560:.\Protocolo.c **** 				buffer[11]=(valor[6]|0xE0);		
 2283              		.loc 1 560 0
 2284 0406 3B68     		ldr	r3, [r7]
 2285 0408 0633     		adds	r3, r3, #6
 2286 040a 1B78     		ldrb	r3, [r3]	@ zero_extendqisi2
 2287 040c 63F01F03 		orn	r3, r3, #31
 2288 0410 DBB2     		uxtb	r3, r3
 2289 0412 FB74     		strb	r3, [r7, #19]
 2290              	.L137:
 561:.\Protocolo.c **** 			}
 562:.\Protocolo.c **** 			if(decimal==2){
 2291              		.loc 1 562 0
 2292 0414 3B7F     		ldrb	r3, [r7, #28]	@ zero_extendqisi2
 2293 0416 022B     		cmp	r3, #2
 2294 0418 1DD1     		bne	.L138
 563:.\Protocolo.c **** 				buffer[7]=0xE0;
 2295              		.loc 1 563 0
 2296 041a E023     		movs	r3, #224
 2297 041c FB73     		strb	r3, [r7, #15]
 564:.\Protocolo.c **** 				buffer[8]=(valor[1]|0xE0);
 2298              		.loc 1 564 0
 2299 041e 3B68     		ldr	r3, [r7]
 2300 0420 0133     		adds	r3, r3, #1
 2301 0422 1B78     		ldrb	r3, [r3]	@ zero_extendqisi2
 2302 0424 63F01F03 		orn	r3, r3, #31
 2303 0428 DBB2     		uxtb	r3, r3
 2304 042a 3B74     		strb	r3, [r7, #16]
 565:.\Protocolo.c **** 				buffer[9]=(valor[3]|0xE0);
 2305              		.loc 1 565 0
 2306 042c 3B68     		ldr	r3, [r7]
 2307 042e 0333     		adds	r3, r3, #3
 2308 0430 1B78     		ldrb	r3, [r3]	@ zero_extendqisi2
 2309 0432 63F01F03 		orn	r3, r3, #31
 2310 0436 DBB2     		uxtb	r3, r3
 2311 0438 7B74     		strb	r3, [r7, #17]
 566:.\Protocolo.c **** 				buffer[10]=(valor[4]|0xE0);
 2312              		.loc 1 566 0
 2313 043a 3B68     		ldr	r3, [r7]
 2314 043c 0433     		adds	r3, r3, #4
ARM GAS  C:\Users\RECEPC~1\AppData\Local\Temp\cc3fClzk.s 			page 53


 2315 043e 1B78     		ldrb	r3, [r3]	@ zero_extendqisi2
 2316 0440 63F01F03 		orn	r3, r3, #31
 2317 0444 DBB2     		uxtb	r3, r3
 2318 0446 BB74     		strb	r3, [r7, #18]
 567:.\Protocolo.c **** 				buffer[11]=(valor[5]|0xE0);		
 2319              		.loc 1 567 0
 2320 0448 3B68     		ldr	r3, [r7]
 2321 044a 0533     		adds	r3, r3, #5
 2322 044c 1B78     		ldrb	r3, [r3]	@ zero_extendqisi2
 2323 044e 63F01F03 		orn	r3, r3, #31
 2324 0452 DBB2     		uxtb	r3, r3
 2325 0454 FB74     		strb	r3, [r7, #19]
 2326              	.L138:
 568:.\Protocolo.c **** 			}
 569:.\Protocolo.c **** 			if(decimal==0){
 2327              		.loc 1 569 0
 2328 0456 3B7F     		ldrb	r3, [r7, #28]	@ zero_extendqisi2
 2329 0458 002B     		cmp	r3, #0
 2330 045a 18D1     		bne	.L139
 570:.\Protocolo.c **** 				buffer[7]=0xE0;
 2331              		.loc 1 570 0
 2332 045c E023     		movs	r3, #224
 2333 045e FB73     		strb	r3, [r7, #15]
 571:.\Protocolo.c **** 				buffer[8]=0xE0;
 2334              		.loc 1 571 0
 2335 0460 E023     		movs	r3, #224
 2336 0462 3B74     		strb	r3, [r7, #16]
 572:.\Protocolo.c **** 				buffer[9]=(valor[1]|0xE0);
 2337              		.loc 1 572 0
 2338 0464 3B68     		ldr	r3, [r7]
 2339 0466 0133     		adds	r3, r3, #1
 2340 0468 1B78     		ldrb	r3, [r3]	@ zero_extendqisi2
 2341 046a 63F01F03 		orn	r3, r3, #31
 2342 046e DBB2     		uxtb	r3, r3
 2343 0470 7B74     		strb	r3, [r7, #17]
 573:.\Protocolo.c **** 				buffer[10]=(valor[2]|0xE0);
 2344              		.loc 1 573 0
 2345 0472 3B68     		ldr	r3, [r7]
 2346 0474 0233     		adds	r3, r3, #2
 2347 0476 1B78     		ldrb	r3, [r3]	@ zero_extendqisi2
 2348 0478 63F01F03 		orn	r3, r3, #31
 2349 047c DBB2     		uxtb	r3, r3
 2350 047e BB74     		strb	r3, [r7, #18]
 574:.\Protocolo.c **** 				buffer[11]=(valor[3]|0xE0);		
 2351              		.loc 1 574 0
 2352 0480 3B68     		ldr	r3, [r7]
 2353 0482 0333     		adds	r3, r3, #3
 2354 0484 1B78     		ldrb	r3, [r3]	@ zero_extendqisi2
 2355 0486 63F01F03 		orn	r3, r3, #31
 2356 048a DBB2     		uxtb	r3, r3
 2357 048c FB74     		strb	r3, [r7, #19]
 2358              	.L139:
 575:.\Protocolo.c **** 			}			
 576:.\Protocolo.c **** 			buffer[12]=0xFB;
 2359              		.loc 1 576 0
 2360 048e FB23     		movs	r3, #251
 2361 0490 3B75     		strb	r3, [r7, #20]
ARM GAS  C:\Users\RECEPC~1\AppData\Local\Temp\cc3fClzk.s 			page 54


 577:.\Protocolo.c **** 			buffer[13]=0;
 2362              		.loc 1 577 0
 2363 0492 0023     		movs	r3, #0
 2364 0494 7B75     		strb	r3, [r7, #21]
 578:.\Protocolo.c **** 			for(i=0;i<=12;i++){
 2365              		.loc 1 578 0
 2366 0496 0023     		movs	r3, #0
 2367 0498 7B77     		strb	r3, [r7, #29]
 2368 049a 0FE0     		b	.L140
 2369              	.L141:
 579:.\Protocolo.c **** 				buffer[13]+=(buffer[i]&0x0F);	
 2370              		.loc 1 579 0 discriminator 2
 2371 049c 7A7D     		ldrb	r2, [r7, #21]	@ zero_extendqisi2
 2372 049e 7B7F     		ldrb	r3, [r7, #29]	@ zero_extendqisi2
 2373 04a0 07F12001 		add	r1, r7, #32
 2374 04a4 0B44     		add	r3, r3, r1
 2375 04a6 13F8183C 		ldrb	r3, [r3, #-24]	@ zero_extendqisi2
 2376 04aa 03F00F03 		and	r3, r3, #15
 2377 04ae DBB2     		uxtb	r3, r3
 2378 04b0 1344     		add	r3, r3, r2
 2379 04b2 DBB2     		uxtb	r3, r3
 2380 04b4 7B75     		strb	r3, [r7, #21]
 578:.\Protocolo.c **** 			for(i=0;i<=12;i++){
 2381              		.loc 1 578 0 discriminator 2
 2382 04b6 7B7F     		ldrb	r3, [r7, #29]	@ zero_extendqisi2
 2383 04b8 0133     		adds	r3, r3, #1
 2384 04ba 7B77     		strb	r3, [r7, #29]
 2385              	.L140:
 578:.\Protocolo.c **** 			for(i=0;i<=12;i++){
 2386              		.loc 1 578 0 is_stmt 0 discriminator 1
 2387 04bc 7B7F     		ldrb	r3, [r7, #29]	@ zero_extendqisi2
 2388 04be 0C2B     		cmp	r3, #12
 2389 04c0 ECD9     		bls	.L141
 580:.\Protocolo.c **** 			}
 581:.\Protocolo.c **** 			buffer[13]=(((~buffer[13])+1)&0x0F)|0xE0;			
 2390              		.loc 1 581 0 is_stmt 1
 2391 04c2 7B7D     		ldrb	r3, [r7, #21]	@ zero_extendqisi2
 2392 04c4 5B42     		negs	r3, r3
 2393 04c6 DBB2     		uxtb	r3, r3
 2394 04c8 DBB2     		uxtb	r3, r3
 2395 04ca 03F00F03 		and	r3, r3, #15
 2396 04ce DBB2     		uxtb	r3, r3
 2397 04d0 63F01F03 		orn	r3, r3, #31
 2398 04d4 DBB2     		uxtb	r3, r3
 2399 04d6 DBB2     		uxtb	r3, r3
 2400 04d8 7B75     		strb	r3, [r7, #21]
 582:.\Protocolo.c **** 			buffer[14]=0xF0;
 2401              		.loc 1 582 0
 2402 04da F023     		movs	r3, #240
 2403 04dc BB75     		strb	r3, [r7, #22]
 583:.\Protocolo.c **** 			size=14;
 2404              		.loc 1 583 0
 2405 04de 0E23     		movs	r3, #14
 2406 04e0 FB77     		strb	r3, [r7, #31]
 2407              	.L126:
 584:.\Protocolo.c **** 		}	
 585:.\Protocolo.c **** 	}	
ARM GAS  C:\Users\RECEPC~1\AppData\Local\Temp\cc3fClzk.s 			page 55


 586:.\Protocolo.c **** 	if(version[1]==7){
 2408              		.loc 1 586 0
 2409 04e2 A24B     		ldr	r3, .L160
 2410 04e4 5B78     		ldrb	r3, [r3, #1]
 2411 04e6 DBB2     		uxtb	r3, r3
 2412 04e8 072B     		cmp	r3, #7
 2413 04ea 40F06481 		bne	.L142
 587:.\Protocolo.c **** 		buffer[0]=0xFF;
 2414              		.loc 1 587 0
 2415 04ee FF23     		movs	r3, #255
 2416 04f0 3B72     		strb	r3, [r7, #8]
 588:.\Protocolo.c **** 		buffer[1]=(0xE0|temp);
 2417              		.loc 1 588 0
 2418 04f2 BB7F     		ldrb	r3, [r7, #30]
 2419 04f4 63F01F03 		orn	r3, r3, #31
 2420 04f8 DBB2     		uxtb	r3, r3
 2421 04fa 7B72     		strb	r3, [r7, #9]
 589:.\Protocolo.c **** 		buffer[2]=(0xF0|preset);
 2422              		.loc 1 589 0
 2423 04fc 7B79     		ldrb	r3, [r7, #5]
 2424 04fe 63F00F03 		orn	r3, r3, #15
 2425 0502 DBB2     		uxtb	r3, r3
 2426 0504 BB72     		strb	r3, [r7, #10]
 590:.\Protocolo.c **** 		buffer[3]=0xF4;
 2427              		.loc 1 590 0
 2428 0506 F423     		movs	r3, #244
 2429 0508 FB72     		strb	r3, [r7, #11]
 591:.\Protocolo.c **** 		buffer[4]=0xF8;	
 2430              		.loc 1 591 0
 2431 050a F823     		movs	r3, #248
 2432 050c 3B73     		strb	r3, [r7, #12]
 592:.\Protocolo.c **** 		buffer[5]=(valor[1]|0xE0);
 2433              		.loc 1 592 0
 2434 050e 3B68     		ldr	r3, [r7]
 2435 0510 0133     		adds	r3, r3, #1
 2436 0512 1B78     		ldrb	r3, [r3]	@ zero_extendqisi2
 2437 0514 63F01F03 		orn	r3, r3, #31
 2438 0518 DBB2     		uxtb	r3, r3
 2439 051a 7B73     		strb	r3, [r7, #13]
 593:.\Protocolo.c **** 		buffer[6]=(valor[2]|0xE0);
 2440              		.loc 1 593 0
 2441 051c 3B68     		ldr	r3, [r7]
 2442 051e 0233     		adds	r3, r3, #2
 2443 0520 1B78     		ldrb	r3, [r3]	@ zero_extendqisi2
 2444 0522 63F01F03 		orn	r3, r3, #31
 2445 0526 DBB2     		uxtb	r3, r3
 2446 0528 BB73     		strb	r3, [r7, #14]
 594:.\Protocolo.c **** 		buffer[7]=(valor[3]|0xE0);
 2447              		.loc 1 594 0
 2448 052a 3B68     		ldr	r3, [r7]
 2449 052c 0333     		adds	r3, r3, #3
 2450 052e 1B78     		ldrb	r3, [r3]	@ zero_extendqisi2
 2451 0530 63F01F03 		orn	r3, r3, #31
 2452 0534 DBB2     		uxtb	r3, r3
 2453 0536 FB73     		strb	r3, [r7, #15]
 595:.\Protocolo.c **** 		buffer[8]=(valor[4]|0xE0);
 2454              		.loc 1 595 0
ARM GAS  C:\Users\RECEPC~1\AppData\Local\Temp\cc3fClzk.s 			page 56


 2455 0538 3B68     		ldr	r3, [r7]
 2456 053a 0433     		adds	r3, r3, #4
 2457 053c 1B78     		ldrb	r3, [r3]	@ zero_extendqisi2
 2458 053e 63F01F03 		orn	r3, r3, #31
 2459 0542 DBB2     		uxtb	r3, r3
 2460 0544 3B74     		strb	r3, [r7, #16]
 596:.\Protocolo.c **** 		buffer[9]=(valor[5]|0xE0);
 2461              		.loc 1 596 0
 2462 0546 3B68     		ldr	r3, [r7]
 2463 0548 0533     		adds	r3, r3, #5
 2464 054a 1B78     		ldrb	r3, [r3]	@ zero_extendqisi2
 2465 054c 63F01F03 		orn	r3, r3, #31
 2466 0550 DBB2     		uxtb	r3, r3
 2467 0552 7B74     		strb	r3, [r7, #17]
 597:.\Protocolo.c **** 		buffer[10]=(valor[6]|0xE0);	
 2468              		.loc 1 597 0
 2469 0554 3B68     		ldr	r3, [r7]
 2470 0556 0633     		adds	r3, r3, #6
 2471 0558 1B78     		ldrb	r3, [r3]	@ zero_extendqisi2
 2472 055a 63F01F03 		orn	r3, r3, #31
 2473 055e DBB2     		uxtb	r3, r3
 2474 0560 BB74     		strb	r3, [r7, #18]
 598:.\Protocolo.c **** 		buffer[11]=(valor[7]|0xE0);
 2475              		.loc 1 598 0
 2476 0562 3B68     		ldr	r3, [r7]
 2477 0564 0733     		adds	r3, r3, #7
 2478 0566 1B78     		ldrb	r3, [r3]	@ zero_extendqisi2
 2479 0568 63F01F03 		orn	r3, r3, #31
 2480 056c DBB2     		uxtb	r3, r3
 2481 056e FB74     		strb	r3, [r7, #19]
 599:.\Protocolo.c **** 		buffer[12]=0xE0;
 2482              		.loc 1 599 0
 2483 0570 E023     		movs	r3, #224
 2484 0572 3B75     		strb	r3, [r7, #20]
 600:.\Protocolo.c **** 		buffer[13]=0xFB;
 2485              		.loc 1 600 0
 2486 0574 FB23     		movs	r3, #251
 2487 0576 7B75     		strb	r3, [r7, #21]
 601:.\Protocolo.c **** 		buffer[14]=0;
 2488              		.loc 1 601 0
 2489 0578 0023     		movs	r3, #0
 2490 057a BB75     		strb	r3, [r7, #22]
 602:.\Protocolo.c **** 		for(i=0;i<=13;i++){
 2491              		.loc 1 602 0
 2492 057c 0023     		movs	r3, #0
 2493 057e 7B77     		strb	r3, [r7, #29]
 2494 0580 0FE0     		b	.L143
 2495              	.L144:
 603:.\Protocolo.c **** 			buffer[14]+=(buffer[i]&0x0F);	
 2496              		.loc 1 603 0 discriminator 2
 2497 0582 BA7D     		ldrb	r2, [r7, #22]	@ zero_extendqisi2
 2498 0584 7B7F     		ldrb	r3, [r7, #29]	@ zero_extendqisi2
 2499 0586 07F12001 		add	r1, r7, #32
 2500 058a 0B44     		add	r3, r3, r1
 2501 058c 13F8183C 		ldrb	r3, [r3, #-24]	@ zero_extendqisi2
 2502 0590 03F00F03 		and	r3, r3, #15
 2503 0594 DBB2     		uxtb	r3, r3
ARM GAS  C:\Users\RECEPC~1\AppData\Local\Temp\cc3fClzk.s 			page 57


 2504 0596 1344     		add	r3, r3, r2
 2505 0598 DBB2     		uxtb	r3, r3
 2506 059a BB75     		strb	r3, [r7, #22]
 602:.\Protocolo.c **** 		for(i=0;i<=13;i++){
 2507              		.loc 1 602 0 discriminator 2
 2508 059c 7B7F     		ldrb	r3, [r7, #29]	@ zero_extendqisi2
 2509 059e 0133     		adds	r3, r3, #1
 2510 05a0 7B77     		strb	r3, [r7, #29]
 2511              	.L143:
 602:.\Protocolo.c **** 		for(i=0;i<=13;i++){
 2512              		.loc 1 602 0 is_stmt 0 discriminator 1
 2513 05a2 7B7F     		ldrb	r3, [r7, #29]	@ zero_extendqisi2
 2514 05a4 0D2B     		cmp	r3, #13
 2515 05a6 ECD9     		bls	.L144
 604:.\Protocolo.c **** 		}
 605:.\Protocolo.c **** 		buffer[14]=(((~buffer[14])+1)&0x0F)|0xE0;
 2516              		.loc 1 605 0 is_stmt 1
 2517 05a8 BB7D     		ldrb	r3, [r7, #22]	@ zero_extendqisi2
 2518 05aa 5B42     		negs	r3, r3
 2519 05ac DBB2     		uxtb	r3, r3
 2520 05ae DBB2     		uxtb	r3, r3
 2521 05b0 03F00F03 		and	r3, r3, #15
 2522 05b4 DBB2     		uxtb	r3, r3
 2523 05b6 63F01F03 		orn	r3, r3, #31
 2524 05ba DBB2     		uxtb	r3, r3
 2525 05bc DBB2     		uxtb	r3, r3
 2526 05be BB75     		strb	r3, [r7, #22]
 606:.\Protocolo.c **** 		buffer[15]=0xF0;
 2527              		.loc 1 606 0
 2528 05c0 F023     		movs	r3, #240
 2529 05c2 FB75     		strb	r3, [r7, #23]
 607:.\Protocolo.c **** 		size=15;
 2530              		.loc 1 607 0
 2531 05c4 0F23     		movs	r3, #15
 2532 05c6 FB77     		strb	r3, [r7, #31]
 608:.\Protocolo.c **** 		if(preset==1){
 2533              		.loc 1 608 0
 2534 05c8 7B79     		ldrb	r3, [r7, #5]	@ zero_extendqisi2
 2535 05ca 012B     		cmp	r3, #1
 2536 05cc 40F0F380 		bne	.L142
 609:.\Protocolo.c **** 			buffer[4]=0xF6;
 2537              		.loc 1 609 0
 2538 05d0 F623     		movs	r3, #246
 2539 05d2 3B73     		strb	r3, [r7, #12]
 610:.\Protocolo.c **** 			buffer[5]=(0xE0|(grado-1));
 2540              		.loc 1 610 0
 2541 05d4 BB79     		ldrb	r3, [r7, #6]
 2542 05d6 013B     		subs	r3, r3, #1
 2543 05d8 DBB2     		uxtb	r3, r3
 2544 05da DBB2     		uxtb	r3, r3
 2545 05dc 63F01F03 		orn	r3, r3, #31
 2546 05e0 DBB2     		uxtb	r3, r3
 2547 05e2 DBB2     		uxtb	r3, r3
 2548 05e4 7B73     		strb	r3, [r7, #13]
 611:.\Protocolo.c **** 			buffer[6]=0xF8;
 2549              		.loc 1 611 0
 2550 05e6 F823     		movs	r3, #248
ARM GAS  C:\Users\RECEPC~1\AppData\Local\Temp\cc3fClzk.s 			page 58


 2551 05e8 BB73     		strb	r3, [r7, #14]
 612:.\Protocolo.c **** 			if(decimal==4){
 2552              		.loc 1 612 0
 2553 05ea 3B7F     		ldrb	r3, [r7, #28]	@ zero_extendqisi2
 2554 05ec 042B     		cmp	r3, #4
 2555 05ee 2DD1     		bne	.L145
 613:.\Protocolo.c **** 				buffer[7]=(valor[1]|0xE0);
 2556              		.loc 1 613 0
 2557 05f0 3B68     		ldr	r3, [r7]
 2558 05f2 0133     		adds	r3, r3, #1
 2559 05f4 1B78     		ldrb	r3, [r3]	@ zero_extendqisi2
 2560 05f6 63F01F03 		orn	r3, r3, #31
 2561 05fa DBB2     		uxtb	r3, r3
 2562 05fc FB73     		strb	r3, [r7, #15]
 614:.\Protocolo.c **** 				buffer[8]=(valor[2]|0xE0);
 2563              		.loc 1 614 0
 2564 05fe 3B68     		ldr	r3, [r7]
 2565 0600 0233     		adds	r3, r3, #2
 2566 0602 1B78     		ldrb	r3, [r3]	@ zero_extendqisi2
 2567 0604 63F01F03 		orn	r3, r3, #31
 2568 0608 DBB2     		uxtb	r3, r3
 2569 060a 3B74     		strb	r3, [r7, #16]
 615:.\Protocolo.c **** 				buffer[9]=(valor[3]|0xE0);
 2570              		.loc 1 615 0
 2571 060c 3B68     		ldr	r3, [r7]
 2572 060e 0333     		adds	r3, r3, #3
 2573 0610 1B78     		ldrb	r3, [r3]	@ zero_extendqisi2
 2574 0612 63F01F03 		orn	r3, r3, #31
 2575 0616 DBB2     		uxtb	r3, r3
 2576 0618 7B74     		strb	r3, [r7, #17]
 616:.\Protocolo.c **** 				buffer[10]=(valor[5]|0xE0);
 2577              		.loc 1 616 0
 2578 061a 3B68     		ldr	r3, [r7]
 2579 061c 0533     		adds	r3, r3, #5
 2580 061e 1B78     		ldrb	r3, [r3]	@ zero_extendqisi2
 2581 0620 63F01F03 		orn	r3, r3, #31
 2582 0624 DBB2     		uxtb	r3, r3
 2583 0626 BB74     		strb	r3, [r7, #18]
 617:.\Protocolo.c **** 				buffer[11]=(valor[6]|0xE0);
 2584              		.loc 1 617 0
 2585 0628 3B68     		ldr	r3, [r7]
 2586 062a 0633     		adds	r3, r3, #6
 2587 062c 1B78     		ldrb	r3, [r3]	@ zero_extendqisi2
 2588 062e 63F01F03 		orn	r3, r3, #31
 2589 0632 DBB2     		uxtb	r3, r3
 2590 0634 FB74     		strb	r3, [r7, #19]
 618:.\Protocolo.c **** 				buffer[12]=(valor[7]|0xE0);	
 2591              		.loc 1 618 0
 2592 0636 3B68     		ldr	r3, [r7]
 2593 0638 0733     		adds	r3, r3, #7
 2594 063a 1B78     		ldrb	r3, [r3]	@ zero_extendqisi2
 2595 063c 63F01F03 		orn	r3, r3, #31
 2596 0640 DBB2     		uxtb	r3, r3
 2597 0642 3B75     		strb	r3, [r7, #20]
 619:.\Protocolo.c **** 				buffer[13]=0xE0;	
 2598              		.loc 1 619 0
 2599 0644 E023     		movs	r3, #224
ARM GAS  C:\Users\RECEPC~1\AppData\Local\Temp\cc3fClzk.s 			page 59


 2600 0646 7B75     		strb	r3, [r7, #21]
 620:.\Protocolo.c **** 				buffer[14]=0xE0;
 2601              		.loc 1 620 0
 2602 0648 E023     		movs	r3, #224
 2603 064a BB75     		strb	r3, [r7, #22]
 2604              	.L145:
 621:.\Protocolo.c **** 			}
 622:.\Protocolo.c **** 			if(decimal==3){
 2605              		.loc 1 622 0
 2606 064c 3B7F     		ldrb	r3, [r7, #28]	@ zero_extendqisi2
 2607 064e 032B     		cmp	r3, #3
 2608 0650 2DD1     		bne	.L146
 623:.\Protocolo.c **** 				buffer[7]=0xE0;
 2609              		.loc 1 623 0
 2610 0652 E023     		movs	r3, #224
 2611 0654 FB73     		strb	r3, [r7, #15]
 624:.\Protocolo.c **** 				buffer[8]=(valor[1]|0xE0);
 2612              		.loc 1 624 0
 2613 0656 3B68     		ldr	r3, [r7]
 2614 0658 0133     		adds	r3, r3, #1
 2615 065a 1B78     		ldrb	r3, [r3]	@ zero_extendqisi2
 2616 065c 63F01F03 		orn	r3, r3, #31
 2617 0660 DBB2     		uxtb	r3, r3
 2618 0662 3B74     		strb	r3, [r7, #16]
 625:.\Protocolo.c **** 				buffer[9]=(valor[2]|0xE0);
 2619              		.loc 1 625 0
 2620 0664 3B68     		ldr	r3, [r7]
 2621 0666 0233     		adds	r3, r3, #2
 2622 0668 1B78     		ldrb	r3, [r3]	@ zero_extendqisi2
 2623 066a 63F01F03 		orn	r3, r3, #31
 2624 066e DBB2     		uxtb	r3, r3
 2625 0670 7B74     		strb	r3, [r7, #17]
 626:.\Protocolo.c **** 				buffer[10]=(valor[4]|0xE0);
 2626              		.loc 1 626 0
 2627 0672 3B68     		ldr	r3, [r7]
 2628 0674 0433     		adds	r3, r3, #4
 2629 0676 1B78     		ldrb	r3, [r3]	@ zero_extendqisi2
 2630 0678 63F01F03 		orn	r3, r3, #31
 2631 067c DBB2     		uxtb	r3, r3
 2632 067e BB74     		strb	r3, [r7, #18]
 627:.\Protocolo.c **** 				buffer[11]=(valor[5]|0xE0);
 2633              		.loc 1 627 0
 2634 0680 3B68     		ldr	r3, [r7]
 2635 0682 0533     		adds	r3, r3, #5
 2636 0684 1B78     		ldrb	r3, [r3]	@ zero_extendqisi2
 2637 0686 63F01F03 		orn	r3, r3, #31
 2638 068a DBB2     		uxtb	r3, r3
 2639 068c FB74     		strb	r3, [r7, #19]
 628:.\Protocolo.c **** 				buffer[12]=(valor[6]|0xE0);
 2640              		.loc 1 628 0
 2641 068e 3B68     		ldr	r3, [r7]
 2642 0690 0633     		adds	r3, r3, #6
 2643 0692 1B78     		ldrb	r3, [r3]	@ zero_extendqisi2
 2644 0694 63F01F03 		orn	r3, r3, #31
 2645 0698 DBB2     		uxtb	r3, r3
 2646 069a 3B75     		strb	r3, [r7, #20]
 629:.\Protocolo.c **** 				buffer[13]=(valor[7]|0xE0);	
ARM GAS  C:\Users\RECEPC~1\AppData\Local\Temp\cc3fClzk.s 			page 60


 2647              		.loc 1 629 0
 2648 069c 3B68     		ldr	r3, [r7]
 2649 069e 0733     		adds	r3, r3, #7
 2650 06a0 1B78     		ldrb	r3, [r3]	@ zero_extendqisi2
 2651 06a2 63F01F03 		orn	r3, r3, #31
 2652 06a6 DBB2     		uxtb	r3, r3
 2653 06a8 7B75     		strb	r3, [r7, #21]
 630:.\Protocolo.c **** 				buffer[14]=0xE0;	
 2654              		.loc 1 630 0
 2655 06aa E023     		movs	r3, #224
 2656 06ac BB75     		strb	r3, [r7, #22]
 2657              	.L146:
 631:.\Protocolo.c **** 			}
 632:.\Protocolo.c **** 			if(decimal==2){
 2658              		.loc 1 632 0
 2659 06ae 3B7F     		ldrb	r3, [r7, #28]	@ zero_extendqisi2
 2660 06b0 022B     		cmp	r3, #2
 2661 06b2 2DD1     		bne	.L147
 633:.\Protocolo.c **** 				buffer[7]=0xE0;
 2662              		.loc 1 633 0
 2663 06b4 E023     		movs	r3, #224
 2664 06b6 FB73     		strb	r3, [r7, #15]
 634:.\Protocolo.c **** 				buffer[8]=0xE0;
 2665              		.loc 1 634 0
 2666 06b8 E023     		movs	r3, #224
 2667 06ba 3B74     		strb	r3, [r7, #16]
 635:.\Protocolo.c **** 				buffer[9]=(valor[1]|0xE0);
 2668              		.loc 1 635 0
 2669 06bc 3B68     		ldr	r3, [r7]
 2670 06be 0133     		adds	r3, r3, #1
 2671 06c0 1B78     		ldrb	r3, [r3]	@ zero_extendqisi2
 2672 06c2 63F01F03 		orn	r3, r3, #31
 2673 06c6 DBB2     		uxtb	r3, r3
 2674 06c8 7B74     		strb	r3, [r7, #17]
 636:.\Protocolo.c **** 				buffer[10]=(valor[3]|0xE0);
 2675              		.loc 1 636 0
 2676 06ca 3B68     		ldr	r3, [r7]
 2677 06cc 0333     		adds	r3, r3, #3
 2678 06ce 1B78     		ldrb	r3, [r3]	@ zero_extendqisi2
 2679 06d0 63F01F03 		orn	r3, r3, #31
 2680 06d4 DBB2     		uxtb	r3, r3
 2681 06d6 BB74     		strb	r3, [r7, #18]
 637:.\Protocolo.c **** 				buffer[11]=(valor[4]|0xE0);
 2682              		.loc 1 637 0
 2683 06d8 3B68     		ldr	r3, [r7]
 2684 06da 0433     		adds	r3, r3, #4
 2685 06dc 1B78     		ldrb	r3, [r3]	@ zero_extendqisi2
 2686 06de 63F01F03 		orn	r3, r3, #31
 2687 06e2 DBB2     		uxtb	r3, r3
 2688 06e4 FB74     		strb	r3, [r7, #19]
 638:.\Protocolo.c **** 				buffer[12]=(valor[5]|0xE0);
 2689              		.loc 1 638 0
 2690 06e6 3B68     		ldr	r3, [r7]
 2691 06e8 0533     		adds	r3, r3, #5
 2692 06ea 1B78     		ldrb	r3, [r3]	@ zero_extendqisi2
 2693 06ec 63F01F03 		orn	r3, r3, #31
 2694 06f0 DBB2     		uxtb	r3, r3
ARM GAS  C:\Users\RECEPC~1\AppData\Local\Temp\cc3fClzk.s 			page 61


 2695 06f2 3B75     		strb	r3, [r7, #20]
 639:.\Protocolo.c **** 				buffer[13]=(valor[6]|0xE0);	
 2696              		.loc 1 639 0
 2697 06f4 3B68     		ldr	r3, [r7]
 2698 06f6 0633     		adds	r3, r3, #6
 2699 06f8 1B78     		ldrb	r3, [r3]	@ zero_extendqisi2
 2700 06fa 63F01F03 		orn	r3, r3, #31
 2701 06fe DBB2     		uxtb	r3, r3
 2702 0700 7B75     		strb	r3, [r7, #21]
 640:.\Protocolo.c **** 				buffer[14]=(valor[7]|0xE0);	
 2703              		.loc 1 640 0
 2704 0702 3B68     		ldr	r3, [r7]
 2705 0704 0733     		adds	r3, r3, #7
 2706 0706 1B78     		ldrb	r3, [r3]	@ zero_extendqisi2
 2707 0708 63F01F03 		orn	r3, r3, #31
 2708 070c DBB2     		uxtb	r3, r3
 2709 070e BB75     		strb	r3, [r7, #22]
 2710              	.L147:
 641:.\Protocolo.c **** 			}
 642:.\Protocolo.c **** 			if(decimal==0){
 2711              		.loc 1 642 0
 2712 0710 3B7F     		ldrb	r3, [r7, #28]	@ zero_extendqisi2
 2713 0712 002B     		cmp	r3, #0
 2714 0714 23D1     		bne	.L148
 643:.\Protocolo.c **** 				buffer[7]=0xE0;
 2715              		.loc 1 643 0
 2716 0716 E023     		movs	r3, #224
 2717 0718 FB73     		strb	r3, [r7, #15]
 644:.\Protocolo.c **** 				buffer[8]=0xE0;
 2718              		.loc 1 644 0
 2719 071a E023     		movs	r3, #224
 2720 071c 3B74     		strb	r3, [r7, #16]
 645:.\Protocolo.c **** 				buffer[9]=0xE0;
 2721              		.loc 1 645 0
 2722 071e E023     		movs	r3, #224
 2723 0720 7B74     		strb	r3, [r7, #17]
 646:.\Protocolo.c **** 				buffer[10]=(valor[1]|0xE0);
 2724              		.loc 1 646 0
 2725 0722 3B68     		ldr	r3, [r7]
 2726 0724 0133     		adds	r3, r3, #1
 2727 0726 1B78     		ldrb	r3, [r3]	@ zero_extendqisi2
 2728 0728 63F01F03 		orn	r3, r3, #31
 2729 072c DBB2     		uxtb	r3, r3
 2730 072e BB74     		strb	r3, [r7, #18]
 647:.\Protocolo.c **** 				buffer[11]=(valor[2]|0xE0);
 2731              		.loc 1 647 0
 2732 0730 3B68     		ldr	r3, [r7]
 2733 0732 0233     		adds	r3, r3, #2
 2734 0734 1B78     		ldrb	r3, [r3]	@ zero_extendqisi2
 2735 0736 63F01F03 		orn	r3, r3, #31
 2736 073a DBB2     		uxtb	r3, r3
 2737 073c FB74     		strb	r3, [r7, #19]
 648:.\Protocolo.c **** 				buffer[12]=(valor[3]|0xE0);
 2738              		.loc 1 648 0
 2739 073e 3B68     		ldr	r3, [r7]
 2740 0740 0333     		adds	r3, r3, #3
 2741 0742 1B78     		ldrb	r3, [r3]	@ zero_extendqisi2
ARM GAS  C:\Users\RECEPC~1\AppData\Local\Temp\cc3fClzk.s 			page 62


 2742 0744 63F01F03 		orn	r3, r3, #31
 2743 0748 DBB2     		uxtb	r3, r3
 2744 074a 3B75     		strb	r3, [r7, #20]
 649:.\Protocolo.c **** 				buffer[13]=(valor[4]|0xE0);	
 2745              		.loc 1 649 0
 2746 074c 3B68     		ldr	r3, [r7]
 2747 074e 0433     		adds	r3, r3, #4
 2748 0750 1B78     		ldrb	r3, [r3]	@ zero_extendqisi2
 2749 0752 63F01F03 		orn	r3, r3, #31
 2750 0756 DBB2     		uxtb	r3, r3
 2751 0758 7B75     		strb	r3, [r7, #21]
 650:.\Protocolo.c **** 				buffer[14]=0xE0;	
 2752              		.loc 1 650 0
 2753 075a E023     		movs	r3, #224
 2754 075c BB75     		strb	r3, [r7, #22]
 2755              	.L148:
 651:.\Protocolo.c **** 			}			
 652:.\Protocolo.c **** 			buffer[15]=0xFB;
 2756              		.loc 1 652 0
 2757 075e FB23     		movs	r3, #251
 2758 0760 FB75     		strb	r3, [r7, #23]
 653:.\Protocolo.c **** 			buffer[16]=0;
 2759              		.loc 1 653 0
 2760 0762 0023     		movs	r3, #0
 2761 0764 3B76     		strb	r3, [r7, #24]
 654:.\Protocolo.c **** 			for(i=0;i<=15;i++){
 2762              		.loc 1 654 0
 2763 0766 0023     		movs	r3, #0
 2764 0768 7B77     		strb	r3, [r7, #29]
 2765 076a 11E0     		b	.L149
 2766              	.L161:
 2767              		.align	2
 2768              	.L160:
 2769 076c 00000000 		.word	version
 2770              	.L150:
 655:.\Protocolo.c **** 				buffer[16]+=(buffer[i]&0x0F);	
 2771              		.loc 1 655 0 discriminator 2
 2772 0770 3A7E     		ldrb	r2, [r7, #24]	@ zero_extendqisi2
 2773 0772 7B7F     		ldrb	r3, [r7, #29]	@ zero_extendqisi2
 2774 0774 07F12001 		add	r1, r7, #32
 2775 0778 0B44     		add	r3, r3, r1
 2776 077a 13F8183C 		ldrb	r3, [r3, #-24]	@ zero_extendqisi2
 2777 077e 03F00F03 		and	r3, r3, #15
 2778 0782 DBB2     		uxtb	r3, r3
 2779 0784 1344     		add	r3, r3, r2
 2780 0786 DBB2     		uxtb	r3, r3
 2781 0788 3B76     		strb	r3, [r7, #24]
 654:.\Protocolo.c **** 			for(i=0;i<=15;i++){
 2782              		.loc 1 654 0 discriminator 2
 2783 078a 7B7F     		ldrb	r3, [r7, #29]	@ zero_extendqisi2
 2784 078c 0133     		adds	r3, r3, #1
 2785 078e 7B77     		strb	r3, [r7, #29]
 2786              	.L149:
 654:.\Protocolo.c **** 			for(i=0;i<=15;i++){
 2787              		.loc 1 654 0 is_stmt 0 discriminator 1
 2788 0790 7B7F     		ldrb	r3, [r7, #29]	@ zero_extendqisi2
 2789 0792 0F2B     		cmp	r3, #15
ARM GAS  C:\Users\RECEPC~1\AppData\Local\Temp\cc3fClzk.s 			page 63


 2790 0794 ECD9     		bls	.L150
 656:.\Protocolo.c **** 			}
 657:.\Protocolo.c **** 			buffer[16]=(((~buffer[16])+1)&0x0F)|0xE0;			
 2791              		.loc 1 657 0 is_stmt 1
 2792 0796 3B7E     		ldrb	r3, [r7, #24]	@ zero_extendqisi2
 2793 0798 5B42     		negs	r3, r3
 2794 079a DBB2     		uxtb	r3, r3
 2795 079c DBB2     		uxtb	r3, r3
 2796 079e 03F00F03 		and	r3, r3, #15
 2797 07a2 DBB2     		uxtb	r3, r3
 2798 07a4 63F01F03 		orn	r3, r3, #31
 2799 07a8 DBB2     		uxtb	r3, r3
 2800 07aa DBB2     		uxtb	r3, r3
 2801 07ac 3B76     		strb	r3, [r7, #24]
 658:.\Protocolo.c **** 			buffer[17]=0xF0;
 2802              		.loc 1 658 0
 2803 07ae F023     		movs	r3, #240
 2804 07b0 7B76     		strb	r3, [r7, #25]
 659:.\Protocolo.c **** 			size=17;
 2805              		.loc 1 659 0
 2806 07b2 1123     		movs	r3, #17
 2807 07b4 FB77     		strb	r3, [r7, #31]
 2808              	.L142:
 660:.\Protocolo.c **** 		}		
 661:.\Protocolo.c **** 	}
 662:.\Protocolo.c **** 	Surtidor_ClearRxBuffer();
 2809              		.loc 1 662 0
 2810 07b6 FFF7FEFF 		bl	Surtidor_ClearRxBuffer
 663:.\Protocolo.c **** 	Surtidor_PutChar(0x20|dir);
 2811              		.loc 1 663 0
 2812 07ba FB79     		ldrb	r3, [r7, #7]
 2813 07bc 43F02003 		orr	r3, r3, #32
 2814 07c0 DBB2     		uxtb	r3, r3
 2815 07c2 1846     		mov	r0, r3
 2816 07c4 FFF7FEFF 		bl	Surtidor_PutChar
 664:.\Protocolo.c **** 	isr_1_StartEx(Rx_Surtidor);
 2817              		.loc 1 664 0
 2818 07c8 2A48     		ldr	r0, .L162
 2819 07ca FFF7FEFF 		bl	isr_1_StartEx
 665:.\Protocolo.c ****     Timer_RxSurtidor_Start();	
 2820              		.loc 1 665 0
 2821 07ce FFF7FEFF 		bl	Timer_RxSurtidor_Start
 666:.\Protocolo.c ****     rx_timeout=0;
 2822              		.loc 1 666 0
 2823 07d2 294B     		ldr	r3, .L162+4
 2824 07d4 0022     		movs	r2, #0
 2825 07d6 1A70     		strb	r2, [r3]
 667:.\Protocolo.c ****     CyDelay(10);
 2826              		.loc 1 667 0
 2827 07d8 0A20     		movs	r0, #10
 2828 07da FFF7FEFF 		bl	CyDelay
 668:.\Protocolo.c **** 	while(Surtidor_GetRxBufferSize()==0){
 2829              		.loc 1 668 0
 2830 07de 0BE0     		b	.L151
 2831              	.L152:
 669:.\Protocolo.c **** 		if(rx_timeout==1){
 2832              		.loc 1 669 0
ARM GAS  C:\Users\RECEPC~1\AppData\Local\Temp\cc3fClzk.s 			page 64


 2833 07e0 254B     		ldr	r3, .L162+4
 2834 07e2 1B78     		ldrb	r3, [r3]	@ zero_extendqisi2
 2835 07e4 012B     		cmp	r3, #1
 2836 07e6 07D1     		bne	.L151
 670:.\Protocolo.c **** 			isr_1_Stop();
 2837              		.loc 1 670 0
 2838 07e8 FFF7FEFF 		bl	isr_1_Stop
 671:.\Protocolo.c **** 			Timer_RxSurtidor_Stop();
 2839              		.loc 1 671 0
 2840 07ec FFF7FEFF 		bl	Timer_RxSurtidor_Stop
 672:.\Protocolo.c ****     		Surtidor_ClearRxBuffer();			
 2841              		.loc 1 672 0
 2842 07f0 FFF7FEFF 		bl	Surtidor_ClearRxBuffer
 673:.\Protocolo.c **** 			return 0;
 2843              		.loc 1 673 0
 2844 07f4 0023     		movs	r3, #0
 2845 07f6 39E0     		b	.L157
 2846              	.L151:
 668:.\Protocolo.c **** 	while(Surtidor_GetRxBufferSize()==0){
 2847              		.loc 1 668 0 discriminator 1
 2848 07f8 FFF7FEFF 		bl	Surtidor_GetRxBufferSize
 2849 07fc 0346     		mov	r3, r0
 2850 07fe 002B     		cmp	r3, #0
 2851 0800 EED0     		beq	.L152
 674:.\Protocolo.c **** 		}
 675:.\Protocolo.c **** 	}
 676:.\Protocolo.c **** 	isr_1_Stop();
 2852              		.loc 1 676 0
 2853 0802 FFF7FEFF 		bl	isr_1_Stop
 677:.\Protocolo.c **** 	Timer_RxSurtidor_Stop();	
 2854              		.loc 1 677 0
 2855 0806 FFF7FEFF 		bl	Timer_RxSurtidor_Stop
 678:.\Protocolo.c **** 	if(Surtidor_ReadRxData()==(0xD0|dir)){
 2856              		.loc 1 678 0
 2857 080a FFF7FEFF 		bl	Surtidor_ReadRxData
 2858 080e 0346     		mov	r3, r0
 2859 0810 1A46     		mov	r2, r3
 2860 0812 FB79     		ldrb	r3, [r7, #7]
 2861 0814 63F02F03 		orn	r3, r3, #47
 2862 0818 DBB2     		uxtb	r3, r3
 2863 081a 9A42     		cmp	r2, r3
 2864 081c 25D1     		bne	.L153
 679:.\Protocolo.c ****         Surtidor_ClearRxBuffer();
 2865              		.loc 1 679 0
 2866 081e FFF7FEFF 		bl	Surtidor_ClearRxBuffer
 680:.\Protocolo.c **** 		CyDelay(10);
 2867              		.loc 1 680 0
 2868 0822 0A20     		movs	r0, #10
 2869 0824 FFF7FEFF 		bl	CyDelay
 681:.\Protocolo.c ****         for(i=0;i<=size;i++){
 2870              		.loc 1 681 0
 2871 0828 0023     		movs	r3, #0
 2872 082a 7B77     		strb	r3, [r7, #29]
 2873 082c 0BE0     		b	.L154
 2874              	.L155:
 682:.\Protocolo.c ****            	Surtidor_PutChar(buffer[i]);
 2875              		.loc 1 682 0 discriminator 2
ARM GAS  C:\Users\RECEPC~1\AppData\Local\Temp\cc3fClzk.s 			page 65


 2876 082e 7B7F     		ldrb	r3, [r7, #29]	@ zero_extendqisi2
 2877 0830 07F12002 		add	r2, r7, #32
 2878 0834 1344     		add	r3, r3, r2
 2879 0836 13F8183C 		ldrb	r3, [r3, #-24]	@ zero_extendqisi2
 2880 083a 1846     		mov	r0, r3
 2881 083c FFF7FEFF 		bl	Surtidor_PutChar
 681:.\Protocolo.c ****         for(i=0;i<=size;i++){
 2882              		.loc 1 681 0 discriminator 2
 2883 0840 7B7F     		ldrb	r3, [r7, #29]	@ zero_extendqisi2
 2884 0842 0133     		adds	r3, r3, #1
 2885 0844 7B77     		strb	r3, [r7, #29]
 2886              	.L154:
 681:.\Protocolo.c ****         for(i=0;i<=size;i++){
 2887              		.loc 1 681 0 is_stmt 0 discriminator 1
 2888 0846 7A7F     		ldrb	r2, [r7, #29]	@ zero_extendqisi2
 2889 0848 FB7F     		ldrb	r3, [r7, #31]	@ zero_extendqisi2
 2890 084a 9A42     		cmp	r2, r3
 2891 084c EFD9     		bls	.L155
 683:.\Protocolo.c ****         }
 684:.\Protocolo.c **** 		CyDelay(50);		
 2892              		.loc 1 684 0 is_stmt 1
 2893 084e 3220     		movs	r0, #50
 2894 0850 FFF7FEFF 		bl	CyDelay
 685:.\Protocolo.c **** 		if(get_estado(dir)==0){
 2895              		.loc 1 685 0
 2896 0854 FB79     		ldrb	r3, [r7, #7]	@ zero_extendqisi2
 2897 0856 1846     		mov	r0, r3
 2898 0858 FFF7FEFF 		bl	get_estado
 2899 085c 0346     		mov	r3, r0
 2900 085e 002B     		cmp	r3, #0
 2901 0860 01D1     		bne	.L156
 686:.\Protocolo.c **** 			return 0;
 2902              		.loc 1 686 0
 2903 0862 0023     		movs	r3, #0
 2904 0864 02E0     		b	.L157
 2905              	.L156:
 687:.\Protocolo.c **** 		}
 688:.\Protocolo.c **** 		else{
 689:.\Protocolo.c **** 			return 1;
 2906              		.loc 1 689 0
 2907 0866 0123     		movs	r3, #1
 2908 0868 00E0     		b	.L157
 2909              	.L153:
 690:.\Protocolo.c **** 		}
 691:.\Protocolo.c **** 	}
 692:.\Protocolo.c **** 	else{
 693:.\Protocolo.c **** 		return 0;
 2910              		.loc 1 693 0
 2911 086a 0023     		movs	r3, #0
 2912              	.L157:
 694:.\Protocolo.c **** 	}
 695:.\Protocolo.c **** }
 2913              		.loc 1 695 0
 2914 086c 1846     		mov	r0, r3
 2915 086e 2037     		adds	r7, r7, #32
 2916 0870 BD46     		mov	sp, r7
 2917              		@ sp needed
ARM GAS  C:\Users\RECEPC~1\AppData\Local\Temp\cc3fClzk.s 			page 66


 2918 0872 80BD     		pop	{r7, pc}
 2919              	.L163:
 2920              		.align	2
 2921              	.L162:
 2922 0874 00000000 		.word	Rx_Surtidor
 2923 0878 00000000 		.word	rx_timeout
 2924              		.cfi_endproc
 2925              	.LFE70:
 2926              		.size	programar, .-programar
 2927              		.section	.text.cambiar_precio,"ax",%progbits
 2928              		.align	2
 2929              		.global	cambiar_precio
 2930              		.thumb
 2931              		.thumb_func
 2932              		.type	cambiar_precio, %function
 2933              	cambiar_precio:
 2934              	.LFB71:
 696:.\Protocolo.c **** 
 697:.\Protocolo.c **** /*
 698:.\Protocolo.c **** ***************************************************************************************************
 699:.\Protocolo.c **** *                           cambiar_precio(uint8 dir, uint8 *precio, uint8 num_man)
 700:.\Protocolo.c **** *
 701:.\Protocolo.c **** * Description : 
 702:.\Protocolo.c **** *               
 703:.\Protocolo.c **** *
 704:.\Protocolo.c **** * Argument(s) : none
 705:.\Protocolo.c **** *
 706:.\Protocolo.c **** * Return(s)   : none
 707:.\Protocolo.c **** *
 708:.\Protocolo.c **** * Caller(s)   : 
 709:.\Protocolo.c **** *
 710:.\Protocolo.c **** * Note(s)     : none.
 711:.\Protocolo.c **** ***************************************************************************************************
 712:.\Protocolo.c **** */
 713:.\Protocolo.c **** uint8 cambiar_precio(uint8 dir, uint8 *precio, uint8 num_man){
 2935              		.loc 1 713 0
 2936              		.cfi_startproc
 2937              		@ args = 0, pretend = 0, frame = 32
 2938              		@ frame_needed = 1, uses_anonymous_args = 0
 2939 0000 80B5     		push	{r7, lr}
 2940              		.cfi_def_cfa_offset 8
 2941              		.cfi_offset 7, -8
 2942              		.cfi_offset 14, -4
 2943 0002 88B0     		sub	sp, sp, #32
 2944              		.cfi_def_cfa_offset 40
 2945 0004 00AF     		add	r7, sp, #0
 2946              		.cfi_def_cfa_register 7
 2947 0006 3960     		str	r1, [r7]
 2948 0008 1346     		mov	r3, r2
 2949 000a 0246     		mov	r2, r0
 2950 000c FA71     		strb	r2, [r7, #7]
 2951 000e BB71     		strb	r3, [r7, #6]
 714:.\Protocolo.c **** 	uint8 buffer[15]={0,0,0,0,0,0,0,0,0,0,0,0,0,0,0},size,x;
 2952              		.loc 1 714 0
 2953 0010 0023     		movs	r3, #0
 2954 0012 3B73     		strb	r3, [r7, #12]
 2955 0014 0023     		movs	r3, #0
ARM GAS  C:\Users\RECEPC~1\AppData\Local\Temp\cc3fClzk.s 			page 67


 2956 0016 7B73     		strb	r3, [r7, #13]
 2957 0018 0023     		movs	r3, #0
 2958 001a BB73     		strb	r3, [r7, #14]
 2959 001c 0023     		movs	r3, #0
 2960 001e FB73     		strb	r3, [r7, #15]
 2961 0020 0023     		movs	r3, #0
 2962 0022 3B74     		strb	r3, [r7, #16]
 2963 0024 0023     		movs	r3, #0
 2964 0026 7B74     		strb	r3, [r7, #17]
 2965 0028 0023     		movs	r3, #0
 2966 002a BB74     		strb	r3, [r7, #18]
 2967 002c 0023     		movs	r3, #0
 2968 002e FB74     		strb	r3, [r7, #19]
 2969 0030 0023     		movs	r3, #0
 2970 0032 3B75     		strb	r3, [r7, #20]
 2971 0034 0023     		movs	r3, #0
 2972 0036 7B75     		strb	r3, [r7, #21]
 2973 0038 0023     		movs	r3, #0
 2974 003a BB75     		strb	r3, [r7, #22]
 2975 003c 0023     		movs	r3, #0
 2976 003e FB75     		strb	r3, [r7, #23]
 2977 0040 0023     		movs	r3, #0
 2978 0042 3B76     		strb	r3, [r7, #24]
 2979 0044 0023     		movs	r3, #0
 2980 0046 7B76     		strb	r3, [r7, #25]
 2981 0048 0023     		movs	r3, #0
 2982 004a BB76     		strb	r3, [r7, #26]
 715:.\Protocolo.c **** 	if(version[1]!=7){
 2983              		.loc 1 715 0
 2984 004c 804B     		ldr	r3, .L182
 2985 004e 5B78     		ldrb	r3, [r3, #1]
 2986 0050 DBB2     		uxtb	r3, r3
 2987 0052 072B     		cmp	r3, #7
 2988 0054 56D0     		beq	.L165
 716:.\Protocolo.c **** 		buffer[0]=0xFF;
 2989              		.loc 1 716 0
 2990 0056 FF23     		movs	r3, #255
 2991 0058 3B73     		strb	r3, [r7, #12]
 717:.\Protocolo.c **** 		buffer[1]=0xE5;
 2992              		.loc 1 717 0
 2993 005a E523     		movs	r3, #229
 2994 005c 7B73     		strb	r3, [r7, #13]
 718:.\Protocolo.c **** 		buffer[2]=0xF4;
 2995              		.loc 1 718 0
 2996 005e F423     		movs	r3, #244
 2997 0060 BB73     		strb	r3, [r7, #14]
 719:.\Protocolo.c **** 		buffer[3]=0xF6;
 2998              		.loc 1 719 0
 2999 0062 F623     		movs	r3, #246
 3000 0064 FB73     		strb	r3, [r7, #15]
 720:.\Protocolo.c **** 		buffer[4]=(0xE0|(num_man-1));
 3001              		.loc 1 720 0
 3002 0066 BB79     		ldrb	r3, [r7, #6]
 3003 0068 013B     		subs	r3, r3, #1
 3004 006a DBB2     		uxtb	r3, r3
 3005 006c DBB2     		uxtb	r3, r3
 3006 006e 63F01F03 		orn	r3, r3, #31
ARM GAS  C:\Users\RECEPC~1\AppData\Local\Temp\cc3fClzk.s 			page 68


 3007 0072 DBB2     		uxtb	r3, r3
 3008 0074 DBB2     		uxtb	r3, r3
 3009 0076 3B74     		strb	r3, [r7, #16]
 721:.\Protocolo.c **** 		buffer[5]=0xF7;	
 3010              		.loc 1 721 0
 3011 0078 F723     		movs	r3, #247
 3012 007a 7B74     		strb	r3, [r7, #17]
 722:.\Protocolo.c **** 		for(x=6;x<=9;x++){
 3013              		.loc 1 722 0
 3014 007c 0623     		movs	r3, #6
 3015 007e BB77     		strb	r3, [r7, #30]
 3016 0080 15E0     		b	.L166
 3017              	.L167:
 723:.\Protocolo.c **** 			buffer[x]=(0xE0|(precio[x-6]&0x0F));
 3018              		.loc 1 723 0 discriminator 2
 3019 0082 BB7F     		ldrb	r3, [r7, #30]	@ zero_extendqisi2
 3020 0084 BA7F     		ldrb	r2, [r7, #30]	@ zero_extendqisi2
 3021 0086 063A     		subs	r2, r2, #6
 3022 0088 3968     		ldr	r1, [r7]
 3023 008a 0A44     		add	r2, r2, r1
 3024 008c 1278     		ldrb	r2, [r2]	@ zero_extendqisi2
 3025 008e D2B2     		uxtb	r2, r2
 3026 0090 02F00F02 		and	r2, r2, #15
 3027 0094 D2B2     		uxtb	r2, r2
 3028 0096 62F01F02 		orn	r2, r2, #31
 3029 009a D2B2     		uxtb	r2, r2
 3030 009c D2B2     		uxtb	r2, r2
 3031 009e 07F12001 		add	r1, r7, #32
 3032 00a2 0B44     		add	r3, r3, r1
 3033 00a4 03F8142C 		strb	r2, [r3, #-20]
 722:.\Protocolo.c **** 		for(x=6;x<=9;x++){
 3034              		.loc 1 722 0 discriminator 2
 3035 00a8 BB7F     		ldrb	r3, [r7, #30]	@ zero_extendqisi2
 3036 00aa 0133     		adds	r3, r3, #1
 3037 00ac BB77     		strb	r3, [r7, #30]
 3038              	.L166:
 722:.\Protocolo.c **** 		for(x=6;x<=9;x++){
 3039              		.loc 1 722 0 is_stmt 0 discriminator 1
 3040 00ae BB7F     		ldrb	r3, [r7, #30]	@ zero_extendqisi2
 3041 00b0 092B     		cmp	r3, #9
 3042 00b2 E6D9     		bls	.L167
 724:.\Protocolo.c **** 		}
 725:.\Protocolo.c **** 		buffer[10]=0xFB;
 3043              		.loc 1 725 0 is_stmt 1
 3044 00b4 FB23     		movs	r3, #251
 3045 00b6 BB75     		strb	r3, [r7, #22]
 726:.\Protocolo.c **** 		for(x=0;x<=10;x++){
 3046              		.loc 1 726 0
 3047 00b8 0023     		movs	r3, #0
 3048 00ba BB77     		strb	r3, [r7, #30]
 3049 00bc 0FE0     		b	.L168
 3050              	.L169:
 727:.\Protocolo.c **** 			buffer[11]+=(buffer[x]&0x0F);	
 3051              		.loc 1 727 0 discriminator 2
 3052 00be FA7D     		ldrb	r2, [r7, #23]	@ zero_extendqisi2
 3053 00c0 BB7F     		ldrb	r3, [r7, #30]	@ zero_extendqisi2
 3054 00c2 07F12001 		add	r1, r7, #32
ARM GAS  C:\Users\RECEPC~1\AppData\Local\Temp\cc3fClzk.s 			page 69


 3055 00c6 0B44     		add	r3, r3, r1
 3056 00c8 13F8143C 		ldrb	r3, [r3, #-20]	@ zero_extendqisi2
 3057 00cc 03F00F03 		and	r3, r3, #15
 3058 00d0 DBB2     		uxtb	r3, r3
 3059 00d2 1344     		add	r3, r3, r2
 3060 00d4 DBB2     		uxtb	r3, r3
 3061 00d6 FB75     		strb	r3, [r7, #23]
 726:.\Protocolo.c **** 		for(x=0;x<=10;x++){
 3062              		.loc 1 726 0 discriminator 2
 3063 00d8 BB7F     		ldrb	r3, [r7, #30]	@ zero_extendqisi2
 3064 00da 0133     		adds	r3, r3, #1
 3065 00dc BB77     		strb	r3, [r7, #30]
 3066              	.L168:
 726:.\Protocolo.c **** 		for(x=0;x<=10;x++){
 3067              		.loc 1 726 0 is_stmt 0 discriminator 1
 3068 00de BB7F     		ldrb	r3, [r7, #30]	@ zero_extendqisi2
 3069 00e0 0A2B     		cmp	r3, #10
 3070 00e2 ECD9     		bls	.L169
 728:.\Protocolo.c **** 		}
 729:.\Protocolo.c **** 		buffer[11]=(((~buffer[11])+1)&0x0F)|0xE0;
 3071              		.loc 1 729 0 is_stmt 1
 3072 00e4 FB7D     		ldrb	r3, [r7, #23]	@ zero_extendqisi2
 3073 00e6 5B42     		negs	r3, r3
 3074 00e8 DBB2     		uxtb	r3, r3
 3075 00ea DBB2     		uxtb	r3, r3
 3076 00ec 03F00F03 		and	r3, r3, #15
 3077 00f0 DBB2     		uxtb	r3, r3
 3078 00f2 63F01F03 		orn	r3, r3, #31
 3079 00f6 DBB2     		uxtb	r3, r3
 3080 00f8 DBB2     		uxtb	r3, r3
 3081 00fa FB75     		strb	r3, [r7, #23]
 730:.\Protocolo.c **** 		buffer[12]=0xF0;
 3082              		.loc 1 730 0
 3083 00fc F023     		movs	r3, #240
 3084 00fe 3B76     		strb	r3, [r7, #24]
 731:.\Protocolo.c **** 		size=12;
 3085              		.loc 1 731 0
 3086 0100 0C23     		movs	r3, #12
 3087 0102 FB77     		strb	r3, [r7, #31]
 3088              	.L165:
 732:.\Protocolo.c **** 	}
 733:.\Protocolo.c **** 	if(version[1]==7){
 3089              		.loc 1 733 0
 3090 0104 524B     		ldr	r3, .L182
 3091 0106 5B78     		ldrb	r3, [r3, #1]
 3092 0108 DBB2     		uxtb	r3, r3
 3093 010a 072B     		cmp	r3, #7
 3094 010c 58D1     		bne	.L170
 734:.\Protocolo.c **** 		buffer[0]=0xFF;
 3095              		.loc 1 734 0
 3096 010e FF23     		movs	r3, #255
 3097 0110 3B73     		strb	r3, [r7, #12]
 735:.\Protocolo.c **** 		buffer[1]=0xE3;
 3098              		.loc 1 735 0
 3099 0112 E323     		movs	r3, #227
 3100 0114 7B73     		strb	r3, [r7, #13]
 736:.\Protocolo.c **** 		buffer[2]=0xF4;
ARM GAS  C:\Users\RECEPC~1\AppData\Local\Temp\cc3fClzk.s 			page 70


 3101              		.loc 1 736 0
 3102 0116 F423     		movs	r3, #244
 3103 0118 BB73     		strb	r3, [r7, #14]
 737:.\Protocolo.c **** 		buffer[3]=0xF6;
 3104              		.loc 1 737 0
 3105 011a F623     		movs	r3, #246
 3106 011c FB73     		strb	r3, [r7, #15]
 738:.\Protocolo.c **** 		buffer[4]=(0xE0|(num_man-1));
 3107              		.loc 1 738 0
 3108 011e BB79     		ldrb	r3, [r7, #6]
 3109 0120 013B     		subs	r3, r3, #1
 3110 0122 DBB2     		uxtb	r3, r3
 3111 0124 DBB2     		uxtb	r3, r3
 3112 0126 63F01F03 		orn	r3, r3, #31
 3113 012a DBB2     		uxtb	r3, r3
 3114 012c DBB2     		uxtb	r3, r3
 3115 012e 3B74     		strb	r3, [r7, #16]
 739:.\Protocolo.c **** 		buffer[5]=0xF7;		
 3116              		.loc 1 739 0
 3117 0130 F723     		movs	r3, #247
 3118 0132 7B74     		strb	r3, [r7, #17]
 740:.\Protocolo.c **** 		for(x=6;x<=10;x++){
 3119              		.loc 1 740 0
 3120 0134 0623     		movs	r3, #6
 3121 0136 BB77     		strb	r3, [r7, #30]
 3122 0138 15E0     		b	.L171
 3123              	.L172:
 741:.\Protocolo.c **** 			buffer[x]=(0xE0|(precio[x-6]&0x0F));
 3124              		.loc 1 741 0 discriminator 2
 3125 013a BB7F     		ldrb	r3, [r7, #30]	@ zero_extendqisi2
 3126 013c BA7F     		ldrb	r2, [r7, #30]	@ zero_extendqisi2
 3127 013e 063A     		subs	r2, r2, #6
 3128 0140 3968     		ldr	r1, [r7]
 3129 0142 0A44     		add	r2, r2, r1
 3130 0144 1278     		ldrb	r2, [r2]	@ zero_extendqisi2
 3131 0146 D2B2     		uxtb	r2, r2
 3132 0148 02F00F02 		and	r2, r2, #15
 3133 014c D2B2     		uxtb	r2, r2
 3134 014e 62F01F02 		orn	r2, r2, #31
 3135 0152 D2B2     		uxtb	r2, r2
 3136 0154 D2B2     		uxtb	r2, r2
 3137 0156 07F12001 		add	r1, r7, #32
 3138 015a 0B44     		add	r3, r3, r1
 3139 015c 03F8142C 		strb	r2, [r3, #-20]
 740:.\Protocolo.c **** 		for(x=6;x<=10;x++){
 3140              		.loc 1 740 0 discriminator 2
 3141 0160 BB7F     		ldrb	r3, [r7, #30]	@ zero_extendqisi2
 3142 0162 0133     		adds	r3, r3, #1
 3143 0164 BB77     		strb	r3, [r7, #30]
 3144              	.L171:
 740:.\Protocolo.c **** 		for(x=6;x<=10;x++){
 3145              		.loc 1 740 0 is_stmt 0 discriminator 1
 3146 0166 BB7F     		ldrb	r3, [r7, #30]	@ zero_extendqisi2
 3147 0168 0A2B     		cmp	r3, #10
 3148 016a E6D9     		bls	.L172
 742:.\Protocolo.c **** 		}
 743:.\Protocolo.c **** 		buffer[11]=0xE0;
ARM GAS  C:\Users\RECEPC~1\AppData\Local\Temp\cc3fClzk.s 			page 71


 3149              		.loc 1 743 0 is_stmt 1
 3150 016c E023     		movs	r3, #224
 3151 016e FB75     		strb	r3, [r7, #23]
 744:.\Protocolo.c **** 		buffer[12]=0xFB;
 3152              		.loc 1 744 0
 3153 0170 FB23     		movs	r3, #251
 3154 0172 3B76     		strb	r3, [r7, #24]
 745:.\Protocolo.c **** 		for(x=0;x<=12;x++){
 3155              		.loc 1 745 0
 3156 0174 0023     		movs	r3, #0
 3157 0176 BB77     		strb	r3, [r7, #30]
 3158 0178 0FE0     		b	.L173
 3159              	.L174:
 746:.\Protocolo.c **** 			buffer[13]+=(buffer[x]&0x0F);	
 3160              		.loc 1 746 0 discriminator 2
 3161 017a 7A7E     		ldrb	r2, [r7, #25]	@ zero_extendqisi2
 3162 017c BB7F     		ldrb	r3, [r7, #30]	@ zero_extendqisi2
 3163 017e 07F12001 		add	r1, r7, #32
 3164 0182 0B44     		add	r3, r3, r1
 3165 0184 13F8143C 		ldrb	r3, [r3, #-20]	@ zero_extendqisi2
 3166 0188 03F00F03 		and	r3, r3, #15
 3167 018c DBB2     		uxtb	r3, r3
 3168 018e 1344     		add	r3, r3, r2
 3169 0190 DBB2     		uxtb	r3, r3
 3170 0192 7B76     		strb	r3, [r7, #25]
 745:.\Protocolo.c **** 		for(x=0;x<=12;x++){
 3171              		.loc 1 745 0 discriminator 2
 3172 0194 BB7F     		ldrb	r3, [r7, #30]	@ zero_extendqisi2
 3173 0196 0133     		adds	r3, r3, #1
 3174 0198 BB77     		strb	r3, [r7, #30]
 3175              	.L173:
 745:.\Protocolo.c **** 		for(x=0;x<=12;x++){
 3176              		.loc 1 745 0 is_stmt 0 discriminator 1
 3177 019a BB7F     		ldrb	r3, [r7, #30]	@ zero_extendqisi2
 3178 019c 0C2B     		cmp	r3, #12
 3179 019e ECD9     		bls	.L174
 747:.\Protocolo.c **** 		}
 748:.\Protocolo.c **** 		buffer[13]=(((~buffer[13])+1)&0x0F)|0xE0;
 3180              		.loc 1 748 0 is_stmt 1
 3181 01a0 7B7E     		ldrb	r3, [r7, #25]	@ zero_extendqisi2
 3182 01a2 5B42     		negs	r3, r3
 3183 01a4 DBB2     		uxtb	r3, r3
 3184 01a6 DBB2     		uxtb	r3, r3
 3185 01a8 03F00F03 		and	r3, r3, #15
 3186 01ac DBB2     		uxtb	r3, r3
 3187 01ae 63F01F03 		orn	r3, r3, #31
 3188 01b2 DBB2     		uxtb	r3, r3
 3189 01b4 DBB2     		uxtb	r3, r3
 3190 01b6 7B76     		strb	r3, [r7, #25]
 749:.\Protocolo.c **** 		buffer[14]=0xF0;
 3191              		.loc 1 749 0
 3192 01b8 F023     		movs	r3, #240
 3193 01ba BB76     		strb	r3, [r7, #26]
 750:.\Protocolo.c **** 		size=14;
 3194              		.loc 1 750 0
 3195 01bc 0E23     		movs	r3, #14
 3196 01be FB77     		strb	r3, [r7, #31]
ARM GAS  C:\Users\RECEPC~1\AppData\Local\Temp\cc3fClzk.s 			page 72


 3197              	.L170:
 751:.\Protocolo.c **** 	}
 752:.\Protocolo.c **** 	Surtidor_ClearRxBuffer();
 3198              		.loc 1 752 0
 3199 01c0 FFF7FEFF 		bl	Surtidor_ClearRxBuffer
 753:.\Protocolo.c **** 	Surtidor_PutChar(0x20|dir);
 3200              		.loc 1 753 0
 3201 01c4 FB79     		ldrb	r3, [r7, #7]
 3202 01c6 43F02003 		orr	r3, r3, #32
 3203 01ca DBB2     		uxtb	r3, r3
 3204 01cc 1846     		mov	r0, r3
 3205 01ce FFF7FEFF 		bl	Surtidor_PutChar
 754:.\Protocolo.c **** 	CyDelay(150);
 3206              		.loc 1 754 0
 3207 01d2 9620     		movs	r0, #150
 3208 01d4 FFF7FEFF 		bl	CyDelay
 755:.\Protocolo.c **** 	if(Surtidor_GetRxBufferSize()>=1){
 3209              		.loc 1 755 0
 3210 01d8 FFF7FEFF 		bl	Surtidor_GetRxBufferSize
 3211 01dc 0346     		mov	r3, r0
 3212 01de 002B     		cmp	r3, #0
 3213 01e0 31D0     		beq	.L175
 756:.\Protocolo.c **** 		if(Surtidor_ReadRxData()==(0xD0|dir)){
 3214              		.loc 1 756 0
 3215 01e2 FFF7FEFF 		bl	Surtidor_ReadRxData
 3216 01e6 0346     		mov	r3, r0
 3217 01e8 1A46     		mov	r2, r3
 3218 01ea FB79     		ldrb	r3, [r7, #7]
 3219 01ec 63F02F03 		orn	r3, r3, #47
 3220 01f0 DBB2     		uxtb	r3, r3
 3221 01f2 9A42     		cmp	r2, r3
 3222 01f4 25D1     		bne	.L176
 757:.\Protocolo.c **** 	        Surtidor_ClearRxBuffer();
 3223              		.loc 1 757 0
 3224 01f6 FFF7FEFF 		bl	Surtidor_ClearRxBuffer
 758:.\Protocolo.c **** 			CyDelay(10);
 3225              		.loc 1 758 0
 3226 01fa 0A20     		movs	r0, #10
 3227 01fc FFF7FEFF 		bl	CyDelay
 759:.\Protocolo.c **** 	        for(x=0;x<=size;x++){
 3228              		.loc 1 759 0
 3229 0200 0023     		movs	r3, #0
 3230 0202 BB77     		strb	r3, [r7, #30]
 3231 0204 0BE0     		b	.L177
 3232              	.L178:
 760:.\Protocolo.c **** 	           	Surtidor_PutChar(buffer[x]);
 3233              		.loc 1 760 0 discriminator 2
 3234 0206 BB7F     		ldrb	r3, [r7, #30]	@ zero_extendqisi2
 3235 0208 07F12002 		add	r2, r7, #32
 3236 020c 1344     		add	r3, r3, r2
 3237 020e 13F8143C 		ldrb	r3, [r3, #-20]	@ zero_extendqisi2
 3238 0212 1846     		mov	r0, r3
 3239 0214 FFF7FEFF 		bl	Surtidor_PutChar
 759:.\Protocolo.c **** 	        for(x=0;x<=size;x++){
 3240              		.loc 1 759 0 discriminator 2
 3241 0218 BB7F     		ldrb	r3, [r7, #30]	@ zero_extendqisi2
 3242 021a 0133     		adds	r3, r3, #1
ARM GAS  C:\Users\RECEPC~1\AppData\Local\Temp\cc3fClzk.s 			page 73


 3243 021c BB77     		strb	r3, [r7, #30]
 3244              	.L177:
 759:.\Protocolo.c **** 	        for(x=0;x<=size;x++){
 3245              		.loc 1 759 0 is_stmt 0 discriminator 1
 3246 021e BA7F     		ldrb	r2, [r7, #30]	@ zero_extendqisi2
 3247 0220 FB7F     		ldrb	r3, [r7, #31]	@ zero_extendqisi2
 3248 0222 9A42     		cmp	r2, r3
 3249 0224 EFD9     		bls	.L178
 761:.\Protocolo.c **** 	        }
 762:.\Protocolo.c **** 			CyDelay(50);		
 3250              		.loc 1 762 0 is_stmt 1
 3251 0226 3220     		movs	r0, #50
 3252 0228 FFF7FEFF 		bl	CyDelay
 763:.\Protocolo.c **** 			if(get_estado(dir)==0){
 3253              		.loc 1 763 0
 3254 022c FB79     		ldrb	r3, [r7, #7]	@ zero_extendqisi2
 3255 022e 1846     		mov	r0, r3
 3256 0230 FFF7FEFF 		bl	get_estado
 3257 0234 0346     		mov	r3, r0
 3258 0236 002B     		cmp	r3, #0
 3259 0238 01D1     		bne	.L179
 764:.\Protocolo.c **** 				return 0;
 3260              		.loc 1 764 0
 3261 023a 0023     		movs	r3, #0
 3262 023c 04E0     		b	.L181
 3263              	.L179:
 765:.\Protocolo.c **** 			}
 766:.\Protocolo.c **** 			else{
 767:.\Protocolo.c **** 				return 1;
 3264              		.loc 1 767 0
 3265 023e 0123     		movs	r3, #1
 3266 0240 02E0     		b	.L181
 3267              	.L176:
 768:.\Protocolo.c **** 			}
 769:.\Protocolo.c **** 		}
 770:.\Protocolo.c **** 		else{
 771:.\Protocolo.c **** 			return 0;
 3268              		.loc 1 771 0
 3269 0242 0023     		movs	r3, #0
 3270 0244 00E0     		b	.L181
 3271              	.L175:
 772:.\Protocolo.c **** 		}
 773:.\Protocolo.c **** 	}
 774:.\Protocolo.c **** 	else{
 775:.\Protocolo.c **** 		return 0;
 3272              		.loc 1 775 0
 3273 0246 0023     		movs	r3, #0
 3274              	.L181:
 776:.\Protocolo.c **** 	}
 777:.\Protocolo.c **** }
 3275              		.loc 1 777 0
 3276 0248 1846     		mov	r0, r3
 3277 024a 2037     		adds	r7, r7, #32
 3278 024c BD46     		mov	sp, r7
 3279              		@ sp needed
 3280 024e 80BD     		pop	{r7, pc}
 3281              	.L183:
ARM GAS  C:\Users\RECEPC~1\AppData\Local\Temp\cc3fClzk.s 			page 74


 3282              		.align	2
 3283              	.L182:
 3284 0250 00000000 		.word	version
 3285              		.cfi_endproc
 3286              	.LFE71:
 3287              		.size	cambiar_precio, .-cambiar_precio
 3288              		.section	.text.totales,"ax",%progbits
 3289              		.align	2
 3290              		.global	totales
 3291              		.thumb
 3292              		.thumb_func
 3293              		.type	totales, %function
 3294              	totales:
 3295              	.LFB72:
 778:.\Protocolo.c **** 
 779:.\Protocolo.c **** /*
 780:.\Protocolo.c **** ***************************************************************************************************
 781:.\Protocolo.c **** *                                         uint8 totales(uint8 dir)
 782:.\Protocolo.c **** *
 783:.\Protocolo.c **** * Description : 
 784:.\Protocolo.c **** *               
 785:.\Protocolo.c **** *
 786:.\Protocolo.c **** * Argument(s) : none
 787:.\Protocolo.c **** *
 788:.\Protocolo.c **** * Return(s)   : none
 789:.\Protocolo.c **** *
 790:.\Protocolo.c **** * Caller(s)   : 
 791:.\Protocolo.c **** *
 792:.\Protocolo.c **** * Note(s)     : none.
 793:.\Protocolo.c **** ***************************************************************************************************
 794:.\Protocolo.c **** */
 795:.\Protocolo.c **** uint8 totales(uint8 dir, uint8 nmangueras){
 3296              		.loc 1 795 0
 3297              		.cfi_startproc
 3298              		@ args = 0, pretend = 0, frame = 16
 3299              		@ frame_needed = 1, uses_anonymous_args = 0
 3300 0000 80B5     		push	{r7, lr}
 3301              		.cfi_def_cfa_offset 8
 3302              		.cfi_offset 7, -8
 3303              		.cfi_offset 14, -4
 3304 0002 84B0     		sub	sp, sp, #16
 3305              		.cfi_def_cfa_offset 24
 3306 0004 00AF     		add	r7, sp, #0
 3307              		.cfi_def_cfa_register 7
 3308 0006 0246     		mov	r2, r0
 3309 0008 0B46     		mov	r3, r1
 3310 000a FA71     		strb	r2, [r7, #7]
 3311 000c BB71     		strb	r3, [r7, #6]
 796:.\Protocolo.c **** 	uint8 x,y;
 797:.\Protocolo.c **** 	Surtidor_ClearRxBuffer();
 3312              		.loc 1 797 0
 3313 000e FFF7FEFF 		bl	Surtidor_ClearRxBuffer
 798:.\Protocolo.c ****     Surtidor_PutChar(0x50|dir);
 3314              		.loc 1 798 0
 3315 0012 FB79     		ldrb	r3, [r7, #7]
 3316 0014 43F05003 		orr	r3, r3, #80
 3317 0018 DBB2     		uxtb	r3, r3
ARM GAS  C:\Users\RECEPC~1\AppData\Local\Temp\cc3fClzk.s 			page 75


 3318 001a 1846     		mov	r0, r3
 3319 001c FFF7FEFF 		bl	Surtidor_PutChar
 799:.\Protocolo.c ****     rx_timeout=0;
 3320              		.loc 1 799 0
 3321 0020 AF4B     		ldr	r3, .L491
 3322 0022 0022     		movs	r2, #0
 3323 0024 1A70     		strb	r2, [r3]
 800:.\Protocolo.c **** 	CyDelay(100);
 3324              		.loc 1 800 0
 3325 0026 6420     		movs	r0, #100
 3326 0028 FFF7FEFF 		bl	CyDelay
 801:.\Protocolo.c **** 	if(Surtidor_GetRxBufferSize()>=1){
 3327              		.loc 1 801 0
 3328 002c FFF7FEFF 		bl	Surtidor_GetRxBufferSize
 3329 0030 0346     		mov	r3, r0
 3330 0032 002B     		cmp	r3, #0
 3331 0034 01F0A883 		beq	.L185
 802:.\Protocolo.c **** 		if(dir==lado1.dir){
 3332              		.loc 1 802 0
 3333 0038 AA4B     		ldr	r3, .L491+4
 3334 003a 1B78     		ldrb	r3, [r3]
 3335 003c DBB2     		uxtb	r3, r3
 3336 003e FA79     		ldrb	r2, [r7, #7]	@ zero_extendqisi2
 3337 0040 9A42     		cmp	r2, r3
 3338 0042 40F0E982 		bne	.L186
 803:.\Protocolo.c **** 			if(version[1]!=7){
 3339              		.loc 1 803 0
 3340 0046 A84B     		ldr	r3, .L491+8
 3341 0048 5B78     		ldrb	r3, [r3, #1]
 3342 004a DBB2     		uxtb	r3, r3
 3343 004c 072B     		cmp	r3, #7
 3344 004e 00F07381 		beq	.L187
 804:.\Protocolo.c **** 				CyDelay(900);
 3345              		.loc 1 804 0
 3346 0052 4FF46170 		mov	r0, #900
 3347 0056 FFF7FEFF 		bl	CyDelay
 805:.\Protocolo.c **** 				x=Surtidor_GetRxBufferSize();
 3348              		.loc 1 805 0
 3349 005a FFF7FEFF 		bl	Surtidor_GetRxBufferSize
 3350 005e 0346     		mov	r3, r0
 3351 0060 FB73     		strb	r3, [r7, #15]
 806:.\Protocolo.c **** 				if((x==34)||(x==64)||(x==94)){
 3352              		.loc 1 806 0
 3353 0062 FB7B     		ldrb	r3, [r7, #15]	@ zero_extendqisi2
 3354 0064 222B     		cmp	r3, #34
 3355 0066 06D0     		beq	.L188
 3356              		.loc 1 806 0 is_stmt 0 discriminator 1
 3357 0068 FB7B     		ldrb	r3, [r7, #15]	@ zero_extendqisi2
 3358 006a 402B     		cmp	r3, #64
 3359 006c 03D0     		beq	.L188
 3360 006e FB7B     		ldrb	r3, [r7, #15]	@ zero_extendqisi2
 3361 0070 5E2B     		cmp	r3, #94
 3362 0072 40F05C81 		bne	.L189
 3363              	.L188:
 807:.\Protocolo.c **** 					if((Surtidor_rxBuffer[0]==0xFF)&&(Surtidor_rxBuffer[1]==0xF6)&&(Surtidor_rxBuffer[3]==0xF9)){
 3364              		.loc 1 807 0 is_stmt 1
 3365 0076 9D4B     		ldr	r3, .L491+12
ARM GAS  C:\Users\RECEPC~1\AppData\Local\Temp\cc3fClzk.s 			page 76


 3366 0078 1B78     		ldrb	r3, [r3]
 3367 007a DBB2     		uxtb	r3, r3
 3368 007c FF2B     		cmp	r3, #255
 3369 007e 40F05181 		bne	.L190
 3370              		.loc 1 807 0 is_stmt 0 discriminator 1
 3371 0082 9A4B     		ldr	r3, .L491+12
 3372 0084 5B78     		ldrb	r3, [r3, #1]
 3373 0086 DBB2     		uxtb	r3, r3
 3374 0088 F62B     		cmp	r3, #246
 3375 008a 40F04B81 		bne	.L190
 3376 008e 974B     		ldr	r3, .L491+12
 3377 0090 DB78     		ldrb	r3, [r3, #3]
 3378 0092 DBB2     		uxtb	r3, r3
 3379 0094 F92B     		cmp	r3, #249
 3380 0096 40F04581 		bne	.L190
 808:.\Protocolo.c ****                     	for(y=0;y<=2;y++){
 3381              		.loc 1 808 0 is_stmt 1
 3382 009a 0023     		movs	r3, #0
 3383 009c BB73     		strb	r3, [r7, #14]
 3384 009e 16E0     		b	.L191
 3385              	.L194:
 809:.\Protocolo.c ****                     		for(x=0;x<=23;x++){
 3386              		.loc 1 809 0
 3387 00a0 0023     		movs	r3, #0
 3388 00a2 FB73     		strb	r3, [r7, #15]
 3389 00a4 0DE0     		b	.L192
 3390              	.L193:
 810:.\Protocolo.c ****                     			lado1.totales[y][x]=0;
 3391              		.loc 1 810 0 discriminator 2
 3392 00a6 BA7B     		ldrb	r2, [r7, #14]	@ zero_extendqisi2
 3393 00a8 F87B     		ldrb	r0, [r7, #15]	@ zero_extendqisi2
 3394 00aa 8E49     		ldr	r1, .L491+4
 3395 00ac 1346     		mov	r3, r2
 3396 00ae 5B00     		lsls	r3, r3, #1
 3397 00b0 1344     		add	r3, r3, r2
 3398 00b2 DB00     		lsls	r3, r3, #3
 3399 00b4 0344     		add	r3, r3, r0
 3400 00b6 0B44     		add	r3, r3, r1
 3401 00b8 0022     		movs	r2, #0
 3402 00ba 9A70     		strb	r2, [r3, #2]
 809:.\Protocolo.c ****                     		for(x=0;x<=23;x++){
 3403              		.loc 1 809 0 discriminator 2
 3404 00bc FB7B     		ldrb	r3, [r7, #15]	@ zero_extendqisi2
 3405 00be 0133     		adds	r3, r3, #1
 3406 00c0 FB73     		strb	r3, [r7, #15]
 3407              	.L192:
 809:.\Protocolo.c ****                     		for(x=0;x<=23;x++){
 3408              		.loc 1 809 0 is_stmt 0 discriminator 1
 3409 00c2 FB7B     		ldrb	r3, [r7, #15]	@ zero_extendqisi2
 3410 00c4 172B     		cmp	r3, #23
 3411 00c6 EED9     		bls	.L193
 808:.\Protocolo.c ****                     	for(y=0;y<=2;y++){
 3412              		.loc 1 808 0 is_stmt 1
 3413 00c8 BB7B     		ldrb	r3, [r7, #14]	@ zero_extendqisi2
 3414 00ca 0133     		adds	r3, r3, #1
 3415 00cc BB73     		strb	r3, [r7, #14]
 3416              	.L191:
ARM GAS  C:\Users\RECEPC~1\AppData\Local\Temp\cc3fClzk.s 			page 77


 808:.\Protocolo.c ****                     	for(y=0;y<=2;y++){
 3417              		.loc 1 808 0 is_stmt 0 discriminator 1
 3418 00ce BB7B     		ldrb	r3, [r7, #14]	@ zero_extendqisi2
 3419 00d0 022B     		cmp	r3, #2
 3420 00d2 E5D9     		bls	.L194
 811:.\Protocolo.c ****                     		}
 812:.\Protocolo.c ****                     	}                        
 813:.\Protocolo.c **** 						for(x=0;x<=7;x++){                          
 3421              		.loc 1 813 0 is_stmt 1
 3422 00d4 0023     		movs	r3, #0
 3423 00d6 FB73     		strb	r3, [r7, #15]
 3424 00d8 0BE0     		b	.L195
 3425              	.L196:
 814:.\Protocolo.c **** 							lado1.totales[0][x]=Surtidor_rxBuffer[x+4]; 
 3426              		.loc 1 814 0 discriminator 2
 3427 00da FB7B     		ldrb	r3, [r7, #15]	@ zero_extendqisi2
 3428 00dc FA7B     		ldrb	r2, [r7, #15]	@ zero_extendqisi2
 3429 00de 0432     		adds	r2, r2, #4
 3430 00e0 8249     		ldr	r1, .L491+12
 3431 00e2 8A5C     		ldrb	r2, [r1, r2]
 3432 00e4 D2B2     		uxtb	r2, r2
 3433 00e6 7F49     		ldr	r1, .L491+4
 3434 00e8 0B44     		add	r3, r3, r1
 3435 00ea 9A70     		strb	r2, [r3, #2]
 813:.\Protocolo.c **** 						for(x=0;x<=7;x++){                          
 3436              		.loc 1 813 0 discriminator 2
 3437 00ec FB7B     		ldrb	r3, [r7, #15]	@ zero_extendqisi2
 3438 00ee 0133     		adds	r3, r3, #1
 3439 00f0 FB73     		strb	r3, [r7, #15]
 3440              	.L195:
 813:.\Protocolo.c **** 						for(x=0;x<=7;x++){                          
 3441              		.loc 1 813 0 is_stmt 0 discriminator 1
 3442 00f2 FB7B     		ldrb	r3, [r7, #15]	@ zero_extendqisi2
 3443 00f4 072B     		cmp	r3, #7
 3444 00f6 F0D9     		bls	.L196
 815:.\Protocolo.c **** 						}
 816:.\Protocolo.c **** 						for(x=0;x<=7;x++){
 3445              		.loc 1 816 0 is_stmt 1
 3446 00f8 0023     		movs	r3, #0
 3447 00fa FB73     		strb	r3, [r7, #15]
 3448 00fc 16E0     		b	.L197
 3449              	.L200:
 817:.\Protocolo.c ****                             if(Surtidor_rxBuffer[x+13]==0){
 3450              		.loc 1 817 0
 3451 00fe FB7B     		ldrb	r3, [r7, #15]	@ zero_extendqisi2
 3452 0100 0D33     		adds	r3, r3, #13
 3453 0102 7A4A     		ldr	r2, .L491+12
 3454 0104 D35C     		ldrb	r3, [r2, r3]
 3455 0106 DBB2     		uxtb	r3, r3
 3456 0108 002B     		cmp	r3, #0
 3457 010a 02D1     		bne	.L198
 818:.\Protocolo.c ****                                 return 0;
 3458              		.loc 1 818 0
 3459 010c 0023     		movs	r3, #0
 3460 010e 01F03CBB 		b	.L199
 3461              	.L198:
 819:.\Protocolo.c ****                             }
ARM GAS  C:\Users\RECEPC~1\AppData\Local\Temp\cc3fClzk.s 			page 78


 820:.\Protocolo.c **** 							lado1.totales[0][x+12]=Surtidor_rxBuffer[x+13];
 3462              		.loc 1 820 0
 3463 0112 FB7B     		ldrb	r3, [r7, #15]	@ zero_extendqisi2
 3464 0114 0C33     		adds	r3, r3, #12
 3465 0116 FA7B     		ldrb	r2, [r7, #15]	@ zero_extendqisi2
 3466 0118 0D32     		adds	r2, r2, #13
 3467 011a 7449     		ldr	r1, .L491+12
 3468 011c 8A5C     		ldrb	r2, [r1, r2]
 3469 011e D2B2     		uxtb	r2, r2
 3470 0120 7049     		ldr	r1, .L491+4
 3471 0122 0B44     		add	r3, r3, r1
 3472 0124 9A70     		strb	r2, [r3, #2]
 816:.\Protocolo.c **** 						for(x=0;x<=7;x++){
 3473              		.loc 1 816 0
 3474 0126 FB7B     		ldrb	r3, [r7, #15]	@ zero_extendqisi2
 3475 0128 0133     		adds	r3, r3, #1
 3476 012a FB73     		strb	r3, [r7, #15]
 3477              	.L197:
 816:.\Protocolo.c **** 						for(x=0;x<=7;x++){
 3478              		.loc 1 816 0 is_stmt 0 discriminator 1
 3479 012c FB7B     		ldrb	r3, [r7, #15]	@ zero_extendqisi2
 3480 012e 072B     		cmp	r3, #7
 3481 0130 E5D9     		bls	.L200
 821:.\Protocolo.c **** 						}
 822:.\Protocolo.c **** 						for(x=0;x<=3;x++){
 3482              		.loc 1 822 0 is_stmt 1
 3483 0132 0023     		movs	r3, #0
 3484 0134 FB73     		strb	r3, [r7, #15]
 3485 0136 0CE0     		b	.L201
 3486              	.L202:
 823:.\Protocolo.c **** 							lado1.ppu[0][x]=Surtidor_rxBuffer[x+22];
 3487              		.loc 1 823 0 discriminator 2
 3488 0138 FB7B     		ldrb	r3, [r7, #15]	@ zero_extendqisi2
 3489 013a FA7B     		ldrb	r2, [r7, #15]	@ zero_extendqisi2
 3490 013c 1632     		adds	r2, r2, #22
 3491 013e 6B49     		ldr	r1, .L491+12
 3492 0140 8A5C     		ldrb	r2, [r1, r2]
 3493 0142 D2B2     		uxtb	r2, r2
 3494 0144 6749     		ldr	r1, .L491+4
 3495 0146 0B44     		add	r3, r3, r1
 3496 0148 83F84A20 		strb	r2, [r3, #74]
 822:.\Protocolo.c **** 						for(x=0;x<=3;x++){
 3497              		.loc 1 822 0 discriminator 2
 3498 014c FB7B     		ldrb	r3, [r7, #15]	@ zero_extendqisi2
 3499 014e 0133     		adds	r3, r3, #1
 3500 0150 FB73     		strb	r3, [r7, #15]
 3501              	.L201:
 822:.\Protocolo.c **** 						for(x=0;x<=3;x++){
 3502              		.loc 1 822 0 is_stmt 0 discriminator 1
 3503 0152 FB7B     		ldrb	r3, [r7, #15]	@ zero_extendqisi2
 3504 0154 032B     		cmp	r3, #3
 3505 0156 EFD9     		bls	.L202
 824:.\Protocolo.c **** 						}				
 825:.\Protocolo.c **** 						if(nmangueras==2){
 3506              		.loc 1 825 0 is_stmt 1
 3507 0158 BB79     		ldrb	r3, [r7, #6]	@ zero_extendqisi2
 3508 015a 022B     		cmp	r3, #2
ARM GAS  C:\Users\RECEPC~1\AppData\Local\Temp\cc3fClzk.s 			page 79


 3509 015c 46D1     		bne	.L203
 826:.\Protocolo.c **** 							for(x=0;x<=7;x++){
 3510              		.loc 1 826 0
 3511 015e 0023     		movs	r3, #0
 3512 0160 FB73     		strb	r3, [r7, #15]
 3513 0162 0BE0     		b	.L204
 3514              	.L205:
 827:.\Protocolo.c **** 								lado1.totales[1][x]=Surtidor_rxBuffer[x+34];
 3515              		.loc 1 827 0 discriminator 2
 3516 0164 FB7B     		ldrb	r3, [r7, #15]	@ zero_extendqisi2
 3517 0166 FA7B     		ldrb	r2, [r7, #15]	@ zero_extendqisi2
 3518 0168 2232     		adds	r2, r2, #34
 3519 016a 6049     		ldr	r1, .L491+12
 3520 016c 8A5C     		ldrb	r2, [r1, r2]
 3521 016e D2B2     		uxtb	r2, r2
 3522 0170 5C49     		ldr	r1, .L491+4
 3523 0172 0B44     		add	r3, r3, r1
 3524 0174 9A76     		strb	r2, [r3, #26]
 826:.\Protocolo.c **** 							for(x=0;x<=7;x++){
 3525              		.loc 1 826 0 discriminator 2
 3526 0176 FB7B     		ldrb	r3, [r7, #15]	@ zero_extendqisi2
 3527 0178 0133     		adds	r3, r3, #1
 3528 017a FB73     		strb	r3, [r7, #15]
 3529              	.L204:
 826:.\Protocolo.c **** 							for(x=0;x<=7;x++){
 3530              		.loc 1 826 0 is_stmt 0 discriminator 1
 3531 017c FB7B     		ldrb	r3, [r7, #15]	@ zero_extendqisi2
 3532 017e 072B     		cmp	r3, #7
 3533 0180 F0D9     		bls	.L205
 828:.\Protocolo.c **** 							}
 829:.\Protocolo.c **** 							for(x=0;x<=7;x++){
 3534              		.loc 1 829 0 is_stmt 1
 3535 0182 0023     		movs	r3, #0
 3536 0184 FB73     		strb	r3, [r7, #15]
 3537 0186 16E0     		b	.L206
 3538              	.L208:
 830:.\Protocolo.c ****                                 if(Surtidor_rxBuffer[x+43]==0){
 3539              		.loc 1 830 0
 3540 0188 FB7B     		ldrb	r3, [r7, #15]	@ zero_extendqisi2
 3541 018a 2B33     		adds	r3, r3, #43
 3542 018c 574A     		ldr	r2, .L491+12
 3543 018e D35C     		ldrb	r3, [r2, r3]
 3544 0190 DBB2     		uxtb	r3, r3
 3545 0192 002B     		cmp	r3, #0
 3546 0194 02D1     		bne	.L207
 831:.\Protocolo.c ****                                     return 0;
 3547              		.loc 1 831 0
 3548 0196 0023     		movs	r3, #0
 3549 0198 01F0F7BA 		b	.L199
 3550              	.L207:
 832:.\Protocolo.c ****                                 }                                
 833:.\Protocolo.c **** 								lado1.totales[1][x+12]=Surtidor_rxBuffer[x+43];
 3551              		.loc 1 833 0
 3552 019c FB7B     		ldrb	r3, [r7, #15]	@ zero_extendqisi2
 3553 019e 0C33     		adds	r3, r3, #12
 3554 01a0 FA7B     		ldrb	r2, [r7, #15]	@ zero_extendqisi2
 3555 01a2 2B32     		adds	r2, r2, #43
ARM GAS  C:\Users\RECEPC~1\AppData\Local\Temp\cc3fClzk.s 			page 80


 3556 01a4 5149     		ldr	r1, .L491+12
 3557 01a6 8A5C     		ldrb	r2, [r1, r2]
 3558 01a8 D2B2     		uxtb	r2, r2
 3559 01aa 4E49     		ldr	r1, .L491+4
 3560 01ac 0B44     		add	r3, r3, r1
 3561 01ae 9A76     		strb	r2, [r3, #26]
 829:.\Protocolo.c **** 							for(x=0;x<=7;x++){
 3562              		.loc 1 829 0
 3563 01b0 FB7B     		ldrb	r3, [r7, #15]	@ zero_extendqisi2
 3564 01b2 0133     		adds	r3, r3, #1
 3565 01b4 FB73     		strb	r3, [r7, #15]
 3566              	.L206:
 829:.\Protocolo.c **** 							for(x=0;x<=7;x++){
 3567              		.loc 1 829 0 is_stmt 0 discriminator 1
 3568 01b6 FB7B     		ldrb	r3, [r7, #15]	@ zero_extendqisi2
 3569 01b8 072B     		cmp	r3, #7
 3570 01ba E5D9     		bls	.L208
 834:.\Protocolo.c **** 							}
 835:.\Protocolo.c **** 							for(x=0;x<=3;x++){
 3571              		.loc 1 835 0 is_stmt 1
 3572 01bc 0023     		movs	r3, #0
 3573 01be FB73     		strb	r3, [r7, #15]
 3574 01c0 0CE0     		b	.L209
 3575              	.L210:
 836:.\Protocolo.c **** 								lado1.ppu[1][x]=Surtidor_rxBuffer[x+52];
 3576              		.loc 1 836 0 discriminator 2
 3577 01c2 FB7B     		ldrb	r3, [r7, #15]	@ zero_extendqisi2
 3578 01c4 FA7B     		ldrb	r2, [r7, #15]	@ zero_extendqisi2
 3579 01c6 3432     		adds	r2, r2, #52
 3580 01c8 4849     		ldr	r1, .L491+12
 3581 01ca 8A5C     		ldrb	r2, [r1, r2]
 3582 01cc D2B2     		uxtb	r2, r2
 3583 01ce 4549     		ldr	r1, .L491+4
 3584 01d0 0B44     		add	r3, r3, r1
 3585 01d2 83F84F20 		strb	r2, [r3, #79]
 835:.\Protocolo.c **** 							for(x=0;x<=3;x++){
 3586              		.loc 1 835 0 discriminator 2
 3587 01d6 FB7B     		ldrb	r3, [r7, #15]	@ zero_extendqisi2
 3588 01d8 0133     		adds	r3, r3, #1
 3589 01da FB73     		strb	r3, [r7, #15]
 3590              	.L209:
 835:.\Protocolo.c **** 							for(x=0;x<=3;x++){
 3591              		.loc 1 835 0 is_stmt 0 discriminator 1
 3592 01dc FB7B     		ldrb	r3, [r7, #15]	@ zero_extendqisi2
 3593 01de 032B     		cmp	r3, #3
 3594 01e0 EFD9     		bls	.L210
 837:.\Protocolo.c **** 							}	
 838:.\Protocolo.c ****     						Surtidor_ClearRxBuffer();
 3595              		.loc 1 838 0 is_stmt 1
 3596 01e2 FFF7FEFF 		bl	Surtidor_ClearRxBuffer
 839:.\Protocolo.c ****     						return 2;                            
 3597              		.loc 1 839 0
 3598 01e6 0223     		movs	r3, #2
 3599 01e8 01F0CFBA 		b	.L199
 3600              	.L203:
 840:.\Protocolo.c **** 						}
 841:.\Protocolo.c **** 						if(nmangueras==3){
ARM GAS  C:\Users\RECEPC~1\AppData\Local\Temp\cc3fClzk.s 			page 81


 3601              		.loc 1 841 0
 3602 01ec BB79     		ldrb	r3, [r7, #6]	@ zero_extendqisi2
 3603 01ee 032B     		cmp	r3, #3
 3604 01f0 40F09380 		bne	.L211
 842:.\Protocolo.c **** 							for(x=0;x<=7;x++){
 3605              		.loc 1 842 0
 3606 01f4 0023     		movs	r3, #0
 3607 01f6 FB73     		strb	r3, [r7, #15]
 3608 01f8 0BE0     		b	.L212
 3609              	.L213:
 843:.\Protocolo.c **** 								lado1.totales[1][x]=Surtidor_rxBuffer[x+34];
 3610              		.loc 1 843 0 discriminator 2
 3611 01fa FB7B     		ldrb	r3, [r7, #15]	@ zero_extendqisi2
 3612 01fc FA7B     		ldrb	r2, [r7, #15]	@ zero_extendqisi2
 3613 01fe 2232     		adds	r2, r2, #34
 3614 0200 3A49     		ldr	r1, .L491+12
 3615 0202 8A5C     		ldrb	r2, [r1, r2]
 3616 0204 D2B2     		uxtb	r2, r2
 3617 0206 3749     		ldr	r1, .L491+4
 3618 0208 0B44     		add	r3, r3, r1
 3619 020a 9A76     		strb	r2, [r3, #26]
 842:.\Protocolo.c **** 							for(x=0;x<=7;x++){
 3620              		.loc 1 842 0 discriminator 2
 3621 020c FB7B     		ldrb	r3, [r7, #15]	@ zero_extendqisi2
 3622 020e 0133     		adds	r3, r3, #1
 3623 0210 FB73     		strb	r3, [r7, #15]
 3624              	.L212:
 842:.\Protocolo.c **** 							for(x=0;x<=7;x++){
 3625              		.loc 1 842 0 is_stmt 0 discriminator 1
 3626 0212 FB7B     		ldrb	r3, [r7, #15]	@ zero_extendqisi2
 3627 0214 072B     		cmp	r3, #7
 3628 0216 F0D9     		bls	.L213
 844:.\Protocolo.c **** 							}
 845:.\Protocolo.c **** 							for(x=0;x<=7;x++){
 3629              		.loc 1 845 0 is_stmt 1
 3630 0218 0023     		movs	r3, #0
 3631 021a FB73     		strb	r3, [r7, #15]
 3632 021c 16E0     		b	.L214
 3633              	.L216:
 846:.\Protocolo.c ****                                 if(Surtidor_rxBuffer[x+43]==0){
 3634              		.loc 1 846 0
 3635 021e FB7B     		ldrb	r3, [r7, #15]	@ zero_extendqisi2
 3636 0220 2B33     		adds	r3, r3, #43
 3637 0222 324A     		ldr	r2, .L491+12
 3638 0224 D35C     		ldrb	r3, [r2, r3]
 3639 0226 DBB2     		uxtb	r3, r3
 3640 0228 002B     		cmp	r3, #0
 3641 022a 02D1     		bne	.L215
 847:.\Protocolo.c ****                                     return 0;
 3642              		.loc 1 847 0
 3643 022c 0023     		movs	r3, #0
 3644 022e 01F0ACBA 		b	.L199
 3645              	.L215:
 848:.\Protocolo.c ****                                 }                                 
 849:.\Protocolo.c **** 								lado1.totales[1][x+12]=Surtidor_rxBuffer[x+43];
 3646              		.loc 1 849 0
 3647 0232 FB7B     		ldrb	r3, [r7, #15]	@ zero_extendqisi2
ARM GAS  C:\Users\RECEPC~1\AppData\Local\Temp\cc3fClzk.s 			page 82


 3648 0234 0C33     		adds	r3, r3, #12
 3649 0236 FA7B     		ldrb	r2, [r7, #15]	@ zero_extendqisi2
 3650 0238 2B32     		adds	r2, r2, #43
 3651 023a 2C49     		ldr	r1, .L491+12
 3652 023c 8A5C     		ldrb	r2, [r1, r2]
 3653 023e D2B2     		uxtb	r2, r2
 3654 0240 2849     		ldr	r1, .L491+4
 3655 0242 0B44     		add	r3, r3, r1
 3656 0244 9A76     		strb	r2, [r3, #26]
 845:.\Protocolo.c **** 							for(x=0;x<=7;x++){
 3657              		.loc 1 845 0
 3658 0246 FB7B     		ldrb	r3, [r7, #15]	@ zero_extendqisi2
 3659 0248 0133     		adds	r3, r3, #1
 3660 024a FB73     		strb	r3, [r7, #15]
 3661              	.L214:
 845:.\Protocolo.c **** 							for(x=0;x<=7;x++){
 3662              		.loc 1 845 0 is_stmt 0 discriminator 1
 3663 024c FB7B     		ldrb	r3, [r7, #15]	@ zero_extendqisi2
 3664 024e 072B     		cmp	r3, #7
 3665 0250 E5D9     		bls	.L216
 850:.\Protocolo.c **** 							}
 851:.\Protocolo.c **** 							for(x=0;x<=3;x++){
 3666              		.loc 1 851 0 is_stmt 1
 3667 0252 0023     		movs	r3, #0
 3668 0254 FB73     		strb	r3, [r7, #15]
 3669 0256 0CE0     		b	.L217
 3670              	.L218:
 852:.\Protocolo.c **** 								lado1.ppu[1][x]=Surtidor_rxBuffer[x+52];
 3671              		.loc 1 852 0 discriminator 2
 3672 0258 FB7B     		ldrb	r3, [r7, #15]	@ zero_extendqisi2
 3673 025a FA7B     		ldrb	r2, [r7, #15]	@ zero_extendqisi2
 3674 025c 3432     		adds	r2, r2, #52
 3675 025e 2349     		ldr	r1, .L491+12
 3676 0260 8A5C     		ldrb	r2, [r1, r2]
 3677 0262 D2B2     		uxtb	r2, r2
 3678 0264 1F49     		ldr	r1, .L491+4
 3679 0266 0B44     		add	r3, r3, r1
 3680 0268 83F84F20 		strb	r2, [r3, #79]
 851:.\Protocolo.c **** 							for(x=0;x<=3;x++){
 3681              		.loc 1 851 0 discriminator 2
 3682 026c FB7B     		ldrb	r3, [r7, #15]	@ zero_extendqisi2
 3683 026e 0133     		adds	r3, r3, #1
 3684 0270 FB73     		strb	r3, [r7, #15]
 3685              	.L217:
 851:.\Protocolo.c **** 							for(x=0;x<=3;x++){
 3686              		.loc 1 851 0 is_stmt 0 discriminator 1
 3687 0272 FB7B     		ldrb	r3, [r7, #15]	@ zero_extendqisi2
 3688 0274 032B     		cmp	r3, #3
 3689 0276 EFD9     		bls	.L218
 853:.\Protocolo.c **** 							}						
 854:.\Protocolo.c **** 							for(x=0;x<=7;x++){
 3690              		.loc 1 854 0 is_stmt 1
 3691 0278 0023     		movs	r3, #0
 3692 027a FB73     		strb	r3, [r7, #15]
 3693 027c 0CE0     		b	.L219
 3694              	.L220:
 855:.\Protocolo.c **** 								lado1.totales[2][x]=Surtidor_rxBuffer[x+64];
ARM GAS  C:\Users\RECEPC~1\AppData\Local\Temp\cc3fClzk.s 			page 83


 3695              		.loc 1 855 0 discriminator 2
 3696 027e FB7B     		ldrb	r3, [r7, #15]	@ zero_extendqisi2
 3697 0280 FA7B     		ldrb	r2, [r7, #15]	@ zero_extendqisi2
 3698 0282 4032     		adds	r2, r2, #64
 3699 0284 1949     		ldr	r1, .L491+12
 3700 0286 8A5C     		ldrb	r2, [r1, r2]
 3701 0288 D2B2     		uxtb	r2, r2
 3702 028a 1649     		ldr	r1, .L491+4
 3703 028c 0B44     		add	r3, r3, r1
 3704 028e 83F83220 		strb	r2, [r3, #50]
 854:.\Protocolo.c **** 							for(x=0;x<=7;x++){
 3705              		.loc 1 854 0 discriminator 2
 3706 0292 FB7B     		ldrb	r3, [r7, #15]	@ zero_extendqisi2
 3707 0294 0133     		adds	r3, r3, #1
 3708 0296 FB73     		strb	r3, [r7, #15]
 3709              	.L219:
 854:.\Protocolo.c **** 							for(x=0;x<=7;x++){
 3710              		.loc 1 854 0 is_stmt 0 discriminator 1
 3711 0298 FB7B     		ldrb	r3, [r7, #15]	@ zero_extendqisi2
 3712 029a 072B     		cmp	r3, #7
 3713 029c EFD9     		bls	.L220
 856:.\Protocolo.c **** 							}
 857:.\Protocolo.c **** 							for(x=0;x<=7;x++){
 3714              		.loc 1 857 0 is_stmt 1
 3715 029e 0023     		movs	r3, #0
 3716 02a0 FB73     		strb	r3, [r7, #15]
 3717 02a2 17E0     		b	.L221
 3718              	.L223:
 858:.\Protocolo.c ****                                 if(Surtidor_rxBuffer[x+73]==0){
 3719              		.loc 1 858 0
 3720 02a4 FB7B     		ldrb	r3, [r7, #15]	@ zero_extendqisi2
 3721 02a6 4933     		adds	r3, r3, #73
 3722 02a8 104A     		ldr	r2, .L491+12
 3723 02aa D35C     		ldrb	r3, [r2, r3]
 3724 02ac DBB2     		uxtb	r3, r3
 3725 02ae 002B     		cmp	r3, #0
 3726 02b0 02D1     		bne	.L222
 859:.\Protocolo.c ****                                     return 0;
 3727              		.loc 1 859 0
 3728 02b2 0023     		movs	r3, #0
 3729 02b4 01F069BA 		b	.L199
 3730              	.L222:
 860:.\Protocolo.c ****                                 }                                 
 861:.\Protocolo.c **** 								lado1.totales[2][x+12]=Surtidor_rxBuffer[x+73];
 3731              		.loc 1 861 0
 3732 02b8 FB7B     		ldrb	r3, [r7, #15]	@ zero_extendqisi2
 3733 02ba 0C33     		adds	r3, r3, #12
 3734 02bc FA7B     		ldrb	r2, [r7, #15]	@ zero_extendqisi2
 3735 02be 4932     		adds	r2, r2, #73
 3736 02c0 0A49     		ldr	r1, .L491+12
 3737 02c2 8A5C     		ldrb	r2, [r1, r2]
 3738 02c4 D2B2     		uxtb	r2, r2
 3739 02c6 0749     		ldr	r1, .L491+4
 3740 02c8 0B44     		add	r3, r3, r1
 3741 02ca 83F83220 		strb	r2, [r3, #50]
 857:.\Protocolo.c **** 							for(x=0;x<=7;x++){
 3742              		.loc 1 857 0
ARM GAS  C:\Users\RECEPC~1\AppData\Local\Temp\cc3fClzk.s 			page 84


 3743 02ce FB7B     		ldrb	r3, [r7, #15]	@ zero_extendqisi2
 3744 02d0 0133     		adds	r3, r3, #1
 3745 02d2 FB73     		strb	r3, [r7, #15]
 3746              	.L221:
 857:.\Protocolo.c **** 							for(x=0;x<=7;x++){
 3747              		.loc 1 857 0 is_stmt 0 discriminator 1
 3748 02d4 FB7B     		ldrb	r3, [r7, #15]	@ zero_extendqisi2
 3749 02d6 072B     		cmp	r3, #7
 3750 02d8 E4D9     		bls	.L223
 862:.\Protocolo.c **** 							}
 863:.\Protocolo.c **** 							for(x=0;x<=3;x++){
 3751              		.loc 1 863 0 is_stmt 1
 3752 02da 0023     		movs	r3, #0
 3753 02dc FB73     		strb	r3, [r7, #15]
 3754 02de 14E0     		b	.L224
 3755              	.L492:
 3756              		.align	2
 3757              	.L491:
 3758 02e0 00000000 		.word	rx_timeout
 3759 02e4 00000000 		.word	lado1
 3760 02e8 00000000 		.word	version
 3761 02ec 00000000 		.word	Surtidor_rxBuffer
 3762              	.L225:
 864:.\Protocolo.c **** 								lado1.ppu[2][x]=Surtidor_rxBuffer[x+82];
 3763              		.loc 1 864 0 discriminator 2
 3764 02f0 FB7B     		ldrb	r3, [r7, #15]	@ zero_extendqisi2
 3765 02f2 FA7B     		ldrb	r2, [r7, #15]	@ zero_extendqisi2
 3766 02f4 5232     		adds	r2, r2, #82
 3767 02f6 AA49     		ldr	r1, .L493
 3768 02f8 8A5C     		ldrb	r2, [r1, r2]
 3769 02fa D2B2     		uxtb	r2, r2
 3770 02fc A949     		ldr	r1, .L493+4
 3771 02fe 0B44     		add	r3, r3, r1
 3772 0300 83F85420 		strb	r2, [r3, #84]
 863:.\Protocolo.c **** 							for(x=0;x<=3;x++){
 3773              		.loc 1 863 0 discriminator 2
 3774 0304 FB7B     		ldrb	r3, [r7, #15]	@ zero_extendqisi2
 3775 0306 0133     		adds	r3, r3, #1
 3776 0308 FB73     		strb	r3, [r7, #15]
 3777              	.L224:
 863:.\Protocolo.c **** 							for(x=0;x<=3;x++){
 3778              		.loc 1 863 0 is_stmt 0 discriminator 1
 3779 030a FB7B     		ldrb	r3, [r7, #15]	@ zero_extendqisi2
 3780 030c 032B     		cmp	r3, #3
 3781 030e EFD9     		bls	.L225
 865:.\Protocolo.c **** 							}
 866:.\Protocolo.c ****     						Surtidor_ClearRxBuffer();
 3782              		.loc 1 866 0 is_stmt 1
 3783 0310 FFF7FEFF 		bl	Surtidor_ClearRxBuffer
 867:.\Protocolo.c ****     						return 3;                            
 3784              		.loc 1 867 0
 3785 0314 0323     		movs	r3, #3
 3786 0316 01F038BA 		b	.L199
 3787              	.L211:
 868:.\Protocolo.c **** 						}
 869:.\Protocolo.c **** 						Surtidor_ClearRxBuffer();
 3788              		.loc 1 869 0
ARM GAS  C:\Users\RECEPC~1\AppData\Local\Temp\cc3fClzk.s 			page 85


 3789 031a FFF7FEFF 		bl	Surtidor_ClearRxBuffer
 870:.\Protocolo.c **** 						return 1;
 3790              		.loc 1 870 0
 3791 031e 0123     		movs	r3, #1
 3792 0320 01F033BA 		b	.L199
 3793              	.L190:
 871:.\Protocolo.c **** 					}
 872:.\Protocolo.c **** 					else{
 873:.\Protocolo.c **** 						Surtidor_ClearRxBuffer();
 3794              		.loc 1 873 0
 3795 0324 FFF7FEFF 		bl	Surtidor_ClearRxBuffer
 874:.\Protocolo.c **** 						return 0;
 3796              		.loc 1 874 0
 3797 0328 0023     		movs	r3, #0
 3798 032a 01F02EBA 		b	.L199
 3799              	.L189:
 875:.\Protocolo.c **** 					}					
 876:.\Protocolo.c **** 				}
 877:.\Protocolo.c **** 				else{
 878:.\Protocolo.c **** 					Surtidor_ClearRxBuffer();
 3800              		.loc 1 878 0
 3801 032e FFF7FEFF 		bl	Surtidor_ClearRxBuffer
 879:.\Protocolo.c **** 					return 0;		
 3802              		.loc 1 879 0
 3803 0332 0023     		movs	r3, #0
 3804 0334 01F029BA 		b	.L199
 3805              	.L187:
 880:.\Protocolo.c **** 				}
 881:.\Protocolo.c **** 			}
 882:.\Protocolo.c **** 			else{
 883:.\Protocolo.c **** 				CyDelay(900);
 3806              		.loc 1 883 0
 3807 0338 4FF46170 		mov	r0, #900
 3808 033c FFF7FEFF 		bl	CyDelay
 884:.\Protocolo.c **** 				x=Surtidor_GetRxBufferSize();
 3809              		.loc 1 884 0
 3810 0340 FFF7FEFF 		bl	Surtidor_GetRxBufferSize
 3811 0344 0346     		mov	r3, r0
 3812 0346 FB73     		strb	r3, [r7, #15]
 885:.\Protocolo.c **** 				if((x==46)||(x==88)||(x==130)){				
 3813              		.loc 1 885 0
 3814 0348 FB7B     		ldrb	r3, [r7, #15]	@ zero_extendqisi2
 3815 034a 2E2B     		cmp	r3, #46
 3816 034c 06D0     		beq	.L226
 3817              		.loc 1 885 0 is_stmt 0 discriminator 1
 3818 034e FB7B     		ldrb	r3, [r7, #15]	@ zero_extendqisi2
 3819 0350 582B     		cmp	r3, #88
 3820 0352 03D0     		beq	.L226
 3821 0354 FB7B     		ldrb	r3, [r7, #15]	@ zero_extendqisi2
 3822 0356 822B     		cmp	r3, #130
 3823 0358 40F05981 		bne	.L227
 3824              	.L226:
 886:.\Protocolo.c **** 					if((Surtidor_rxBuffer[0]==0xFF)&&(Surtidor_rxBuffer[1]==0xF6)&&(Surtidor_rxBuffer[3]==0xF9)){
 3825              		.loc 1 886 0 is_stmt 1
 3826 035c 904B     		ldr	r3, .L493
 3827 035e 1B78     		ldrb	r3, [r3]
 3828 0360 DBB2     		uxtb	r3, r3
ARM GAS  C:\Users\RECEPC~1\AppData\Local\Temp\cc3fClzk.s 			page 86


 3829 0362 FF2B     		cmp	r3, #255
 3830 0364 40F04E81 		bne	.L228
 3831              		.loc 1 886 0 is_stmt 0 discriminator 1
 3832 0368 8D4B     		ldr	r3, .L493
 3833 036a 5B78     		ldrb	r3, [r3, #1]
 3834 036c DBB2     		uxtb	r3, r3
 3835 036e F62B     		cmp	r3, #246
 3836 0370 40F04881 		bne	.L228
 3837 0374 8A4B     		ldr	r3, .L493
 3838 0376 DB78     		ldrb	r3, [r3, #3]
 3839 0378 DBB2     		uxtb	r3, r3
 3840 037a F92B     		cmp	r3, #249
 3841 037c 40F04281 		bne	.L228
 887:.\Protocolo.c ****                     	for(y=0;y<=2;y++){
 3842              		.loc 1 887 0 is_stmt 1
 3843 0380 0023     		movs	r3, #0
 3844 0382 BB73     		strb	r3, [r7, #14]
 3845 0384 16E0     		b	.L229
 3846              	.L232:
 888:.\Protocolo.c ****                     		for(x=0;x<=23;x++){
 3847              		.loc 1 888 0
 3848 0386 0023     		movs	r3, #0
 3849 0388 FB73     		strb	r3, [r7, #15]
 3850 038a 0DE0     		b	.L230
 3851              	.L231:
 889:.\Protocolo.c ****                     			lado1.totales[y][x]=0;
 3852              		.loc 1 889 0 discriminator 2
 3853 038c BA7B     		ldrb	r2, [r7, #14]	@ zero_extendqisi2
 3854 038e F87B     		ldrb	r0, [r7, #15]	@ zero_extendqisi2
 3855 0390 8449     		ldr	r1, .L493+4
 3856 0392 1346     		mov	r3, r2
 3857 0394 5B00     		lsls	r3, r3, #1
 3858 0396 1344     		add	r3, r3, r2
 3859 0398 DB00     		lsls	r3, r3, #3
 3860 039a 0344     		add	r3, r3, r0
 3861 039c 0B44     		add	r3, r3, r1
 3862 039e 0022     		movs	r2, #0
 3863 03a0 9A70     		strb	r2, [r3, #2]
 888:.\Protocolo.c ****                     		for(x=0;x<=23;x++){
 3864              		.loc 1 888 0 discriminator 2
 3865 03a2 FB7B     		ldrb	r3, [r7, #15]	@ zero_extendqisi2
 3866 03a4 0133     		adds	r3, r3, #1
 3867 03a6 FB73     		strb	r3, [r7, #15]
 3868              	.L230:
 888:.\Protocolo.c ****                     		for(x=0;x<=23;x++){
 3869              		.loc 1 888 0 is_stmt 0 discriminator 1
 3870 03a8 FB7B     		ldrb	r3, [r7, #15]	@ zero_extendqisi2
 3871 03aa 172B     		cmp	r3, #23
 3872 03ac EED9     		bls	.L231
 887:.\Protocolo.c ****                     	for(y=0;y<=2;y++){
 3873              		.loc 1 887 0 is_stmt 1
 3874 03ae BB7B     		ldrb	r3, [r7, #14]	@ zero_extendqisi2
 3875 03b0 0133     		adds	r3, r3, #1
 3876 03b2 BB73     		strb	r3, [r7, #14]
 3877              	.L229:
 887:.\Protocolo.c ****                     	for(y=0;y<=2;y++){
 3878              		.loc 1 887 0 is_stmt 0 discriminator 1
ARM GAS  C:\Users\RECEPC~1\AppData\Local\Temp\cc3fClzk.s 			page 87


 3879 03b4 BB7B     		ldrb	r3, [r7, #14]	@ zero_extendqisi2
 3880 03b6 022B     		cmp	r3, #2
 3881 03b8 E5D9     		bls	.L232
 890:.\Protocolo.c ****                     		}
 891:.\Protocolo.c ****                     	}                        
 892:.\Protocolo.c **** 						for(x=0;x<=11;x++){
 3882              		.loc 1 892 0 is_stmt 1
 3883 03ba 0023     		movs	r3, #0
 3884 03bc FB73     		strb	r3, [r7, #15]
 3885 03be 0BE0     		b	.L233
 3886              	.L234:
 893:.\Protocolo.c **** 							lado1.totales[0][x]=Surtidor_rxBuffer[x+4];
 3887              		.loc 1 893 0 discriminator 2
 3888 03c0 FB7B     		ldrb	r3, [r7, #15]	@ zero_extendqisi2
 3889 03c2 FA7B     		ldrb	r2, [r7, #15]	@ zero_extendqisi2
 3890 03c4 0432     		adds	r2, r2, #4
 3891 03c6 7649     		ldr	r1, .L493
 3892 03c8 8A5C     		ldrb	r2, [r1, r2]
 3893 03ca D2B2     		uxtb	r2, r2
 3894 03cc 7549     		ldr	r1, .L493+4
 3895 03ce 0B44     		add	r3, r3, r1
 3896 03d0 9A70     		strb	r2, [r3, #2]
 892:.\Protocolo.c **** 						for(x=0;x<=11;x++){
 3897              		.loc 1 892 0 discriminator 2
 3898 03d2 FB7B     		ldrb	r3, [r7, #15]	@ zero_extendqisi2
 3899 03d4 0133     		adds	r3, r3, #1
 3900 03d6 FB73     		strb	r3, [r7, #15]
 3901              	.L233:
 892:.\Protocolo.c **** 						for(x=0;x<=11;x++){
 3902              		.loc 1 892 0 is_stmt 0 discriminator 1
 3903 03d8 FB7B     		ldrb	r3, [r7, #15]	@ zero_extendqisi2
 3904 03da 0B2B     		cmp	r3, #11
 3905 03dc F0D9     		bls	.L234
 894:.\Protocolo.c **** 						}
 895:.\Protocolo.c **** 						for(x=0;x<=11;x++){
 3906              		.loc 1 895 0 is_stmt 1
 3907 03de 0023     		movs	r3, #0
 3908 03e0 FB73     		strb	r3, [r7, #15]
 3909 03e2 16E0     		b	.L235
 3910              	.L237:
 896:.\Protocolo.c ****                             if(Surtidor_rxBuffer[x+17]==0){
 3911              		.loc 1 896 0
 3912 03e4 FB7B     		ldrb	r3, [r7, #15]	@ zero_extendqisi2
 3913 03e6 1133     		adds	r3, r3, #17
 3914 03e8 6D4A     		ldr	r2, .L493
 3915 03ea D35C     		ldrb	r3, [r2, r3]
 3916 03ec DBB2     		uxtb	r3, r3
 3917 03ee 002B     		cmp	r3, #0
 3918 03f0 02D1     		bne	.L236
 897:.\Protocolo.c ****                                 return 0;
 3919              		.loc 1 897 0
 3920 03f2 0023     		movs	r3, #0
 3921 03f4 01F0C9B9 		b	.L199
 3922              	.L236:
 898:.\Protocolo.c ****                             }                             
 899:.\Protocolo.c **** 							lado1.totales[0][x+12]=Surtidor_rxBuffer[x+17];
 3923              		.loc 1 899 0
ARM GAS  C:\Users\RECEPC~1\AppData\Local\Temp\cc3fClzk.s 			page 88


 3924 03f8 FB7B     		ldrb	r3, [r7, #15]	@ zero_extendqisi2
 3925 03fa 0C33     		adds	r3, r3, #12
 3926 03fc FA7B     		ldrb	r2, [r7, #15]	@ zero_extendqisi2
 3927 03fe 1132     		adds	r2, r2, #17
 3928 0400 6749     		ldr	r1, .L493
 3929 0402 8A5C     		ldrb	r2, [r1, r2]
 3930 0404 D2B2     		uxtb	r2, r2
 3931 0406 6749     		ldr	r1, .L493+4
 3932 0408 0B44     		add	r3, r3, r1
 3933 040a 9A70     		strb	r2, [r3, #2]
 895:.\Protocolo.c **** 						for(x=0;x<=11;x++){
 3934              		.loc 1 895 0
 3935 040c FB7B     		ldrb	r3, [r7, #15]	@ zero_extendqisi2
 3936 040e 0133     		adds	r3, r3, #1
 3937 0410 FB73     		strb	r3, [r7, #15]
 3938              	.L235:
 895:.\Protocolo.c **** 						for(x=0;x<=11;x++){
 3939              		.loc 1 895 0 is_stmt 0 discriminator 1
 3940 0412 FB7B     		ldrb	r3, [r7, #15]	@ zero_extendqisi2
 3941 0414 0B2B     		cmp	r3, #11
 3942 0416 E5D9     		bls	.L237
 900:.\Protocolo.c **** 						}
 901:.\Protocolo.c **** 						for(x=0;x<=4;x++){
 3943              		.loc 1 901 0 is_stmt 1
 3944 0418 0023     		movs	r3, #0
 3945 041a FB73     		strb	r3, [r7, #15]
 3946 041c 0CE0     		b	.L238
 3947              	.L239:
 902:.\Protocolo.c **** 							lado1.ppu[0][x]=Surtidor_rxBuffer[x+30];
 3948              		.loc 1 902 0 discriminator 2
 3949 041e FB7B     		ldrb	r3, [r7, #15]	@ zero_extendqisi2
 3950 0420 FA7B     		ldrb	r2, [r7, #15]	@ zero_extendqisi2
 3951 0422 1E32     		adds	r2, r2, #30
 3952 0424 5E49     		ldr	r1, .L493
 3953 0426 8A5C     		ldrb	r2, [r1, r2]
 3954 0428 D2B2     		uxtb	r2, r2
 3955 042a 5E49     		ldr	r1, .L493+4
 3956 042c 0B44     		add	r3, r3, r1
 3957 042e 83F84A20 		strb	r2, [r3, #74]
 901:.\Protocolo.c **** 						for(x=0;x<=4;x++){
 3958              		.loc 1 901 0 discriminator 2
 3959 0432 FB7B     		ldrb	r3, [r7, #15]	@ zero_extendqisi2
 3960 0434 0133     		adds	r3, r3, #1
 3961 0436 FB73     		strb	r3, [r7, #15]
 3962              	.L238:
 901:.\Protocolo.c **** 						for(x=0;x<=4;x++){
 3963              		.loc 1 901 0 is_stmt 0 discriminator 1
 3964 0438 FB7B     		ldrb	r3, [r7, #15]	@ zero_extendqisi2
 3965 043a 042B     		cmp	r3, #4
 3966 043c EFD9     		bls	.L239
 903:.\Protocolo.c **** 						}				
 904:.\Protocolo.c **** 						if(nmangueras==2){
 3967              		.loc 1 904 0 is_stmt 1
 3968 043e BB79     		ldrb	r3, [r7, #6]	@ zero_extendqisi2
 3969 0440 022B     		cmp	r3, #2
 3970 0442 46D1     		bne	.L240
 905:.\Protocolo.c **** 							for(x=0;x<=11;x++){
ARM GAS  C:\Users\RECEPC~1\AppData\Local\Temp\cc3fClzk.s 			page 89


 3971              		.loc 1 905 0
 3972 0444 0023     		movs	r3, #0
 3973 0446 FB73     		strb	r3, [r7, #15]
 3974 0448 0BE0     		b	.L241
 3975              	.L242:
 906:.\Protocolo.c **** 								lado1.totales[1][x]=Surtidor_rxBuffer[x+46];
 3976              		.loc 1 906 0 discriminator 2
 3977 044a FB7B     		ldrb	r3, [r7, #15]	@ zero_extendqisi2
 3978 044c FA7B     		ldrb	r2, [r7, #15]	@ zero_extendqisi2
 3979 044e 2E32     		adds	r2, r2, #46
 3980 0450 5349     		ldr	r1, .L493
 3981 0452 8A5C     		ldrb	r2, [r1, r2]
 3982 0454 D2B2     		uxtb	r2, r2
 3983 0456 5349     		ldr	r1, .L493+4
 3984 0458 0B44     		add	r3, r3, r1
 3985 045a 9A76     		strb	r2, [r3, #26]
 905:.\Protocolo.c **** 							for(x=0;x<=11;x++){
 3986              		.loc 1 905 0 discriminator 2
 3987 045c FB7B     		ldrb	r3, [r7, #15]	@ zero_extendqisi2
 3988 045e 0133     		adds	r3, r3, #1
 3989 0460 FB73     		strb	r3, [r7, #15]
 3990              	.L241:
 905:.\Protocolo.c **** 							for(x=0;x<=11;x++){
 3991              		.loc 1 905 0 is_stmt 0 discriminator 1
 3992 0462 FB7B     		ldrb	r3, [r7, #15]	@ zero_extendqisi2
 3993 0464 0B2B     		cmp	r3, #11
 3994 0466 F0D9     		bls	.L242
 907:.\Protocolo.c **** 							}
 908:.\Protocolo.c **** 							for(x=0;x<=11;x++){
 3995              		.loc 1 908 0 is_stmt 1
 3996 0468 0023     		movs	r3, #0
 3997 046a FB73     		strb	r3, [r7, #15]
 3998 046c 16E0     		b	.L243
 3999              	.L245:
 909:.\Protocolo.c ****                                 if(Surtidor_rxBuffer[x+59]==0){
 4000              		.loc 1 909 0
 4001 046e FB7B     		ldrb	r3, [r7, #15]	@ zero_extendqisi2
 4002 0470 3B33     		adds	r3, r3, #59
 4003 0472 4B4A     		ldr	r2, .L493
 4004 0474 D35C     		ldrb	r3, [r2, r3]
 4005 0476 DBB2     		uxtb	r3, r3
 4006 0478 002B     		cmp	r3, #0
 4007 047a 02D1     		bne	.L244
 910:.\Protocolo.c ****                                     return 0;
 4008              		.loc 1 910 0
 4009 047c 0023     		movs	r3, #0
 4010 047e 01F084B9 		b	.L199
 4011              	.L244:
 911:.\Protocolo.c ****                                 }                                 
 912:.\Protocolo.c **** 								lado1.totales[1][x+12]=Surtidor_rxBuffer[x+59];
 4012              		.loc 1 912 0
 4013 0482 FB7B     		ldrb	r3, [r7, #15]	@ zero_extendqisi2
 4014 0484 0C33     		adds	r3, r3, #12
 4015 0486 FA7B     		ldrb	r2, [r7, #15]	@ zero_extendqisi2
 4016 0488 3B32     		adds	r2, r2, #59
 4017 048a 4549     		ldr	r1, .L493
 4018 048c 8A5C     		ldrb	r2, [r1, r2]
ARM GAS  C:\Users\RECEPC~1\AppData\Local\Temp\cc3fClzk.s 			page 90


 4019 048e D2B2     		uxtb	r2, r2
 4020 0490 4449     		ldr	r1, .L493+4
 4021 0492 0B44     		add	r3, r3, r1
 4022 0494 9A76     		strb	r2, [r3, #26]
 908:.\Protocolo.c **** 							for(x=0;x<=11;x++){
 4023              		.loc 1 908 0
 4024 0496 FB7B     		ldrb	r3, [r7, #15]	@ zero_extendqisi2
 4025 0498 0133     		adds	r3, r3, #1
 4026 049a FB73     		strb	r3, [r7, #15]
 4027              	.L243:
 908:.\Protocolo.c **** 							for(x=0;x<=11;x++){
 4028              		.loc 1 908 0 is_stmt 0 discriminator 1
 4029 049c FB7B     		ldrb	r3, [r7, #15]	@ zero_extendqisi2
 4030 049e 0B2B     		cmp	r3, #11
 4031 04a0 E5D9     		bls	.L245
 913:.\Protocolo.c **** 							}
 914:.\Protocolo.c **** 							for(x=0;x<=4;x++){
 4032              		.loc 1 914 0 is_stmt 1
 4033 04a2 0023     		movs	r3, #0
 4034 04a4 FB73     		strb	r3, [r7, #15]
 4035 04a6 0CE0     		b	.L246
 4036              	.L247:
 915:.\Protocolo.c **** 								lado1.ppu[1][x]=Surtidor_rxBuffer[x+72];
 4037              		.loc 1 915 0 discriminator 2
 4038 04a8 FB7B     		ldrb	r3, [r7, #15]	@ zero_extendqisi2
 4039 04aa FA7B     		ldrb	r2, [r7, #15]	@ zero_extendqisi2
 4040 04ac 4832     		adds	r2, r2, #72
 4041 04ae 3C49     		ldr	r1, .L493
 4042 04b0 8A5C     		ldrb	r2, [r1, r2]
 4043 04b2 D2B2     		uxtb	r2, r2
 4044 04b4 3B49     		ldr	r1, .L493+4
 4045 04b6 0B44     		add	r3, r3, r1
 4046 04b8 83F84F20 		strb	r2, [r3, #79]
 914:.\Protocolo.c **** 							for(x=0;x<=4;x++){
 4047              		.loc 1 914 0 discriminator 2
 4048 04bc FB7B     		ldrb	r3, [r7, #15]	@ zero_extendqisi2
 4049 04be 0133     		adds	r3, r3, #1
 4050 04c0 FB73     		strb	r3, [r7, #15]
 4051              	.L246:
 914:.\Protocolo.c **** 							for(x=0;x<=4;x++){
 4052              		.loc 1 914 0 is_stmt 0 discriminator 1
 4053 04c2 FB7B     		ldrb	r3, [r7, #15]	@ zero_extendqisi2
 4054 04c4 042B     		cmp	r3, #4
 4055 04c6 EFD9     		bls	.L247
 916:.\Protocolo.c **** 							}
 917:.\Protocolo.c ****     						Surtidor_ClearRxBuffer();
 4056              		.loc 1 917 0 is_stmt 1
 4057 04c8 FFF7FEFF 		bl	Surtidor_ClearRxBuffer
 918:.\Protocolo.c ****     						return 2;                            
 4058              		.loc 1 918 0
 4059 04cc 0223     		movs	r3, #2
 4060 04ce 01F05CB9 		b	.L199
 4061              	.L240:
 919:.\Protocolo.c **** 						}
 920:.\Protocolo.c **** 						if(nmangueras==3){
 4062              		.loc 1 920 0
 4063 04d2 BB79     		ldrb	r3, [r7, #6]	@ zero_extendqisi2
ARM GAS  C:\Users\RECEPC~1\AppData\Local\Temp\cc3fClzk.s 			page 91


 4064 04d4 032B     		cmp	r3, #3
 4065 04d6 40F09080 		bne	.L248
 921:.\Protocolo.c **** 							for(x=0;x<=11;x++){
 4066              		.loc 1 921 0
 4067 04da 0023     		movs	r3, #0
 4068 04dc FB73     		strb	r3, [r7, #15]
 4069 04de 0BE0     		b	.L249
 4070              	.L250:
 922:.\Protocolo.c **** 								lado1.totales[1][x]=Surtidor_rxBuffer[x+46];
 4071              		.loc 1 922 0 discriminator 2
 4072 04e0 FB7B     		ldrb	r3, [r7, #15]	@ zero_extendqisi2
 4073 04e2 FA7B     		ldrb	r2, [r7, #15]	@ zero_extendqisi2
 4074 04e4 2E32     		adds	r2, r2, #46
 4075 04e6 2E49     		ldr	r1, .L493
 4076 04e8 8A5C     		ldrb	r2, [r1, r2]
 4077 04ea D2B2     		uxtb	r2, r2
 4078 04ec 2D49     		ldr	r1, .L493+4
 4079 04ee 0B44     		add	r3, r3, r1
 4080 04f0 9A76     		strb	r2, [r3, #26]
 921:.\Protocolo.c **** 							for(x=0;x<=11;x++){
 4081              		.loc 1 921 0 discriminator 2
 4082 04f2 FB7B     		ldrb	r3, [r7, #15]	@ zero_extendqisi2
 4083 04f4 0133     		adds	r3, r3, #1
 4084 04f6 FB73     		strb	r3, [r7, #15]
 4085              	.L249:
 921:.\Protocolo.c **** 							for(x=0;x<=11;x++){
 4086              		.loc 1 921 0 is_stmt 0 discriminator 1
 4087 04f8 FB7B     		ldrb	r3, [r7, #15]	@ zero_extendqisi2
 4088 04fa 0B2B     		cmp	r3, #11
 4089 04fc F0D9     		bls	.L250
 923:.\Protocolo.c **** 							}
 924:.\Protocolo.c **** 							for(x=0;x<=11;x++){
 4090              		.loc 1 924 0 is_stmt 1
 4091 04fe 0023     		movs	r3, #0
 4092 0500 FB73     		strb	r3, [r7, #15]
 4093 0502 16E0     		b	.L251
 4094              	.L253:
 925:.\Protocolo.c ****                                 if(Surtidor_rxBuffer[x+59]==0){
 4095              		.loc 1 925 0
 4096 0504 FB7B     		ldrb	r3, [r7, #15]	@ zero_extendqisi2
 4097 0506 3B33     		adds	r3, r3, #59
 4098 0508 254A     		ldr	r2, .L493
 4099 050a D35C     		ldrb	r3, [r2, r3]
 4100 050c DBB2     		uxtb	r3, r3
 4101 050e 002B     		cmp	r3, #0
 4102 0510 02D1     		bne	.L252
 926:.\Protocolo.c ****                                     return 0;
 4103              		.loc 1 926 0
 4104 0512 0023     		movs	r3, #0
 4105 0514 01F039B9 		b	.L199
 4106              	.L252:
 927:.\Protocolo.c ****                                 }                                 
 928:.\Protocolo.c **** 								lado1.totales[1][x+12]=Surtidor_rxBuffer[x+59];
 4107              		.loc 1 928 0
 4108 0518 FB7B     		ldrb	r3, [r7, #15]	@ zero_extendqisi2
 4109 051a 0C33     		adds	r3, r3, #12
 4110 051c FA7B     		ldrb	r2, [r7, #15]	@ zero_extendqisi2
ARM GAS  C:\Users\RECEPC~1\AppData\Local\Temp\cc3fClzk.s 			page 92


 4111 051e 3B32     		adds	r2, r2, #59
 4112 0520 1F49     		ldr	r1, .L493
 4113 0522 8A5C     		ldrb	r2, [r1, r2]
 4114 0524 D2B2     		uxtb	r2, r2
 4115 0526 1F49     		ldr	r1, .L493+4
 4116 0528 0B44     		add	r3, r3, r1
 4117 052a 9A76     		strb	r2, [r3, #26]
 924:.\Protocolo.c **** 							for(x=0;x<=11;x++){
 4118              		.loc 1 924 0
 4119 052c FB7B     		ldrb	r3, [r7, #15]	@ zero_extendqisi2
 4120 052e 0133     		adds	r3, r3, #1
 4121 0530 FB73     		strb	r3, [r7, #15]
 4122              	.L251:
 924:.\Protocolo.c **** 							for(x=0;x<=11;x++){
 4123              		.loc 1 924 0 is_stmt 0 discriminator 1
 4124 0532 FB7B     		ldrb	r3, [r7, #15]	@ zero_extendqisi2
 4125 0534 0B2B     		cmp	r3, #11
 4126 0536 E5D9     		bls	.L253
 929:.\Protocolo.c **** 							}
 930:.\Protocolo.c **** 							for(x=0;x<=4;x++){
 4127              		.loc 1 930 0 is_stmt 1
 4128 0538 0023     		movs	r3, #0
 4129 053a FB73     		strb	r3, [r7, #15]
 4130 053c 0CE0     		b	.L254
 4131              	.L255:
 931:.\Protocolo.c **** 								lado1.ppu[1][x]=Surtidor_rxBuffer[x+72];
 4132              		.loc 1 931 0 discriminator 2
 4133 053e FB7B     		ldrb	r3, [r7, #15]	@ zero_extendqisi2
 4134 0540 FA7B     		ldrb	r2, [r7, #15]	@ zero_extendqisi2
 4135 0542 4832     		adds	r2, r2, #72
 4136 0544 1649     		ldr	r1, .L493
 4137 0546 8A5C     		ldrb	r2, [r1, r2]
 4138 0548 D2B2     		uxtb	r2, r2
 4139 054a 1649     		ldr	r1, .L493+4
 4140 054c 0B44     		add	r3, r3, r1
 4141 054e 83F84F20 		strb	r2, [r3, #79]
 930:.\Protocolo.c **** 							for(x=0;x<=4;x++){
 4142              		.loc 1 930 0 discriminator 2
 4143 0552 FB7B     		ldrb	r3, [r7, #15]	@ zero_extendqisi2
 4144 0554 0133     		adds	r3, r3, #1
 4145 0556 FB73     		strb	r3, [r7, #15]
 4146              	.L254:
 930:.\Protocolo.c **** 							for(x=0;x<=4;x++){
 4147              		.loc 1 930 0 is_stmt 0 discriminator 1
 4148 0558 FB7B     		ldrb	r3, [r7, #15]	@ zero_extendqisi2
 4149 055a 042B     		cmp	r3, #4
 4150 055c EFD9     		bls	.L255
 932:.\Protocolo.c **** 							}					
 933:.\Protocolo.c **** 							for(x=0;x<=11;x++){
 4151              		.loc 1 933 0 is_stmt 1
 4152 055e 0023     		movs	r3, #0
 4153 0560 FB73     		strb	r3, [r7, #15]
 4154 0562 0CE0     		b	.L256
 4155              	.L257:
 934:.\Protocolo.c **** 								lado1.totales[2][x]=Surtidor_rxBuffer[x+88];
 4156              		.loc 1 934 0 discriminator 2
 4157 0564 FB7B     		ldrb	r3, [r7, #15]	@ zero_extendqisi2
ARM GAS  C:\Users\RECEPC~1\AppData\Local\Temp\cc3fClzk.s 			page 93


 4158 0566 FA7B     		ldrb	r2, [r7, #15]	@ zero_extendqisi2
 4159 0568 5832     		adds	r2, r2, #88
 4160 056a 0D49     		ldr	r1, .L493
 4161 056c 8A5C     		ldrb	r2, [r1, r2]
 4162 056e D2B2     		uxtb	r2, r2
 4163 0570 0C49     		ldr	r1, .L493+4
 4164 0572 0B44     		add	r3, r3, r1
 4165 0574 83F83220 		strb	r2, [r3, #50]
 933:.\Protocolo.c **** 							for(x=0;x<=11;x++){
 4166              		.loc 1 933 0 discriminator 2
 4167 0578 FB7B     		ldrb	r3, [r7, #15]	@ zero_extendqisi2
 4168 057a 0133     		adds	r3, r3, #1
 4169 057c FB73     		strb	r3, [r7, #15]
 4170              	.L256:
 933:.\Protocolo.c **** 							for(x=0;x<=11;x++){
 4171              		.loc 1 933 0 is_stmt 0 discriminator 1
 4172 057e FB7B     		ldrb	r3, [r7, #15]	@ zero_extendqisi2
 4173 0580 0B2B     		cmp	r3, #11
 4174 0582 EFD9     		bls	.L257
 935:.\Protocolo.c **** 							}
 936:.\Protocolo.c **** 							for(x=0;x<=11;x++){
 4175              		.loc 1 936 0 is_stmt 1
 4176 0584 0023     		movs	r3, #0
 4177 0586 FB73     		strb	r3, [r7, #15]
 4178 0588 1CE0     		b	.L258
 4179              	.L260:
 937:.\Protocolo.c ****                                  if(Surtidor_rxBuffer[x+101]==0){
 4180              		.loc 1 937 0
 4181 058a FB7B     		ldrb	r3, [r7, #15]	@ zero_extendqisi2
 4182 058c 6533     		adds	r3, r3, #101
 4183 058e 044A     		ldr	r2, .L493
 4184 0590 D35C     		ldrb	r3, [r2, r3]
 4185 0592 DBB2     		uxtb	r3, r3
 4186 0594 002B     		cmp	r3, #0
 4187 0596 07D1     		bne	.L259
 938:.\Protocolo.c ****                                     return 0;
 4188              		.loc 1 938 0
 4189 0598 0023     		movs	r3, #0
 4190 059a 01F0F6B8 		b	.L199
 4191              	.L494:
 4192 059e 00BF     		.align	2
 4193              	.L493:
 4194 05a0 00000000 		.word	Surtidor_rxBuffer
 4195 05a4 00000000 		.word	lado1
 4196              	.L259:
 939:.\Protocolo.c ****                                 }                                
 940:.\Protocolo.c **** 								lado1.totales[2][x+12]=Surtidor_rxBuffer[x+101];
 4197              		.loc 1 940 0
 4198 05a8 FB7B     		ldrb	r3, [r7, #15]	@ zero_extendqisi2
 4199 05aa 0C33     		adds	r3, r3, #12
 4200 05ac FA7B     		ldrb	r2, [r7, #15]	@ zero_extendqisi2
 4201 05ae 6532     		adds	r2, r2, #101
 4202 05b0 AB49     		ldr	r1, .L495
 4203 05b2 8A5C     		ldrb	r2, [r1, r2]
 4204 05b4 D2B2     		uxtb	r2, r2
 4205 05b6 AB49     		ldr	r1, .L495+4
 4206 05b8 0B44     		add	r3, r3, r1
ARM GAS  C:\Users\RECEPC~1\AppData\Local\Temp\cc3fClzk.s 			page 94


 4207 05ba 83F83220 		strb	r2, [r3, #50]
 936:.\Protocolo.c **** 							for(x=0;x<=11;x++){
 4208              		.loc 1 936 0
 4209 05be FB7B     		ldrb	r3, [r7, #15]	@ zero_extendqisi2
 4210 05c0 0133     		adds	r3, r3, #1
 4211 05c2 FB73     		strb	r3, [r7, #15]
 4212              	.L258:
 936:.\Protocolo.c **** 							for(x=0;x<=11;x++){
 4213              		.loc 1 936 0 is_stmt 0 discriminator 1
 4214 05c4 FB7B     		ldrb	r3, [r7, #15]	@ zero_extendqisi2
 4215 05c6 0B2B     		cmp	r3, #11
 4216 05c8 DFD9     		bls	.L260
 941:.\Protocolo.c **** 							}
 942:.\Protocolo.c **** 							for(x=0;x<=4;x++){
 4217              		.loc 1 942 0 is_stmt 1
 4218 05ca 0023     		movs	r3, #0
 4219 05cc FB73     		strb	r3, [r7, #15]
 4220 05ce 0CE0     		b	.L261
 4221              	.L262:
 943:.\Protocolo.c **** 								lado1.ppu[2][x]=Surtidor_rxBuffer[x+114];
 4222              		.loc 1 943 0 discriminator 2
 4223 05d0 FB7B     		ldrb	r3, [r7, #15]	@ zero_extendqisi2
 4224 05d2 FA7B     		ldrb	r2, [r7, #15]	@ zero_extendqisi2
 4225 05d4 7232     		adds	r2, r2, #114
 4226 05d6 A249     		ldr	r1, .L495
 4227 05d8 8A5C     		ldrb	r2, [r1, r2]
 4228 05da D2B2     		uxtb	r2, r2
 4229 05dc A149     		ldr	r1, .L495+4
 4230 05de 0B44     		add	r3, r3, r1
 4231 05e0 83F85420 		strb	r2, [r3, #84]
 942:.\Protocolo.c **** 							for(x=0;x<=4;x++){
 4232              		.loc 1 942 0 discriminator 2
 4233 05e4 FB7B     		ldrb	r3, [r7, #15]	@ zero_extendqisi2
 4234 05e6 0133     		adds	r3, r3, #1
 4235 05e8 FB73     		strb	r3, [r7, #15]
 4236              	.L261:
 942:.\Protocolo.c **** 							for(x=0;x<=4;x++){
 4237              		.loc 1 942 0 is_stmt 0 discriminator 1
 4238 05ea FB7B     		ldrb	r3, [r7, #15]	@ zero_extendqisi2
 4239 05ec 042B     		cmp	r3, #4
 4240 05ee EFD9     		bls	.L262
 944:.\Protocolo.c **** 							}
 945:.\Protocolo.c ****     						Surtidor_ClearRxBuffer();
 4241              		.loc 1 945 0 is_stmt 1
 4242 05f0 FFF7FEFF 		bl	Surtidor_ClearRxBuffer
 946:.\Protocolo.c ****     						return 3;                            
 4243              		.loc 1 946 0
 4244 05f4 0323     		movs	r3, #3
 4245 05f6 01F0C8B8 		b	.L199
 4246              	.L248:
 947:.\Protocolo.c **** 						}
 948:.\Protocolo.c **** 						Surtidor_ClearRxBuffer();
 4247              		.loc 1 948 0
 4248 05fa FFF7FEFF 		bl	Surtidor_ClearRxBuffer
 949:.\Protocolo.c **** 						return 1;			
 4249              		.loc 1 949 0
 4250 05fe 0123     		movs	r3, #1
ARM GAS  C:\Users\RECEPC~1\AppData\Local\Temp\cc3fClzk.s 			page 95


 4251 0600 01F0C3B8 		b	.L199
 4252              	.L228:
 950:.\Protocolo.c **** 					}
 951:.\Protocolo.c **** 					else{
 952:.\Protocolo.c **** 						Surtidor_ClearRxBuffer();
 4253              		.loc 1 952 0
 4254 0604 FFF7FEFF 		bl	Surtidor_ClearRxBuffer
 953:.\Protocolo.c **** 						return 0;					
 4255              		.loc 1 953 0
 4256 0608 0023     		movs	r3, #0
 4257 060a 01F0BEB8 		b	.L199
 4258              	.L227:
 954:.\Protocolo.c **** 					}
 955:.\Protocolo.c **** 				}
 956:.\Protocolo.c **** 				else{
 957:.\Protocolo.c **** 					Surtidor_ClearRxBuffer();
 4259              		.loc 1 957 0
 4260 060e FFF7FEFF 		bl	Surtidor_ClearRxBuffer
 958:.\Protocolo.c **** 					return 0;		
 4261              		.loc 1 958 0
 4262 0612 0023     		movs	r3, #0
 4263 0614 01F0B9B8 		b	.L199
 4264              	.L186:
 959:.\Protocolo.c **** 				}	
 960:.\Protocolo.c **** 			}
 961:.\Protocolo.c **** 		}
 962:.\Protocolo.c **** 		else if(dir==lado2.dir){
 4265              		.loc 1 962 0
 4266 0618 934B     		ldr	r3, .L495+8
 4267 061a 1B78     		ldrb	r3, [r3]
 4268 061c DBB2     		uxtb	r3, r3
 4269 061e FA79     		ldrb	r2, [r7, #7]	@ zero_extendqisi2
 4270 0620 9A42     		cmp	r2, r3
 4271 0622 40F0E982 		bne	.L263
 963:.\Protocolo.c **** 			if(version[1]!=7){
 4272              		.loc 1 963 0
 4273 0626 914B     		ldr	r3, .L495+12
 4274 0628 5B78     		ldrb	r3, [r3, #1]
 4275 062a DBB2     		uxtb	r3, r3
 4276 062c 072B     		cmp	r3, #7
 4277 062e 00F07481 		beq	.L264
 964:.\Protocolo.c **** 				CyDelay(900);
 4278              		.loc 1 964 0
 4279 0632 4FF46170 		mov	r0, #900
 4280 0636 FFF7FEFF 		bl	CyDelay
 965:.\Protocolo.c **** 				x=Surtidor_GetRxBufferSize();
 4281              		.loc 1 965 0
 4282 063a FFF7FEFF 		bl	Surtidor_GetRxBufferSize
 4283 063e 0346     		mov	r3, r0
 4284 0640 FB73     		strb	r3, [r7, #15]
 966:.\Protocolo.c **** 				if((x==34)||(x==64)||(x==94)){				
 4285              		.loc 1 966 0
 4286 0642 FB7B     		ldrb	r3, [r7, #15]	@ zero_extendqisi2
 4287 0644 222B     		cmp	r3, #34
 4288 0646 06D0     		beq	.L265
 4289              		.loc 1 966 0 is_stmt 0 discriminator 1
 4290 0648 FB7B     		ldrb	r3, [r7, #15]	@ zero_extendqisi2
ARM GAS  C:\Users\RECEPC~1\AppData\Local\Temp\cc3fClzk.s 			page 96


 4291 064a 402B     		cmp	r3, #64
 4292 064c 03D0     		beq	.L265
 4293 064e FB7B     		ldrb	r3, [r7, #15]	@ zero_extendqisi2
 4294 0650 5E2B     		cmp	r3, #94
 4295 0652 40F05D81 		bne	.L266
 4296              	.L265:
 967:.\Protocolo.c **** 					if((Surtidor_rxBuffer[0]==0xFF)&&(Surtidor_rxBuffer[1]==0xF6)&&(Surtidor_rxBuffer[3]==0xF9)){
 4297              		.loc 1 967 0 is_stmt 1
 4298 0656 824B     		ldr	r3, .L495
 4299 0658 1B78     		ldrb	r3, [r3]
 4300 065a DBB2     		uxtb	r3, r3
 4301 065c FF2B     		cmp	r3, #255
 4302 065e 40F05281 		bne	.L267
 4303              		.loc 1 967 0 is_stmt 0 discriminator 1
 4304 0662 7F4B     		ldr	r3, .L495
 4305 0664 5B78     		ldrb	r3, [r3, #1]
 4306 0666 DBB2     		uxtb	r3, r3
 4307 0668 F62B     		cmp	r3, #246
 4308 066a 40F04C81 		bne	.L267
 4309 066e 7C4B     		ldr	r3, .L495
 4310 0670 DB78     		ldrb	r3, [r3, #3]
 4311 0672 DBB2     		uxtb	r3, r3
 4312 0674 F92B     		cmp	r3, #249
 4313 0676 40F04681 		bne	.L267
 968:.\Protocolo.c ****                     	for(y=0;y<=2;y++){
 4314              		.loc 1 968 0 is_stmt 1
 4315 067a 0023     		movs	r3, #0
 4316 067c BB73     		strb	r3, [r7, #14]
 4317 067e 16E0     		b	.L268
 4318              	.L271:
 969:.\Protocolo.c ****                     		for(x=0;x<=23;x++){
 4319              		.loc 1 969 0
 4320 0680 0023     		movs	r3, #0
 4321 0682 FB73     		strb	r3, [r7, #15]
 4322 0684 0DE0     		b	.L269
 4323              	.L270:
 970:.\Protocolo.c ****                     			lado2.totales[y][x]=0;
 4324              		.loc 1 970 0 discriminator 2
 4325 0686 BA7B     		ldrb	r2, [r7, #14]	@ zero_extendqisi2
 4326 0688 F87B     		ldrb	r0, [r7, #15]	@ zero_extendqisi2
 4327 068a 7749     		ldr	r1, .L495+8
 4328 068c 1346     		mov	r3, r2
 4329 068e 5B00     		lsls	r3, r3, #1
 4330 0690 1344     		add	r3, r3, r2
 4331 0692 DB00     		lsls	r3, r3, #3
 4332 0694 0344     		add	r3, r3, r0
 4333 0696 0B44     		add	r3, r3, r1
 4334 0698 0022     		movs	r2, #0
 4335 069a 9A70     		strb	r2, [r3, #2]
 969:.\Protocolo.c ****                     		for(x=0;x<=23;x++){
 4336              		.loc 1 969 0 discriminator 2
 4337 069c FB7B     		ldrb	r3, [r7, #15]	@ zero_extendqisi2
 4338 069e 0133     		adds	r3, r3, #1
 4339 06a0 FB73     		strb	r3, [r7, #15]
 4340              	.L269:
 969:.\Protocolo.c ****                     		for(x=0;x<=23;x++){
 4341              		.loc 1 969 0 is_stmt 0 discriminator 1
ARM GAS  C:\Users\RECEPC~1\AppData\Local\Temp\cc3fClzk.s 			page 97


 4342 06a2 FB7B     		ldrb	r3, [r7, #15]	@ zero_extendqisi2
 4343 06a4 172B     		cmp	r3, #23
 4344 06a6 EED9     		bls	.L270
 968:.\Protocolo.c ****                     	for(y=0;y<=2;y++){
 4345              		.loc 1 968 0 is_stmt 1
 4346 06a8 BB7B     		ldrb	r3, [r7, #14]	@ zero_extendqisi2
 4347 06aa 0133     		adds	r3, r3, #1
 4348 06ac BB73     		strb	r3, [r7, #14]
 4349              	.L268:
 968:.\Protocolo.c ****                     	for(y=0;y<=2;y++){
 4350              		.loc 1 968 0 is_stmt 0 discriminator 1
 4351 06ae BB7B     		ldrb	r3, [r7, #14]	@ zero_extendqisi2
 4352 06b0 022B     		cmp	r3, #2
 4353 06b2 E5D9     		bls	.L271
 971:.\Protocolo.c ****                     		}
 972:.\Protocolo.c ****                     	}                        
 973:.\Protocolo.c **** 						for(x=0;x<=7;x++){
 4354              		.loc 1 973 0 is_stmt 1
 4355 06b4 0023     		movs	r3, #0
 4356 06b6 FB73     		strb	r3, [r7, #15]
 4357 06b8 0BE0     		b	.L272
 4358              	.L273:
 974:.\Protocolo.c **** 							lado2.totales[0][x]=Surtidor_rxBuffer[x+4];
 4359              		.loc 1 974 0 discriminator 2
 4360 06ba FB7B     		ldrb	r3, [r7, #15]	@ zero_extendqisi2
 4361 06bc FA7B     		ldrb	r2, [r7, #15]	@ zero_extendqisi2
 4362 06be 0432     		adds	r2, r2, #4
 4363 06c0 6749     		ldr	r1, .L495
 4364 06c2 8A5C     		ldrb	r2, [r1, r2]
 4365 06c4 D2B2     		uxtb	r2, r2
 4366 06c6 6849     		ldr	r1, .L495+8
 4367 06c8 0B44     		add	r3, r3, r1
 4368 06ca 9A70     		strb	r2, [r3, #2]
 973:.\Protocolo.c **** 						for(x=0;x<=7;x++){
 4369              		.loc 1 973 0 discriminator 2
 4370 06cc FB7B     		ldrb	r3, [r7, #15]	@ zero_extendqisi2
 4371 06ce 0133     		adds	r3, r3, #1
 4372 06d0 FB73     		strb	r3, [r7, #15]
 4373              	.L272:
 973:.\Protocolo.c **** 						for(x=0;x<=7;x++){
 4374              		.loc 1 973 0 is_stmt 0 discriminator 1
 4375 06d2 FB7B     		ldrb	r3, [r7, #15]	@ zero_extendqisi2
 4376 06d4 072B     		cmp	r3, #7
 4377 06d6 F0D9     		bls	.L273
 975:.\Protocolo.c **** 						}
 976:.\Protocolo.c **** 						for(x=0;x<=7;x++){
 4378              		.loc 1 976 0 is_stmt 1
 4379 06d8 0023     		movs	r3, #0
 4380 06da FB73     		strb	r3, [r7, #15]
 4381 06dc 16E0     		b	.L274
 4382              	.L276:
 977:.\Protocolo.c ****                             if(Surtidor_rxBuffer[x+13]==0){
 4383              		.loc 1 977 0
 4384 06de FB7B     		ldrb	r3, [r7, #15]	@ zero_extendqisi2
 4385 06e0 0D33     		adds	r3, r3, #13
 4386 06e2 5F4A     		ldr	r2, .L495
 4387 06e4 D35C     		ldrb	r3, [r2, r3]
ARM GAS  C:\Users\RECEPC~1\AppData\Local\Temp\cc3fClzk.s 			page 98


 4388 06e6 DBB2     		uxtb	r3, r3
 4389 06e8 002B     		cmp	r3, #0
 4390 06ea 02D1     		bne	.L275
 978:.\Protocolo.c ****                                 return 0;
 4391              		.loc 1 978 0
 4392 06ec 0023     		movs	r3, #0
 4393 06ee 01F04CB8 		b	.L199
 4394              	.L275:
 979:.\Protocolo.c ****                             }                             
 980:.\Protocolo.c **** 							lado2.totales[0][x+12]=Surtidor_rxBuffer[x+13];
 4395              		.loc 1 980 0
 4396 06f2 FB7B     		ldrb	r3, [r7, #15]	@ zero_extendqisi2
 4397 06f4 0C33     		adds	r3, r3, #12
 4398 06f6 FA7B     		ldrb	r2, [r7, #15]	@ zero_extendqisi2
 4399 06f8 0D32     		adds	r2, r2, #13
 4400 06fa 5949     		ldr	r1, .L495
 4401 06fc 8A5C     		ldrb	r2, [r1, r2]
 4402 06fe D2B2     		uxtb	r2, r2
 4403 0700 5949     		ldr	r1, .L495+8
 4404 0702 0B44     		add	r3, r3, r1
 4405 0704 9A70     		strb	r2, [r3, #2]
 976:.\Protocolo.c **** 						for(x=0;x<=7;x++){
 4406              		.loc 1 976 0
 4407 0706 FB7B     		ldrb	r3, [r7, #15]	@ zero_extendqisi2
 4408 0708 0133     		adds	r3, r3, #1
 4409 070a FB73     		strb	r3, [r7, #15]
 4410              	.L274:
 976:.\Protocolo.c **** 						for(x=0;x<=7;x++){
 4411              		.loc 1 976 0 is_stmt 0 discriminator 1
 4412 070c FB7B     		ldrb	r3, [r7, #15]	@ zero_extendqisi2
 4413 070e 072B     		cmp	r3, #7
 4414 0710 E5D9     		bls	.L276
 981:.\Protocolo.c **** 						}
 982:.\Protocolo.c **** 						for(x=0;x<=3;x++){
 4415              		.loc 1 982 0 is_stmt 1
 4416 0712 0023     		movs	r3, #0
 4417 0714 FB73     		strb	r3, [r7, #15]
 4418 0716 0CE0     		b	.L277
 4419              	.L278:
 983:.\Protocolo.c **** 							lado2.ppu[0][x]=Surtidor_rxBuffer[x+22];
 4420              		.loc 1 983 0 discriminator 2
 4421 0718 FB7B     		ldrb	r3, [r7, #15]	@ zero_extendqisi2
 4422 071a FA7B     		ldrb	r2, [r7, #15]	@ zero_extendqisi2
 4423 071c 1632     		adds	r2, r2, #22
 4424 071e 5049     		ldr	r1, .L495
 4425 0720 8A5C     		ldrb	r2, [r1, r2]
 4426 0722 D2B2     		uxtb	r2, r2
 4427 0724 5049     		ldr	r1, .L495+8
 4428 0726 0B44     		add	r3, r3, r1
 4429 0728 83F84A20 		strb	r2, [r3, #74]
 982:.\Protocolo.c **** 						for(x=0;x<=3;x++){
 4430              		.loc 1 982 0 discriminator 2
 4431 072c FB7B     		ldrb	r3, [r7, #15]	@ zero_extendqisi2
 4432 072e 0133     		adds	r3, r3, #1
 4433 0730 FB73     		strb	r3, [r7, #15]
 4434              	.L277:
 982:.\Protocolo.c **** 						for(x=0;x<=3;x++){
ARM GAS  C:\Users\RECEPC~1\AppData\Local\Temp\cc3fClzk.s 			page 99


 4435              		.loc 1 982 0 is_stmt 0 discriminator 1
 4436 0732 FB7B     		ldrb	r3, [r7, #15]	@ zero_extendqisi2
 4437 0734 032B     		cmp	r3, #3
 4438 0736 EFD9     		bls	.L278
 984:.\Protocolo.c **** 						}				
 985:.\Protocolo.c **** 						if(nmangueras==2){
 4439              		.loc 1 985 0 is_stmt 1
 4440 0738 BB79     		ldrb	r3, [r7, #6]	@ zero_extendqisi2
 4441 073a 022B     		cmp	r3, #2
 4442 073c 46D1     		bne	.L279
 986:.\Protocolo.c **** 							for(x=0;x<=7;x++){
 4443              		.loc 1 986 0
 4444 073e 0023     		movs	r3, #0
 4445 0740 FB73     		strb	r3, [r7, #15]
 4446 0742 0BE0     		b	.L280
 4447              	.L281:
 987:.\Protocolo.c **** 								lado2.totales[1][x]=Surtidor_rxBuffer[x+34];
 4448              		.loc 1 987 0 discriminator 2
 4449 0744 FB7B     		ldrb	r3, [r7, #15]	@ zero_extendqisi2
 4450 0746 FA7B     		ldrb	r2, [r7, #15]	@ zero_extendqisi2
 4451 0748 2232     		adds	r2, r2, #34
 4452 074a 4549     		ldr	r1, .L495
 4453 074c 8A5C     		ldrb	r2, [r1, r2]
 4454 074e D2B2     		uxtb	r2, r2
 4455 0750 4549     		ldr	r1, .L495+8
 4456 0752 0B44     		add	r3, r3, r1
 4457 0754 9A76     		strb	r2, [r3, #26]
 986:.\Protocolo.c **** 							for(x=0;x<=7;x++){
 4458              		.loc 1 986 0 discriminator 2
 4459 0756 FB7B     		ldrb	r3, [r7, #15]	@ zero_extendqisi2
 4460 0758 0133     		adds	r3, r3, #1
 4461 075a FB73     		strb	r3, [r7, #15]
 4462              	.L280:
 986:.\Protocolo.c **** 							for(x=0;x<=7;x++){
 4463              		.loc 1 986 0 is_stmt 0 discriminator 1
 4464 075c FB7B     		ldrb	r3, [r7, #15]	@ zero_extendqisi2
 4465 075e 072B     		cmp	r3, #7
 4466 0760 F0D9     		bls	.L281
 988:.\Protocolo.c **** 							}
 989:.\Protocolo.c **** 							for(x=0;x<=7;x++){
 4467              		.loc 1 989 0 is_stmt 1
 4468 0762 0023     		movs	r3, #0
 4469 0764 FB73     		strb	r3, [r7, #15]
 4470 0766 16E0     		b	.L282
 4471              	.L284:
 990:.\Protocolo.c ****                                 if(Surtidor_rxBuffer[x+43]==0){
 4472              		.loc 1 990 0
 4473 0768 FB7B     		ldrb	r3, [r7, #15]	@ zero_extendqisi2
 4474 076a 2B33     		adds	r3, r3, #43
 4475 076c 3C4A     		ldr	r2, .L495
 4476 076e D35C     		ldrb	r3, [r2, r3]
 4477 0770 DBB2     		uxtb	r3, r3
 4478 0772 002B     		cmp	r3, #0
 4479 0774 02D1     		bne	.L283
 991:.\Protocolo.c ****                                     return 0;
 4480              		.loc 1 991 0
 4481 0776 0023     		movs	r3, #0
ARM GAS  C:\Users\RECEPC~1\AppData\Local\Temp\cc3fClzk.s 			page 100


 4482 0778 01F007B8 		b	.L199
 4483              	.L283:
 992:.\Protocolo.c ****                                 }                                 
 993:.\Protocolo.c **** 								lado2.totales[1][x+12]=Surtidor_rxBuffer[x+43];
 4484              		.loc 1 993 0
 4485 077c FB7B     		ldrb	r3, [r7, #15]	@ zero_extendqisi2
 4486 077e 0C33     		adds	r3, r3, #12
 4487 0780 FA7B     		ldrb	r2, [r7, #15]	@ zero_extendqisi2
 4488 0782 2B32     		adds	r2, r2, #43
 4489 0784 3649     		ldr	r1, .L495
 4490 0786 8A5C     		ldrb	r2, [r1, r2]
 4491 0788 D2B2     		uxtb	r2, r2
 4492 078a 3749     		ldr	r1, .L495+8
 4493 078c 0B44     		add	r3, r3, r1
 4494 078e 9A76     		strb	r2, [r3, #26]
 989:.\Protocolo.c **** 							for(x=0;x<=7;x++){
 4495              		.loc 1 989 0
 4496 0790 FB7B     		ldrb	r3, [r7, #15]	@ zero_extendqisi2
 4497 0792 0133     		adds	r3, r3, #1
 4498 0794 FB73     		strb	r3, [r7, #15]
 4499              	.L282:
 989:.\Protocolo.c **** 							for(x=0;x<=7;x++){
 4500              		.loc 1 989 0 is_stmt 0 discriminator 1
 4501 0796 FB7B     		ldrb	r3, [r7, #15]	@ zero_extendqisi2
 4502 0798 072B     		cmp	r3, #7
 4503 079a E5D9     		bls	.L284
 994:.\Protocolo.c **** 							}
 995:.\Protocolo.c **** 							for(x=0;x<=3;x++){
 4504              		.loc 1 995 0 is_stmt 1
 4505 079c 0023     		movs	r3, #0
 4506 079e FB73     		strb	r3, [r7, #15]
 4507 07a0 0CE0     		b	.L285
 4508              	.L286:
 996:.\Protocolo.c **** 								lado2.ppu[1][x]=Surtidor_rxBuffer[x+52];
 4509              		.loc 1 996 0 discriminator 2
 4510 07a2 FB7B     		ldrb	r3, [r7, #15]	@ zero_extendqisi2
 4511 07a4 FA7B     		ldrb	r2, [r7, #15]	@ zero_extendqisi2
 4512 07a6 3432     		adds	r2, r2, #52
 4513 07a8 2D49     		ldr	r1, .L495
 4514 07aa 8A5C     		ldrb	r2, [r1, r2]
 4515 07ac D2B2     		uxtb	r2, r2
 4516 07ae 2E49     		ldr	r1, .L495+8
 4517 07b0 0B44     		add	r3, r3, r1
 4518 07b2 83F84F20 		strb	r2, [r3, #79]
 995:.\Protocolo.c **** 							for(x=0;x<=3;x++){
 4519              		.loc 1 995 0 discriminator 2
 4520 07b6 FB7B     		ldrb	r3, [r7, #15]	@ zero_extendqisi2
 4521 07b8 0133     		adds	r3, r3, #1
 4522 07ba FB73     		strb	r3, [r7, #15]
 4523              	.L285:
 995:.\Protocolo.c **** 							for(x=0;x<=3;x++){
 4524              		.loc 1 995 0 is_stmt 0 discriminator 1
 4525 07bc FB7B     		ldrb	r3, [r7, #15]	@ zero_extendqisi2
 4526 07be 032B     		cmp	r3, #3
 4527 07c0 EFD9     		bls	.L286
 997:.\Protocolo.c **** 							}
 998:.\Protocolo.c ****     						Surtidor_ClearRxBuffer();
ARM GAS  C:\Users\RECEPC~1\AppData\Local\Temp\cc3fClzk.s 			page 101


 4528              		.loc 1 998 0 is_stmt 1
 4529 07c2 FFF7FEFF 		bl	Surtidor_ClearRxBuffer
 999:.\Protocolo.c ****     						return 2;                            
 4530              		.loc 1 999 0
 4531 07c6 0223     		movs	r3, #2
 4532 07c8 00F0DFBF 		b	.L199
 4533              	.L279:
1000:.\Protocolo.c **** 						}
1001:.\Protocolo.c **** 						if(nmangueras==3){
 4534              		.loc 1 1001 0
 4535 07cc BB79     		ldrb	r3, [r7, #6]	@ zero_extendqisi2
 4536 07ce 032B     		cmp	r3, #3
 4537 07d0 40F09480 		bne	.L287
1002:.\Protocolo.c **** 							for(x=0;x<=7;x++){
 4538              		.loc 1 1002 0
 4539 07d4 0023     		movs	r3, #0
 4540 07d6 FB73     		strb	r3, [r7, #15]
 4541 07d8 0BE0     		b	.L288
 4542              	.L289:
1003:.\Protocolo.c **** 								lado2.totales[1][x]=Surtidor_rxBuffer[x+34];
 4543              		.loc 1 1003 0 discriminator 2
 4544 07da FB7B     		ldrb	r3, [r7, #15]	@ zero_extendqisi2
 4545 07dc FA7B     		ldrb	r2, [r7, #15]	@ zero_extendqisi2
 4546 07de 2232     		adds	r2, r2, #34
 4547 07e0 1F49     		ldr	r1, .L495
 4548 07e2 8A5C     		ldrb	r2, [r1, r2]
 4549 07e4 D2B2     		uxtb	r2, r2
 4550 07e6 2049     		ldr	r1, .L495+8
 4551 07e8 0B44     		add	r3, r3, r1
 4552 07ea 9A76     		strb	r2, [r3, #26]
1002:.\Protocolo.c **** 							for(x=0;x<=7;x++){
 4553              		.loc 1 1002 0 discriminator 2
 4554 07ec FB7B     		ldrb	r3, [r7, #15]	@ zero_extendqisi2
 4555 07ee 0133     		adds	r3, r3, #1
 4556 07f0 FB73     		strb	r3, [r7, #15]
 4557              	.L288:
1002:.\Protocolo.c **** 							for(x=0;x<=7;x++){
 4558              		.loc 1 1002 0 is_stmt 0 discriminator 1
 4559 07f2 FB7B     		ldrb	r3, [r7, #15]	@ zero_extendqisi2
 4560 07f4 072B     		cmp	r3, #7
 4561 07f6 F0D9     		bls	.L289
1004:.\Protocolo.c **** 							}
1005:.\Protocolo.c **** 							for(x=0;x<=7;x++){
 4562              		.loc 1 1005 0 is_stmt 1
 4563 07f8 0023     		movs	r3, #0
 4564 07fa FB73     		strb	r3, [r7, #15]
 4565 07fc 16E0     		b	.L290
 4566              	.L292:
1006:.\Protocolo.c ****                                 if(Surtidor_rxBuffer[x+43]==0){
 4567              		.loc 1 1006 0
 4568 07fe FB7B     		ldrb	r3, [r7, #15]	@ zero_extendqisi2
 4569 0800 2B33     		adds	r3, r3, #43
 4570 0802 174A     		ldr	r2, .L495
 4571 0804 D35C     		ldrb	r3, [r2, r3]
 4572 0806 DBB2     		uxtb	r3, r3
 4573 0808 002B     		cmp	r3, #0
 4574 080a 02D1     		bne	.L291
ARM GAS  C:\Users\RECEPC~1\AppData\Local\Temp\cc3fClzk.s 			page 102


1007:.\Protocolo.c ****                                     return 0;
 4575              		.loc 1 1007 0
 4576 080c 0023     		movs	r3, #0
 4577 080e 00F0BCBF 		b	.L199
 4578              	.L291:
1008:.\Protocolo.c ****                                 }                                 
1009:.\Protocolo.c **** 								lado2.totales[1][x+12]=Surtidor_rxBuffer[x+43];
 4579              		.loc 1 1009 0
 4580 0812 FB7B     		ldrb	r3, [r7, #15]	@ zero_extendqisi2
 4581 0814 0C33     		adds	r3, r3, #12
 4582 0816 FA7B     		ldrb	r2, [r7, #15]	@ zero_extendqisi2
 4583 0818 2B32     		adds	r2, r2, #43
 4584 081a 1149     		ldr	r1, .L495
 4585 081c 8A5C     		ldrb	r2, [r1, r2]
 4586 081e D2B2     		uxtb	r2, r2
 4587 0820 1149     		ldr	r1, .L495+8
 4588 0822 0B44     		add	r3, r3, r1
 4589 0824 9A76     		strb	r2, [r3, #26]
1005:.\Protocolo.c **** 							for(x=0;x<=7;x++){
 4590              		.loc 1 1005 0
 4591 0826 FB7B     		ldrb	r3, [r7, #15]	@ zero_extendqisi2
 4592 0828 0133     		adds	r3, r3, #1
 4593 082a FB73     		strb	r3, [r7, #15]
 4594              	.L290:
1005:.\Protocolo.c **** 							for(x=0;x<=7;x++){
 4595              		.loc 1 1005 0 is_stmt 0 discriminator 1
 4596 082c FB7B     		ldrb	r3, [r7, #15]	@ zero_extendqisi2
 4597 082e 072B     		cmp	r3, #7
 4598 0830 E5D9     		bls	.L292
1010:.\Protocolo.c **** 							}
1011:.\Protocolo.c **** 							for(x=0;x<=3;x++){
 4599              		.loc 1 1011 0 is_stmt 1
 4600 0832 0023     		movs	r3, #0
 4601 0834 FB73     		strb	r3, [r7, #15]
 4602 0836 0CE0     		b	.L293
 4603              	.L294:
1012:.\Protocolo.c **** 								lado2.ppu[1][x]=Surtidor_rxBuffer[x+52];
 4604              		.loc 1 1012 0 discriminator 2
 4605 0838 FB7B     		ldrb	r3, [r7, #15]	@ zero_extendqisi2
 4606 083a FA7B     		ldrb	r2, [r7, #15]	@ zero_extendqisi2
 4607 083c 3432     		adds	r2, r2, #52
 4608 083e 0849     		ldr	r1, .L495
 4609 0840 8A5C     		ldrb	r2, [r1, r2]
 4610 0842 D2B2     		uxtb	r2, r2
 4611 0844 0849     		ldr	r1, .L495+8
 4612 0846 0B44     		add	r3, r3, r1
 4613 0848 83F84F20 		strb	r2, [r3, #79]
1011:.\Protocolo.c **** 							for(x=0;x<=3;x++){
 4614              		.loc 1 1011 0 discriminator 2
 4615 084c FB7B     		ldrb	r3, [r7, #15]	@ zero_extendqisi2
 4616 084e 0133     		adds	r3, r3, #1
 4617 0850 FB73     		strb	r3, [r7, #15]
 4618              	.L293:
1011:.\Protocolo.c **** 							for(x=0;x<=3;x++){
 4619              		.loc 1 1011 0 is_stmt 0 discriminator 1
 4620 0852 FB7B     		ldrb	r3, [r7, #15]	@ zero_extendqisi2
 4621 0854 032B     		cmp	r3, #3
ARM GAS  C:\Users\RECEPC~1\AppData\Local\Temp\cc3fClzk.s 			page 103


 4622 0856 EFD9     		bls	.L294
1013:.\Protocolo.c **** 							}						
1014:.\Protocolo.c **** 							for(x=0;x<=7;x++){
 4623              		.loc 1 1014 0 is_stmt 1
 4624 0858 0023     		movs	r3, #0
 4625 085a FB73     		strb	r3, [r7, #15]
 4626 085c 15E0     		b	.L295
 4627              	.L496:
 4628 085e 00BF     		.align	2
 4629              	.L495:
 4630 0860 00000000 		.word	Surtidor_rxBuffer
 4631 0864 00000000 		.word	lado1
 4632 0868 00000000 		.word	lado2
 4633 086c 00000000 		.word	version
 4634              	.L296:
1015:.\Protocolo.c **** 								lado2.totales[2][x]=Surtidor_rxBuffer[x+64];
 4635              		.loc 1 1015 0 discriminator 2
 4636 0870 FB7B     		ldrb	r3, [r7, #15]	@ zero_extendqisi2
 4637 0872 FA7B     		ldrb	r2, [r7, #15]	@ zero_extendqisi2
 4638 0874 4032     		adds	r2, r2, #64
 4639 0876 AA49     		ldr	r1, .L497
 4640 0878 8A5C     		ldrb	r2, [r1, r2]
 4641 087a D2B2     		uxtb	r2, r2
 4642 087c A949     		ldr	r1, .L497+4
 4643 087e 0B44     		add	r3, r3, r1
 4644 0880 83F83220 		strb	r2, [r3, #50]
1014:.\Protocolo.c **** 							for(x=0;x<=7;x++){
 4645              		.loc 1 1014 0 discriminator 2
 4646 0884 FB7B     		ldrb	r3, [r7, #15]	@ zero_extendqisi2
 4647 0886 0133     		adds	r3, r3, #1
 4648 0888 FB73     		strb	r3, [r7, #15]
 4649              	.L295:
1014:.\Protocolo.c **** 							for(x=0;x<=7;x++){
 4650              		.loc 1 1014 0 is_stmt 0 discriminator 1
 4651 088a FB7B     		ldrb	r3, [r7, #15]	@ zero_extendqisi2
 4652 088c 072B     		cmp	r3, #7
 4653 088e EFD9     		bls	.L296
1016:.\Protocolo.c **** 							}
1017:.\Protocolo.c **** 							for(x=0;x<=7;x++){
 4654              		.loc 1 1017 0 is_stmt 1
 4655 0890 0023     		movs	r3, #0
 4656 0892 FB73     		strb	r3, [r7, #15]
 4657 0894 17E0     		b	.L297
 4658              	.L299:
1018:.\Protocolo.c ****                                 if(Surtidor_rxBuffer[x+73]==0){
 4659              		.loc 1 1018 0
 4660 0896 FB7B     		ldrb	r3, [r7, #15]	@ zero_extendqisi2
 4661 0898 4933     		adds	r3, r3, #73
 4662 089a A14A     		ldr	r2, .L497
 4663 089c D35C     		ldrb	r3, [r2, r3]
 4664 089e DBB2     		uxtb	r3, r3
 4665 08a0 002B     		cmp	r3, #0
 4666 08a2 02D1     		bne	.L298
1019:.\Protocolo.c ****                                     return 0;
 4667              		.loc 1 1019 0
 4668 08a4 0023     		movs	r3, #0
 4669 08a6 00F070BF 		b	.L199
ARM GAS  C:\Users\RECEPC~1\AppData\Local\Temp\cc3fClzk.s 			page 104


 4670              	.L298:
1020:.\Protocolo.c ****                                 }                                 
1021:.\Protocolo.c **** 								lado2.totales[2][x+12]=Surtidor_rxBuffer[x+73];
 4671              		.loc 1 1021 0
 4672 08aa FB7B     		ldrb	r3, [r7, #15]	@ zero_extendqisi2
 4673 08ac 0C33     		adds	r3, r3, #12
 4674 08ae FA7B     		ldrb	r2, [r7, #15]	@ zero_extendqisi2
 4675 08b0 4932     		adds	r2, r2, #73
 4676 08b2 9B49     		ldr	r1, .L497
 4677 08b4 8A5C     		ldrb	r2, [r1, r2]
 4678 08b6 D2B2     		uxtb	r2, r2
 4679 08b8 9A49     		ldr	r1, .L497+4
 4680 08ba 0B44     		add	r3, r3, r1
 4681 08bc 83F83220 		strb	r2, [r3, #50]
1017:.\Protocolo.c **** 							for(x=0;x<=7;x++){
 4682              		.loc 1 1017 0
 4683 08c0 FB7B     		ldrb	r3, [r7, #15]	@ zero_extendqisi2
 4684 08c2 0133     		adds	r3, r3, #1
 4685 08c4 FB73     		strb	r3, [r7, #15]
 4686              	.L297:
1017:.\Protocolo.c **** 							for(x=0;x<=7;x++){
 4687              		.loc 1 1017 0 is_stmt 0 discriminator 1
